--------------------------------------------------
Z80 DISASSEMBLER LISTING
Line   Addr Opcodes     Label   Instruction
--------------------------------------------------

0001   0000 C3 30 F6    L0221:  JP L0001
0002   0003 C3 66 F8            JP L0002
0003   0006 C3 10 FB            JP L0003
0004   0009 C3 C2 F4            JP L0004
0005   000C C3 98 F4            JP L0005
0006   000F C3 89 F4            JP L0006
0007   0012 C3 8E F4            JP L0007
0008   0015 C3 93 F4            JP L0008
0009   0018 C3 0D F5            JP L0009
0010   001B C3 14 F5            JP L0010
0011   001E C3 AF F4            JP L0011
0012   0021 C3 9D F4            JP L0012
0013   0024 C3 B9 F4            JP L0013
0014   0027 C3 DC F4            JP L0014
0015   002A C3 50 F4            JP L0015
0016   002D C3 6C FE            JP L0016
0017   0030 C3 FD F6            JP L0017
0018   0033 C3 61 F4            JP L0018
0019   0036 C3 DE F6            JP L0019
0020   0039 C3 B9 FA            JP L0020
0021   003C C3 75 FA            JP L0021
0022   003F C3 C0 FF            JP L0022
0023   0042 00                  NOP
0024   0043 00                  NOP
0025   0044 DB 8C       L0023:  IN A,(8CH)
0026   0046 CB 7F               BIT 7,A
0027   0048 28 FA               JR Z,L0023
0028   004A 21 40 30            LD HL,3040H
0029   004D 7E                  LD A,(HL)
0030   004E D3 80               OUT (80H),A
0031   0050 23                  INC HL
0032   0051 7E                  LD A,(HL)
0033   0052 D3 84               OUT (84H),A
0034   0054 23                  INC HL
0035   0055 7E                  LD A,(HL)
0036   0056 D3 88               OUT (88H),A
0037   0058 23                  INC HL
0038   0059 7E                  LD A,(HL)
0039   005A D3 8E               OUT (8EH),A
0040   005C AF                  XOR A
0041   005D D3 8D               OUT (8DH),A
0042   005F C9                  RET
0043   0060 3E 0E               LD A,0EH
0044   0062 D3 8C               OUT (8CH),A
0045   0064 7C                  LD A,H
0046   0065 D3 8D               OUT (8DH),A
0047   0067 3E 0F               LD A,0FH
0048   0069 D3 8C               OUT (8CH),A
0049   006B 7D                  LD A,L
0050   006C D3 8D               OUT (8DH),A
0051   006E 3E 12               LD A,12H
0052   0070 D3 8C               OUT (8CH),A
0053   0072 7C                  LD A,H
0054   0073 D3 8D               OUT (8DH),A
0055   0075 3E 13               LD A,13H
0056   0077 D3 8C               OUT (8CH),A
0057   0079 7D                  LD A,L
0058   007A D3 8D               OUT (8DH),A
0059   007C 18 08               JR L0024
0060   007E 3E 0A               LD A,0AH
0061   0080 D3 8C       L0102:  OUT (8CH),A
0062   0082 3E 20               LD A,20H
0063   0084 D3 8D               OUT (8DH),A
0064   0086 3E 1F       L0024:  LD A,1FH
0065   0088 D3 8C               OUT (8CH),A
0066   008A C9                  RET
0067   008B 3E 0A               LD A,0AH
0068   008D D3 8C               OUT (8CH),A
0069   008F AF                  XOR A
0070   0090 D3 8D               OUT (8DH),A
0071   0092 18 F2               JR L0024
0072   0094 DB 85       L0025:  IN A,(85H)
0073   0096 2F                  CPL
0074   0097 CB 7F               BIT 7,A
0075   0099 20 F9               JR NZ,L0025
0076   009B DB 85       L0026:  IN A,(85H)
0077   009D 2F                  CPL
0078   009E CB 7F               BIT 7,A
0079   00A0 28 F9               JR Z,L0026
0080   00A2 E6 7F               AND 7FH
0081   00A4 C9                  RET
0082   00A5 DB 89               IN A,(89H)
0083   00A7 CB 8F               RES 1,A
0084   00A9 21 F5 F2            LD HL,0F2F5H
0085   00AC D3 89               OUT (89H),A
0086   00AE 3E 8F               LD A,8FH
0087   00B0 D3 82               OUT (82H),A
0088   00B2 D3 86               OUT (86H),A
0089   00B4 D3 8A               OUT (8AH),A
0090   00B6 3E CF               LD A,0CFH
0091   00B8 D3 83               OUT (83H),A
0092   00BA 08                  EX AF,AF'
0093   00BB AF                  XOR A
0094   00BC D3 83               OUT (83H),A
0095   00BE 08                  EX AF,AF'
0096   00BF D3 87               OUT (87H),A
0097   00C1 08                  EX AF,AF'
0098   00C2 3D                  DEC A
0099   00C3 D3 87               OUT (87H),A
0100   00C5 08                  EX AF,AF'
0101   00C6 D3 8B               OUT (8BH),A
0102   00C8 3E F1               LD A,0F1H
0103   00CA D3 8B               OUT (8BH),A
0104   00CC 06 0C               LD B,0CH
0105   00CE 78          L0027:  LD A,B
0106   00CF 3D                  DEC A
0107   00D0 D3 8C               OUT (8CH),A
0108   00D2 7E                  LD A,(HL)
0109   00D3 D3 8D               OUT (8DH),A
0110   00D5 23                  INC HL
0111   00D6 10 F6               DJNZ L0027
0112   00D8 06 08               LD B,08H
0113   00DA 78          L0028:  LD A,B
0114   00DB C6 0B               ADD A,0BH
0115   00DD D3 8C               OUT (8CH),A
0116   00DF AF                  XOR A
0117   00E0 D3 8D               OUT (8DH),A
0118   00E2 10 F6               DJNZ L0028
0119   00E4 C3 86 F0            JP L0029
0120   00E7 CD 7E F0            CALL L0030
0121   00EA 21 20 00            LD HL,0020H
0122   00ED 22 40 30            LD (3040H),HL
0123   00F0 21 00 FF            LD HL,0FF00H
0124   00F3 22 42 30            LD (3042H),HL
0125   00F6 CD D8 F0            CALL L0031
0126   00F9 21 00 00            LD HL,0000H
0127   00FC 3A 40 30    L0033:  LD A,(3040H)
0128   00FF CD 13 F1            CALL L0032
0129   0102 23                  INC HL
0130   0103 7C                  LD A,H
0131   0104 FE 07               CP 07H
0132   0106 20 F4               JR NZ,L0033
0133   0108 7D                  LD A,L
0134   0109 FE 80               CP 80H
0135   010B 20 EF               JR NZ,L0033
0136   010D CD D8 F0            CALL L0031
0137   0110 C3 8B F0            JP L0034
0138   0113 F5                  PUSH AF
0139   0114 DB 8C       L0035:  IN A,(8CH)
0140   0116 CB 7F               BIT 7,A
0141   0118 28 FA               JR Z,L0035
0142   011A F1                  POP AF
0143   011B D3 80               OUT (80H),A
0144   011D 3A 43 30            LD A,(3043H)
0145   0120 D3 8E               OUT (8EH),A
0146   0122 AF                  XOR A
0147   0123 D3 8D               OUT (8DH),A
0148   0125 C9                  RET
0149   0126 21 00 00            LD HL,0000H
0150   0129 CD D8 F0            CALL L0031
0151   012C E5          L0037:  PUSH HL
0152   012D CD 44 F0            CALL L0036
0153   0130 E1                  POP HL
0154   0131 23                  INC HL
0155   0132 7C                  LD A,H
0156   0133 FE 07               CP 07H
0157   0135 20 F5               JR NZ,L0037
0158   0137 7D                  LD A,L
0159   0138 FE 80               CP 80H
0160   013A 20 F0               JR NZ,L0037
0161   013C C9                  RET
0162   013D CD E7 F0            CALL L0038
0163   0140 21 56 F3            LD HL,0F356H
0164   0143 CD E1 F2            CALL L0039
0165   0146 21 75 F3            LD HL,0F375H
0166   0149 CD E1 F2            CALL L0039
0167   014C 21 A4 F3            LD HL,0F3A4H
0168   014F CD E1 F2            CALL L0039
0169   0152 3E FF               LD A,0FFH
0170   0154 32 43 30            LD (3043H),A
0171   0157 21 D3 F3            LD HL,0F3D3H
0172   015A CD E1 F2            CALL L0039
0173   015D 21 26 05            LD HL,0526H
0174   0160 CD 60 F0            CALL L0040
0175   0163 CD 94 F0            CALL L0041
0176   0166 2A B6 F3            LD HL,(0F3B6H)
0177   0169 E5                  PUSH HL
0178   016A CD 60 F0            CALL L0040
0179   016D E1                  POP HL
0180   016E 06 1A               LD B,1AH
0181   0170 3E 20       L0042:  LD A,20H
0182   0172 CD 13 F1            CALL L0032
0183   0175 10 F9               DJNZ L0042
0184   0177 21 26 05            LD HL,0526H
0185   017A CD 60 F0            CALL L0040
0186   017D AF                  XOR A
0187   017E D3 D6               OUT (0D6H),A
0188   0180 D3 D0               OUT (0D0H),A
0189   0182 E3          L0044:  EX (SP),HL
0190   0183 E3                  EX (SP),HL
0191   0184 DB D0               IN A,(0D0H)
0192   0186 CB 4F               BIT 1,A
0193   0188 28 06               JR Z,L0043
0194   018A 3E D0               LD A,0D0H
0195   018C D3 D0               OUT (0D0H),A
0196   018E 18 F2               JR L0044
0197   0190 21 00 00    L0043:  LD HL,0000H
0198   0193 22 00 90            LD (9000H),HL
0199   0196 21 00 15            LD HL,1500H
0200   0199 22 02 90            LD (9002H),HL
0201   019C 3E 01               LD A,01H
0202   019E D3 D6               OUT (0D6H),A
0203   01A0 06 05               LD B,05H
0204   01A2 3E 0B       L0045:  LD A,0BH
0205   01A4 D3 D0               OUT (0D0H),A
0206   01A6 E3                  EX (SP),HL
0207   01A7 E3                  EX (SP),HL
0208   01A8 10 F8               DJNZ L0045
0209   01AA DB D0       L0046:  IN A,(0D0H)
0210   01AC CB 47               BIT 0,A
0211   01AE 20 FA               JR NZ,L0046
0212   01B0 ED 5B 02 90 L0050:  LD DE,(9002H)
0213   01B4 2A 00 90            LD HL,(9000H)
0214   01B7 CD F5 F1            CALL L0047
0215   01BA 3A 02 90            LD A,(9002H)
0216   01BD 3C                  INC A
0217   01BE FE 0A               CP 0AH
0218   01C0 20 08               JR NZ,L0048
0219   01C2 3A 03 90            LD A,(9003H)
0220   01C5 3C                  INC A
0221   01C6 32 03 90            LD (9003H),A
0222   01C9 AF                  XOR A
0223   01CA 32 02 90    L0048:  LD (9002H),A
0224   01CD 2B                  DEC HL
0225   01CE 7E                  LD A,(HL)
0226   01CF 32 01 90            LD (9001H),A
0227   01D2 2B                  DEC HL
0228   01D3 7E                  LD A,(HL)
0229   01D4 32 00 90            LD (9000H),A
0230   01D7 2B                  DEC HL
0231   01D8 7E                  LD A,(HL)
0232   01D9 FE 01               CP 01H
0233   01DB 20 07               JR NZ,L0049
0234   01DD 2B                  DEC HL
0235   01DE 7E                  LD A,(HL)
0236   01DF FE 01               CP 01H
0237   01E1 28 CD               JR Z,L0050
0238   01E3 C7                  RST 00H
0239   01E4 21 B6 F3    L0049:  LD HL,0F3B6H
0240   01E7 AF                  XOR A
0241   01E8 D3 D6               OUT (0D6H),A
0242   01EA 3E F0               LD A,0F0H
0243   01EC 32 43 30            LD (3043H),A
0244   01EF CD E1 F2            CALL L0039
0245   01F2 C3 52 F1            JP L0051
0246   01F5 7B                  LD A,E
0247   01F6 D3 D2               OUT (0D2H),A
0248   01F8 7A                  LD A,D
0249   01F9 D3 D7               OUT (0D7H),A
0250   01FB 3E 1A               LD A,1AH
0251   01FD D3 D0               OUT (0D0H),A
0252   01FF E3                  EX (SP),HL
0253   0200 E3                  EX (SP),HL
0254   0201 DB D0       L0052:  IN A,(0D0H)
0255   0203 0F                  RRCA
0256   0204 38 FB               JR C,L0052
0257   0206 3E 88               LD A,88H
0258   0208 D3 D0               OUT (0D0H),A
0259   020A C5                  PUSH BC
0260   020B C1                  POP BC
0261   020C 18 03               JR L0053
0262   020E 0F          L0055:  RRCA
0263   020F 30 0C               JR NC,L0054
0264   0211 DB D0       L0053:  IN A,(0D0H)
0265   0213 CB 4F               BIT 1,A
0266   0215 28 F7               JR Z,L0055
0267   0217 DB D7               IN A,(0D7H)
0268   0219 77                  LD (HL),A
0269   021A 23                  INC HL
0270   021B 18 F4               JR L0053
0271   021D DB D0       L0054:  IN A,(0D0H)
0272   021F E6 5C               AND 5CH
0273   0221 C8                  RET Z
0274   0222 3E D0               LD A,0D0H
0275   0224 D3 D0               OUT (0D0H),A
0276   0226 C9                  RET
0277   0227 21 00 7F            LD HL,7F00H
0278   022A 22 06 90            LD (9006H),HL
0279   022D AF                  XOR A
0280   022E 08                  EX AF,AF'
0281   022F 21 FF FF            LD HL,0FFFFH
0282   0232 22 40 30            LD (3040H),HL
0283   0235 21 FF EF            LD HL,0EFFFH
0284   0238 22 42 30            LD (3042H),HL
0285   023B CD 26 F1            CALL L0056
0286   023E CD D8 F0            CALL L0031
0287   0241 21 80 07            LD HL,0780H
0288   0244 DB 8C       L0057:  IN A,(8CH)
0289   0246 CB 7F               BIT 7,A
0290   0248 28 FA               JR Z,L0057
0291   024A DB 80               IN A,(80H)
0292   024C 3C                  INC A
0293   024D 20 0A               JR NZ,L0058
0294   024F DB 84               IN A,(84H)
0295   0251 3C                  INC A
0296   0252 20 05               JR NZ,L0058
0297   0254 DB 88               IN A,(88H)
0298   0256 3C                  INC A
0299   0257 28 15               JR Z,L0059
0300   0259 ED 73 04 90 L0058:  LD (9004H),SP
0301   025D ED 7B 06 90         LD SP,(9006H)
0302   0261 E5                  PUSH HL
0303   0262 ED 73 06 90         LD (9006H),SP
0304   0266 ED 7B 04 90         LD SP,(9004H)
0305   026A 08                  EX AF,AF'
0306   026B 3E 01               LD A,01H
0307   026D 08                  EX AF,AF'
0308   026E 2B          L0059:  DEC HL
0309   026F AF                  XOR A
0310   0270 D3 8D               OUT (8DH),A
0311   0272 7C                  LD A,H
0312   0273 B5                  OR L
0313   0274 20 CE               JR NZ,L0057
0314   0276 CD D8 F0            CALL L0031
0315   0279 08                  EX AF,AF'
0316   027A B7                  OR A
0317   027B 28 61               JR Z,L0060
0318   027D CD E7 F0            CALL L0038
0319   0280 21 D9 F3            LD HL,0F3D9H
0320   0283 CD E1 F2            CALL L0039
0321   0286 21 40 01            LD HL,0140H
0322   0289 CD 60 F0            CALL L0040
0323   028C ED 73 04 90         LD (9004H),SP
0324   0290 3E 20       L0063:  LD A,20H
0325   0292 CD 13 F1            CALL L0032
0326   0295 ED 7B 06 90         LD SP,(9006H)
0327   0299 E1                  POP HL
0328   029A ED 73 06 90         LD (9006H),SP
0329   029E 7C                  LD A,H
0330   029F C6 30               ADD A,30H
0331   02A1 CD 13 F1            CALL L0032
0332   02A4 26 00               LD H,00H
0333   02A6 29                  ADD HL,HL
0334   02A7 29                  ADD HL,HL
0335   02A8 29                  ADD HL,HL
0336   02A9 29                  ADD HL,HL
0337   02AA 7C                  LD A,H
0338   02AB FE 0A               CP 0AH
0339   02AD 38 02               JR C,L0061
0340   02AF C6 07               ADD A,07H
0341   02B1 C6 30       L0061:  ADD A,30H
0342   02B3 CD 13 F1            CALL L0032
0343   02B6 B7                  OR A
0344   02B7 7D                  LD A,L
0345   02B8 1F                  RRA
0346   02B9 1F                  RRA
0347   02BA 1F                  RRA
0348   02BB 1F                  RRA
0349   02BC FE 0A               CP 0AH
0350   02BE 38 02               JR C,L0062
0351   02C0 C6 07               ADD A,07H
0352   02C2 C6 30       L0062:  ADD A,30H
0353   02C4 CD 13 F1            CALL L0032
0354   02C7 3A 07 90            LD A,(9007H)
0355   02CA FE 7F               CP 7FH
0356   02CC 20 C2               JR NZ,L0063
0357   02CE ED 7B 04 90         LD SP,(9004H)
0358   02D2 21 E9 F3            LD HL,0F3E9H
0359   02D5 CD E1 F2            CALL L0039
0360   02D8 CD 7E F0            CALL L0030
0361   02DB CD 94 F0            CALL L0041
0362   02DE C3 E7 F0    L0060:  JP L0038
0363   02E1 4E                  LD C,(HL)
0364   02E2 23                  INC HL
0365   02E3 46                  LD B,(HL)
0366   02E4 E5                  PUSH HL
0367   02E5 C5                  PUSH BC
0368   02E6 E1                  POP HL
0369   02E7 CD 6E F0            CALL L0064
0370   02EA E1                  POP HL
0371   02EB 23          L0065:  INC HL
0372   02EC 7E                  LD A,(HL)
0373   02ED FE 00               CP 00H
0374   02EF C8                  RET Z
0375   02F0 CD 13 F1            CALL L0032
0376   02F3 18 F6               JR L0065
0377   02F5 0B                  DEC BC
0378   02F6 00                  NOP
0379   02F7 0B                  DEC BC
0380   02F8 48                  LD C,B
0381   02F9 18 18               JR L0066
0382   02FB 00                  NOP
0383   02FC 1A                  LD A,(DE)
0384   02FD 28 57               JR Z,L0067
0385   02FF 50                  LD D,B
0386   0300 6F                  LD L,A
0387   0301 0B                  DEC BC
0388   0302 01 47 52            LD BC,5247H
0389   0305 41                  LD B,C
0390   0306 46                  LD B,(HL)
0391   0307 49                  LD C,C
0392   0308 43                  LD B,E
0393   0309 20 2D               JR NZ,L0068
0394   030B 20 4D               JR NZ,L0069
0395   030D 4F                  LD C,A
0396   030E 4E                  LD C,(HL)
0397   030F 49                  LD C,C
0398   0310 54                  LD D,H
0399   0311 4F                  LD C,A
0400   0312 52                  LD D,D
0401   0313 20 31       L0066:  JR NZ,L0070
0402   0315 2E 30               LD L,30H
0403   0317 00                  NOP
0404   0318 04                  INC B
0405   0319 02                  LD (BC),A
0406   031A 74                  LD (HL),H
0407   031B 79                  LD A,C
0408   031C 70                  LD (HL),B
0409   031D 65                  LD H,L
0410   031E 00                  NOP
0411   031F 3A 03 22            LD A,(2203H)
0412   0322 45                  LD B,L
0413   0323 53                  LD D,E
0414   0324 43                  LD B,E
0415   0325 22 20 66            LD (6620H),HL
0416   0328 6F                  LD L,A
0417   0329 72                  LD (HL),D
0418   032A 20 42               JR NZ,L0071
0419   032C 4F                  LD C,A
0420   032D 4F                  LD C,A
0421   032E 54                  LD D,H
0422   032F 53                  LD D,E
0423   0330 54                  LD D,H
0424   0331 52                  LD D,D
0425   0332 41                  LD B,C
0426   0333 50                  LD D,B
0427   0334 50                  LD D,B
0428   0335 49                  LD C,C
0429   0336 4E                  LD C,(HL)
0430   0337 47                  LD B,A
0431   0338 00          L0068:  NOP
0432   0339 D9                  EXX
0433   033A 03                  INC BC
0434   033B 22 52 45            LD (4552H),HL
0435   033E 54                  LD D,H
0436   033F 55                  LD D,L
0437   0340 52                  LD D,D
0438   0341 4E                  LD C,(HL)
0439   0342 22 20 66            LD (6620H),HL
0440   0345 6F                  LD L,A
0441   0346 72          L0070:  LD (HL),D
0442   0347 20 74               JR NZ,L0072
0443   0349 65                  LD H,L
0444   034A 73                  LD (HL),E
0445   034B 74                  LD (HL),H
0446   034C 69                  LD L,C
0447   034D 6E                  LD L,(HL)
0448   034E 67                  LD H,A
0449   034F 20 56               JR NZ,L0073
0450   0351 49                  LD C,C
0451   0352 44                  LD B,H
0452   0353 45                  LD B,L
0453   0354 4F                  LD C,A
0454   0355 00                  NOP
0455   0356 08          L0067:  EX AF,AF'
0456   0357 01 42 4F            LD BC,4F42H
0457   035A 4F          L0069:  LD C,A
0458   035B 54                  LD D,H
0459   035C 53                  LD D,E
0460   035D 54                  LD D,H
0461   035E 52                  LD D,D
0462   035F 41                  LD B,C
0463   0360 50                  LD D,B
0464   0361 20 56               JR NZ,L0074
0465   0363 65                  LD H,L
0466   0364 72                  LD (HL),D
0467   0365 73                  LD (HL),E
0468   0366 69                  LD L,C
0469   0367 6F                  LD L,A
0470   0368 6E                  LD L,(HL)
0471   0369 20 47               JR NZ,L0075
0472   036B 52                  LD D,D
0473   036C 41                  LD B,C
0474   036D 46                  LD B,(HL)
0475   036E 49          L0071:  LD C,C
0476   036F 43                  LD B,E
0477   0370 20 31               JR NZ,L0076
0478   0372 2E 30               LD L,30H
0479   0374 00                  NOP
0480   0375 9F                  SBC A,A
0481   0376 01 49 6E            LD BC,6E49H
0482   0379 73                  LD (HL),E
0483   037A 65                  LD H,L
0484   037B 72                  LD (HL),D
0485   037C 74                  LD (HL),H
0486   037D 20 4E               JR NZ,L0077
0487   037F 45                  LD B,L
0488   0380 2D                  DEC L
0489   0381 44                  LD B,H
0490   0382 4F                  LD C,A
0491   0383 53                  LD D,E
0492   0384 2D                  DEC L
0493   0385 44                  LD B,H
0494   0386 49                  LD C,C
0495   0387 53                  LD D,E
0496   0388 4B                  LD C,E
0497   0389 20 56               JR NZ,L0078
0498   038B 65                  LD H,L
0499   038C 72                  LD (HL),D
0500   038D 73                  LD (HL),E
0501   038E 69                  LD L,C
0502   038F 6F                  LD L,A
0503   0390 6E                  LD L,(HL)
0504   0391 20 47               JR NZ,L0079
0505   0393 52                  LD D,D
0506   0394 41                  LD B,C
0507   0395 46                  LD B,(HL)
0508   0396 49                  LD C,C
0509   0397 43                  LD B,E
0510   0398 20 69               JR NZ,L0080
0511   039A 6E                  LD L,(HL)
0512   039B 20 64               JR NZ,L0081
0513   039D 72                  LD (HL),D
0514   039E 69                  LD L,C
0515   039F 76                  HALT
0516   03A0 65                  LD H,L
0517   03A1 20 30               JR NZ,L0082
0518   03A3 00          L0076:  NOP
0519   03A4 4E                  LD C,(HL)
0520   03A5 02                  LD (BC),A
0521   03A6 74                  LD (HL),H
0522   03A7 68          L0073:  LD L,B
0523   03A8 65                  LD H,L
0524   03A9 6E                  LD L,(HL)
0525   03AA 20 74               JR NZ,L0083
0526   03AC 79                  LD A,C
0527   03AD 70                  LD (HL),B
0528   03AE 65                  LD H,L
0529   03AF 20 61               JR NZ,L0084
0530   03B1 20 6B               JR NZ,L0085
0531   03B3 65                  LD H,L
0532   03B4 79                  LD A,C
0533   03B5 00                  NOP
0534   03B6 89                  ADC A,C
0535   03B7 03                  INC BC
0536   03B8 20 4E               JR NZ,L0086
0537   03BA 6F                  LD L,A
0538   03BB 20 4E               JR NZ,L0087
0539   03BD 45          L0072:  LD B,L
0540   03BE 2D                  DEC L
0541   03BF 44                  LD B,H
0542   03C0 4F                  LD C,A
0543   03C1 53                  LD D,E
0544   03C2 20 56               JR NZ,L0088
0545   03C4 65                  LD H,L
0546   03C5 72                  LD (HL),D
0547   03C6 73                  LD (HL),E
0548   03C7 69                  LD L,C
0549   03C8 6F                  LD L,A
0550   03C9 6E                  LD L,(HL)
0551   03CA 20 47               JR NZ,L0089
0552   03CC 52                  LD D,D
0553   03CD 41          L0077:  LD B,C
0554   03CE 46                  LD B,(HL)
0555   03CF 49                  LD C,C
0556   03D0 43                  LD B,E
0557   03D1 20 00               JR NZ,L0082
0558   03D3 25          L0082:  DEC H
0559   03D4 05                  DEC B
0560   03D5 3E 20               LD A,20H
0561   03D7 3C                  INC A
0562   03D8 00                  NOP
0563   03D9 0E 00               LD C,00H
0564   03DB 45                  LD B,L
0565   03DC 72                  LD (HL),D
0566   03DD 72                  LD (HL),D
0567   03DE 6F                  LD L,A
0568   03DF 72                  LD (HL),D
0569   03E0 70                  LD (HL),B
0570   03E1 6F          L0078:  LD L,A
0571   03E2 69                  LD L,C
0572   03E3 6E                  LD L,(HL)
0573   03E4 74                  LD (HL),H
0574   03E5 73                  LD (HL),E
0575   03E6 20 3A               JR NZ,L0090
0576   03E8 00                  NOP
0577   03E9 28 00               JR Z,L0091
0578   03EB 50          L0091:  LD D,B
0579   03EC 6C                  LD L,H
0580   03ED 65                  LD H,L
0581   03EE 61                  LD H,C
0582   03EF 73                  LD (HL),E
0583   03F0 65                  LD H,L
0584   03F1 20 74               JR NZ,L0092
0585   03F3 79                  LD A,C
0586   03F4 70                  LD (HL),B
0587   03F5 65                  LD H,L
0588   03F6 20 61               JR NZ,L0093
0589   03F8 20 6B               JR NZ,L0094
0590   03FA 65                  LD H,L
0591   03FB 79                  LD A,C
0592   03FC 00                  NOP
0593   03FD C3 03 F4            JP L0095
0594   0400 C3 FD F3            JP L0096
0595   0403 DB 8C               IN A,(8CH)
0596   0405 AF                  XOR A
0597   0406 D3 D6               OUT (0D6H),A
0598   0408 F3          L0086:  DI
0599   0409 31 00 70            LD SP,7000H
0600   040C CD A5 F0            CALL L0097
0601   040F CD 27 F2    L0100:  CALL L0098
0602   0412 21 01 F3    L0084:  LD HL,0F301H
0603   0415 CD E1 F2            CALL L0039
0604   0418 21 18 F3            LD HL,0F318H
0605   041B CD E1 F2            CALL L0039
0606   041E 21 1F F3    L0085:  LD HL,0F31FH
0607   0421 CD E1 F2            CALL L0039
0608   0424 21 39 F3            LD HL,0F339H
0609   0427 CD E1 F2            CALL L0039
0610   042A 21 D3 F3            LD HL,0F3D3H
0611   042D CD E1 F2            CALL L0039
0612   0430 21 26 05            LD HL,0526H
0613   0433 CD 60 F0            CALL L0040
0614   0436 CD 94 F0    L0101:  CALL L0041
0615   0439 FE 1B               CP 1BH
0616   043B CA 3D F1            JP Z,L0099
0617   043E FE 0D               CP 0DH
0618   0440 28 CD               JR Z,L0100
0619   0442 18 F2               JR L0101
0620   0444 00                  NOP
0621   0445 00                  NOP
0622   0446 00                  NOP
0623   0447 00                  NOP
0624   0448 00                  NOP
0625   0449 00                  NOP
0626   044A 00                  NOP
0627   044B 00                  NOP
0628   044C 00                  NOP
0629   044D 00                  NOP
0630   044E 00                  NOP
0631   044F 00                  NOP
0632   0450 F5                  PUSH AF
0633   0451 C5                  PUSH BC
0634   0452 3A 40 00            LD A,(0040H)
0635   0455 3C                  INC A
0636   0456 47                  LD B,A
0637   0457 AF                  XOR A
0638   0458 37                  SCF
0639   0459 17          L0093:  RLA
0640   045A 10 FD               DJNZ L0093
0641   045C D3 D6               OUT (0D6H),A
0642   045E C1                  POP BC
0643   045F F1                  POP AF
0644   0460 C9                  RET
0645   0461 31 80 00            LD SP,0080H
0646   0464 0E 00               LD C,00H
0647   0466 CD 89 F4            CALL L0006
0648   0469 CD 98 F4            CALL L0005
0649   046C 3C                  INC A
0650   046D D3 D6               OUT (0D6H),A
0651   046F CD C2 F4            CALL L0004
0652   0472 C2 FD F6            JP NZ,L0017
0653   0475 01 80 00            LD BC,0080H
0654   0478 CD 93 F4            CALL L0008
0655   047B 0E 01               LD C,01H
0656   047D CD 8E F4            CALL L0007
0657   0480 CD 0D F5            CALL L0009
0658   0483 C2 FD F6            JP NZ,L0017
0659   0486 C3 80 00            JP L0102
0660   0489 79                  LD A,C
0661   048A 32 41 00            LD (0041H),A
0662   048D C9                  RET
0663   048E 79                  LD A,C
0664   048F 32 42 00            LD (0042H),A
0665   0492 C9                  RET
0666   0493 ED 43 45 00         LD (0045H),BC
0667   0497 C9                  RET
0668   0498 79                  LD A,C
0669   0499 32 40 00            LD (0040H),A
0670   049C C9                  RET
0671   049D F5                  PUSH AF
0672   049E DB D0       L0103:  IN A,(0D0H)
0673   04A0 CB 47               BIT 0,A
0674   04A2 20 FA               JR NZ,L0103
0675   04A4 F1                  POP AF
0676   04A5 32 43 00            LD (0043H),A
0677   04A8 D3 D0               OUT (0D0H),A
0678   04AA E3                  EX (SP),HL
0679   04AB E3                  EX (SP),HL
0680   04AC E3                  EX (SP),HL
0681   04AD E3                  EX (SP),HL
0682   04AE C9                  RET
0683   04AF DB D0       L0104:  IN A,(0D0H)
0684   04B1 CB 47               BIT 0,A
0685   04B3 20 FA               JR NZ,L0104
0686   04B5 32 44 00            LD (0044H),A
0687   04B8 C9                  RET
0688   04B9 21 4A 00            LD HL,004AH
0689   04BC 3A 40 00            LD A,(0040H)
0690   04BF 85                  ADD A,L
0691   04C0 6F                  LD L,A
0692   04C1 C9                  RET
0693   04C2 C5                  PUSH BC
0694   04C3 06 03               LD B,03H
0695   04C5 3E 07       L0106:  LD A,07H
0696   04C7 CD 9D F4            CALL L0012
0697   04CA CD AF F4            CALL L0011
0698   04CD E6 18               AND 18H
0699   04CF 28 06               JR Z,L0105
0700   04D1 10 F2               DJNZ L0106
0701   04D3 3E 82               LD A,82H
0702   04D5 18 32               JR L0107
0703   04D7 CD B9 F4    L0105:  CALL L0013
0704   04DA 18 2A               JR L0108
0705   04DC C5                  PUSH BC
0706   04DD 06 03               LD B,03H
0707   04DF CD B9 F4            CALL L0013
0708   04E2 7E                  LD A,(HL)
0709   04E3 D3 D1               OUT (0D1H),A
0710   04E5 3A 42 00    L0109:  LD A,(0042H)
0711   04E8 D3 D2               OUT (0D2H),A
0712   04EA 3A 41 00            LD A,(0041H)
0713   04ED D3 D7               OUT (0D7H),A
0714   04EF 3E 17               LD A,17H
0715   04F1 CD 9D F4            CALL L0012
0716   04F4 CD AF F4            CALL L0011
0717   04F7 E6 18               AND 18H
0718   04F9 28 0B               JR Z,L0108
0719   04FB CD C2 F4            CALL L0004
0720   04FE 20 09               JR NZ,L0107
0721   0500 10 E3               DJNZ L0109
0722   0502 3E 83               LD A,83H
0723   0504 18 03               JR L0107
0724   0506 DB D1       L0108:  IN A,(0D1H)
0725   0508 77                  LD (HL),A
0726   0509 C1          L0107:  POP BC
0727   050A CB 7F               BIT 7,A
0728   050C C9                  RET
0729   050D 3A 47 00            LD A,(0047H)
0730   0510 CB C7               SET 0,A
0731   0512 18 05               JR L0110
0732   0514 3A 47 00            LD A,(0047H)
0733   0517 CB 87               RES 0,A
0734   0519 32 47 00    L0110:  LD (0047H),A
0735   051C CD DC F4    L0117:  CALL L0014
0736   051F 20 4D               JR NZ,L0111
0737   0521 06 0A               LD B,0AH
0738   0523 2A 45 00    L0116:  LD HL,(0045H)
0739   0526 C5                  PUSH BC
0740   0527 01 D7 80            LD BC,80D7H
0741   052A 3A 47 00            LD A,(0047H)
0742   052D CB 47               BIT 0,A
0743   052F 28 11               JR Z,L0112
0744   0531 3E 88               LD A,88H
0745   0533 CD 9D F4            CALL L0012
0746   0536 DB D0       L0113:  IN A,(0D0H)
0747   0538 CB 4F               BIT 1,A
0748   053A 28 FA               JR Z,L0113
0749   053C ED A2               INI
0750   053E 20 F6               JR NZ,L0113
0751   0540 18 0F               JR L0114
0752   0542 3E A8       L0112:  LD A,0A8H
0753   0544 CD 9D F4            CALL L0012
0754   0547 DB D0       L0115:  IN A,(0D0H)
0755   0549 CB 4F               BIT 1,A
0756   054B 28 FA               JR Z,L0115
0757   054D ED A3               OUTI
0758   054F 20 F6               JR NZ,L0115
0759   0551 CD AF F4    L0114:  CALL L0011
0760   0554 C1                  POP BC
0761   0555 E6 1F               AND 1FH
0762   0557 28 15               JR Z,L0111
0763   0559 10 C8               DJNZ L0116
0764   055B 3A 47 00            LD A,(0047H)
0765   055E CB 7F               BIT 7,A
0766   0560 20 0C               JR NZ,L0111
0767   0562 CB FF               SET 7,A
0768   0564 32 47 00            LD (0047H),A
0769   0567 CD C2 F4            CALL L0004
0770   056A 20 02               JR NZ,L0111
0771   056C 18 AE               JR L0117
0772   056E F5          L0111:  PUSH AF
0773   056F AF                  XOR A
0774   0570 D3 D6               OUT (0D6H),A
0775   0572 F1                  POP AF
0776   0573 C9                  RET
0777   0574 3A 47 00            LD A,(0047H)
0778   0577 CB C7               SET 0,A
0779   0579 18 05               JR L0118
0780   057B 3A 47 00            LD A,(0047H)
0781   057E CB 87               RES 0,A
0782   0580 32 47 00    L0118:  LD (0047H),A
0783   0583 06 04               LD B,04H
0784   0585 CD DE F6            CALL L0019
0785   0588 C1                  POP BC
0786   0589 CD 93 F4            CALL L0008
0787   058C C1                  POP BC
0788   058D CD 8E F4            CALL L0007
0789   0590 C1                  POP BC
0790   0591 CD 89 F4            CALL L0006
0791   0594 C1                  POP BC
0792   0595 CD 98 F4            CALL L0005
0793   0598 CD 50 F4            CALL L0015
0794   059B CD 1C F5            CALL L0119
0795   059E C3 03 F7            JP L0120
0796   05A1 6F                  LD L,A
0797   05A2 50                  LD D,B
0798   05A3 57                  LD D,A
0799   05A4 28 1A               JR Z,L0121
0800   05A6 00                  NOP
0801   05A7 19                  ADD HL,DE
0802   05A8 19                  ADD HL,DE
0803   05A9 48                  LD C,B
0804   05AA 0B                  DEC BC
0805   05AB 00                  NOP
0806   05AC 0B                  DEC BC
0807   05AD 00                  NOP
0808   05AE 00                  NOP
0809   05AF 00                  NOP
0810   05B0 00                  NOP
0811   05B1 00                  NOP
0812   05B2 00                  NOP
0813   05B3 00                  NOP
0814   05B4 00                  NOP
0815   05B5 0E 00               LD C,00H
0816   05B7 CD 0F F0            CALL L0122
0817   05BA 3C                  INC A
0818   05BB D3 D6               OUT (0D6H),A
0819   05BD CD 09 F0            CALL L0123
0820   05C0 C2 FD F6    L0121:  JP NZ,L0017
0821   05C3 C3 00 F4            JP L0124
0822   05C6 00                  NOP
0823   05C7 00                  NOP
0824   05C8 CD A5 F0            CALL L0097
0825   05CB CD 06 F6            CALL L0125
0826   05CE CD 16 FC            CALL L0126
0827   05D1 CD 40 FE            CALL L0127
0828   05D4 3E FF               LD A,0FFH
0829   05D6 32 28 00            LD (0028H),A
0830   05D9 21 00 00            LD HL,0000H
0831   05DC 22 48 00            LD (0048H),HL
0832   05DF C3 39 FC            JP L0128
0833   05E2 45                  LD B,L
0834   05E3 4C                  LD C,H
0835   05E4 45                  LD B,L
0836   05E5 54                  LD D,H
0837   05E6 54                  LD D,H
0838   05E7 52                  LD D,D
0839   05E8 4F                  LD C,A
0840   05E9 20 64               JR NZ,L0129
0841   05EB 65                  LD H,L
0842   05EC 73                  LD (HL),E
0843   05ED 69                  LD L,C
0844   05EE 67                  LD H,A
0845   05EF 6E                  LD L,(HL)
0846   05F0 20 2A               JR NZ,L0130
0847   05F2 20 4D               JR NZ,L0131
0848   05F4 6F                  LD L,A
0849   05F5 6E                  LD L,(HL)
0850   05F6 69                  LD L,C
0851   05F7 74                  LD (HL),H
0852   05F8 6F                  LD L,A
0853   05F9 72                  LD (HL),D
0854   05FA 20 56               JR NZ,L0132
0855   05FC 2E 20               LD L,20H
0856   05FE 31 2E 30            LD SP,302EH
0857   0601 78                  LD A,B
0858   0602 0D                  DEC C
0859   0603 8A                  ADC A,D
0860   0604 00                  NOP
0861   0605 01 CD B0            LD BC,0B0CDH
0862   0608 F7                  RST 30H
0863   0609 E5                  PUSH HL
0864   060A 21 10 00            LD HL,0010H
0865   060D 06 00               LD B,00H
0866   060F 78                  LD A,B
0867   0610 D3 8C       L0133:  OUT (8CH),A
0868   0612 7E                  LD A,(HL)
0869   0613 D3 8D               OUT (8DH),A
0870   0615 23                  INC HL
0871   0616 04                  INC B
0872   0617 78                  LD A,B
0873   0618 FE 14               CP 14H
0874   061A 20 F4               JR NZ,L0133
0875   061C 2A 48 00    L0130:  LD HL,(0048H)
0876   061F CD 0E F9            CALL L0134
0877   0622 E1                  POP HL
0878   0623 2B                  DEC HL
0879   0624 C3 60 F0            JP L0040
0880   0627 00                  NOP
0881   0628 00                  NOP
0882   0629 00                  NOP
0883   062A 00                  NOP
0884   062B 00                  NOP
0885   062C 00                  NOP
0886   062D 00                  NOP
0887   062E 00                  NOP
0888   062F 00                  NOP
0889   0630 DB D6               IN A,(0D6H)
0890   0632 31 80 00            LD SP,0080H
0891   0635 21 A1 F5            LD HL,0F5A1H
0892   0638 11 10 00            LD DE,0010H
0893   063B 01 14 00            LD BC,0014H
0894   063E ED B0               LDIR
0895   0640 21 00 00            LD HL,0000H
0896   0643 22 48 00            LD (0048H),HL
0897   0646 AF                  XOR A
0898   0647 32 27 00            LD (0027H),A
0899   064A 32 29 00            LD (0029H),A
0900   064D 32 47 00            LD (0047H),A
0901   0650 2F                  CPL
0902   0651 32 28 00            LD (0028H),A
0903   0654 CD C8 F5            CALL L0135
0904   0657 21 FF FF            LD HL,0FFFFH
0905   065A 22 4A 00            LD (004AH),HL
0906   065D 22 4C 00            LD (004CH),HL
0907   0660 AF                  XOR A
0908   0661 D3 81               OUT (81H),A
0909   0663 D3 03               OUT (03H),A
0910   0665 2F                  CPL
0911   0666 D3 81               OUT (81H),A
0912   0668 D3 03               OUT (03H),A
0913   066A 3E C3               LD A,0C3H
0914   066C 32 08 00            LD (0008H),A
0915   066F 32 66 00            LD (0066H),A
0916   0672 21 00 F0            LD HL,0F000H
0917   0675 22 67 00            LD (0067H),HL
0918   0678 31 A2 F6            LD SP,0F6A2H
0919   067B 3E C5               LD A,0C5H
0920   067D 01 00 FF            LD BC,0FF00H
0921   0680 21 FF FF            LD HL,0FFFFH
0922   0683 24          L0137:  INC H
0923   0684 7E                  LD A,(HL)
0924   0685 2F                  CPL
0925   0686 77                  LD (HL),A
0926   0687 BE                  CP (HL)
0927   0688 2F                  CPL
0928   0689 77                  LD (HL),A
0929   068A 20 04               JR NZ,L0136
0930   068C 7C                  LD A,H
0931   068D B8                  CP B
0932   068E 20 F3               JR NZ,L0137
0933   0690 25          L0136:  DEC H
0934   0691 01 DE FF            LD BC,0FFDEH
0935   0694 09                  ADD HL,BC
0936   0695 C1                  POP BC
0937   0696 C9                  RET
0938   0697 E5                  PUSH HL
0939   0698 CD 7C F6            CALL L0138
0940   069B 7D                  LD A,L
0941   069C D6 3D               SUB 3DH
0942   069E 30 01               JR NC,L0139
0943   06A0 25                  DEC H
0944   06A1 44          L0139:  LD B,H
0945   06A2 E1                  POP HL
0946   06A3 C9                  RET
0947   06A4 A6                  AND (HL)
0948   06A5 F6 F9               OR 0F9H
0949   06A7 11 F2 F9            LD DE,0F9F2H
0950   06AA EB                  EX DE,HL
0951   06AB 01 1D 00            LD BC,001DH
0952   06AE ED B0               LDIR
0953   06B0 01 06 00            LD BC,0006H
0954   06B3 D5                  PUSH DE
0955   06B4 E1                  POP HL
0956   06B5 2B                  DEC HL
0957   06B6 ED B0               LDIR
0958   06B8 21 E8 FF            LD HL,0FFE8H
0959   06BB 39                  ADD HL,SP
0960   06BC E5                  PUSH HL
0961   06BD 23                  INC HL
0962   06BE 23                  INC HL
0963   06BF 22 06 00            LD (0006H),HL
0964   06C2 16 0A               LD D,0AH
0965   06C4 C5          L0140:  PUSH BC
0966   06C5 15                  DEC D
0967   06C6 20 FC               JR NZ,L0140
0968   06C8 00                  NOP
0969   06C9 00                  NOP
0970   06CA 00                  NOP
0971   06CB 21 E2 F5            LD HL,0F5E2H
0972   06CE CD 99 FA            CALL L0141
0973   06D1 18 30               JR L0142
0974   06D3 06 01               LD B,01H
0975   06D5 21 00 00            LD HL,0000H
0976   06D8 18 0A               JR L0143
0977   06DA 20 21       L0150:  JR NZ,L0144
0978   06DC 05                  DEC B
0979   06DD C8                  RET Z
0980   06DE 21 00 00            LD HL,0000H
0981   06E1 CD 28 F9    L0148:  CALL L0145
0982   06E4 4F          L0143:  LD C,A
0983   06E5 CD 5D F9            CALL L0146
0984   06E8 38 08               JR C,L0147
0985   06EA 29                  ADD HL,HL
0986   06EB 29                  ADD HL,HL
0987   06EC 29                  ADD HL,HL
0988   06ED 29                  ADD HL,HL
0989   06EE B5                  OR L
0990   06EF 6F                  LD L,A
0991   06F0 18 EF               JR L0148
0992   06F2 E3          L0147:  EX (SP),HL
0993   06F3 E5                  PUSH HL
0994   06F4 79                  LD A,C
0995   06F5 CD 70 F9            CALL L0149
0996   06F8 30 E0               JR NC,L0150
0997   06FA 10 01               DJNZ L0144
0998   06FC C9                  RET
0999   06FD 21 0F FA    L0144:  LD HL,0FA0FH
1000   0700 CD 9C FA            CALL L0151
1001   0703 2A 06 00    L0142:  LD HL,(0006H)
1002   0706 F9                  LD SP,HL
1003   0707 21 03 F7            LD HL,0F703H
1004   070A E5                  PUSH HL
1005   070B 22 01 00            LD (0001H),HL
1006   070E 3E C3               LD A,0C3H
1007   0710 32 00 00            LD (0000H),A
1008   0713 CD B0 FA            CALL L0152
1009   0716 CD 25 F9            CALL L0153
1010   0719 D6 41               SUB 41H
1011   071B 38 E0               JR C,L0144
1012   071D FE 1A               CP 1AH
1013   071F 30 DC               JR NC,L0144
1014   0721 87                  ADD A,A
1015   0722 5F                  LD E,A
1016   0723 16 00               LD D,00H
1017   0725 06 02               LD B,02H
1018   0727 21 D2 FA            LD HL,0FAD2H
1019   072A 19                  ADD HL,DE
1020   072B 7E                  LD A,(HL)
1021   072C 23                  INC HL
1022   072D 66                  LD H,(HL)
1023   072E 6F                  LD L,A
1024   072F E9                  JP (HL)
1025   0730 CD 33 F9            CALL L0154
1026   0733 71          L0156:  LD (HL),C
1027   0734 CD 3C F9            CALL L0155
1028   0737 30 FA               JR NC,L0156
1029   0739 D1                  POP DE
1030   073A 18 C7               JR L0142
1031   073C CD 33 F9            CALL L0154
1032   073F 0A          L0162:  LD A,(BC)
1033   0740 C5                  PUSH BC
1034   0741 46                  LD B,(HL)
1035   0742 B8                  CP B
1036   0743 28 0C               JR Z,L0157
1037   0745 F5                  PUSH AF
1038   0746 CD 63 FA            CALL L0158
1039   0749 78                  LD A,B
1040   074A CD 5C FA            CALL L0159
1041   074D F1                  POP AF
1042   074E CD 4E FA            CALL L0160
1043   0751 C1          L0157:  POP BC
1044   0752 CD 48 F9            CALL L0161
1045   0755 18 E8               JR L0162
1046   0757 CD AB FA            CALL L0163
1047   075A CD 63 FA    L0174:  CALL L0158
1048   075D 7D                  LD A,L
1049   075E CD 9B F7            CALL L0164
1050   0761 E5                  PUSH HL
1051   0762 7E          L0167:  LD A,(HL)
1052   0763 CD 4E FA            CALL L0160
1053   0766 CD 3C F9            CALL L0155
1054   0769 38 2A               JR C,L0165
1055   076B CD 66 FA            CALL L0166
1056   076E 7D                  LD A,L
1057   076F E6 0F               AND 0FH
1058   0771 20 EF               JR NZ,L0167
1059   0773 E1          L0175:  POP HL
1060   0774 7D                  LD A,L
1061   0775 E6 0F               AND 0FH
1062   0777 CD A0 F7            CALL L0168
1063   077A 7E          L0173:  LD A,(HL)
1064   077B 00                  NOP
1065   077C 00                  NOP
1066   077D 4F                  LD C,A
1067   077E FE 20               CP 20H
1068   0780 38 04               JR C,L0169
1069   0782 00                  NOP
1070   0783 00                  NOP
1071   0784 18 02               JR L0170
1072   0786 0E 2E       L0169:  LD C,2EH
1073   0788 CD 68 FA    L0170:  CALL L0171
1074   078B CD 49 F9            CALL L0172
1075   078E 7D                  LD A,L
1076   078F E6 0F               AND 0FH
1077   0791 20 E7               JR NZ,L0173
1078   0793 18 C5               JR L0174
1079   0795 93          L0165:  SUB E
1080   0796 CD 9B F7            CALL L0164
1081   0799 18 D8               JR L0175
1082   079B E6 0F               AND 0FH
1083   079D 47                  LD B,A
1084   079E 87                  ADD A,A
1085   079F 80                  ADD A,B
1086   07A0 47                  LD B,A
1087   07A1 04                  INC B
1088   07A2 CD 66 FA    L0176:  CALL L0166
1089   07A5 10 FB               DJNZ L0176
1090   07A7 C9                  RET
1091   07A8 CD DC F6            CALL L0177
1092   07AB E1                  POP HL
1093   07AC E9                  JP (HL)
1094   07AD 00                  NOP
1095   07AE 00                  NOP
1096   07AF 00                  NOP
1097   07B0 3E 0E               LD A,0EH
1098   07B2 D3 8C               OUT (8CH),A
1099   07B4 DB 8D               IN A,(8DH)
1100   07B6 67                  LD H,A
1101   07B7 3E 0F               LD A,0FH
1102   07B9 D3 8C               OUT (8CH),A
1103   07BB DB 8D               IN A,(8DH)
1104   07BD 6F                  LD L,A
1105   07BE 23                  INC HL
1106   07BF 3E 1F               LD A,1FH
1107   07C1 D3 8C               OUT (8CH),A
1108   07C3 C9                  RET
1109   07C4 D3 8C               OUT (8CH),A
1110   07C6 DB 8D               IN A,(8DH)
1111   07C8 6F                  LD L,A
1112   07C9 CD 60 F0            CALL L0040
1113   07CC EB                  EX DE,HL
1114   07CD C3 EE F8            JP L0178
1115   07D0 F5                  PUSH AF
1116   07D1 3E 1F               LD A,1FH
1117   07D3 D3 8C               OUT (8CH),A
1118   07D5 3A 28 00            LD A,(0028H)
1119   07D8 D3 8E               OUT (8EH),A
1120   07DA F1                  POP AF
1121   07DB D3 80               OUT (80H),A
1122   07DD DB 8C       L0179:  IN A,(8CH)
1123   07DF CB 7F               BIT 7,A
1124   07E1 28 FA               JR Z,L0179
1125   07E3 AF                  XOR A
1126   07E4 D3 8D               OUT (8DH),A
1127   07E6 C9                  RET
1128   07E7 DB 8C               IN A,(8CH)
1129   07E9 CB 77               BIT 6,A
1130   07EB C8                  RET Z
1131   07EC 3E 10               LD A,10H
1132   07EE D3 8C               OUT (8CH),A
1133   07F0 DB 8D               IN A,(8DH)
1134   07F2 67                  LD H,A
1135   07F3 3E 11               LD A,11H
1136   07F5 C3 C4 F7            JP L0180
1137   07F8 CD DC F6            CALL L0177
1138   07FB C1                  POP BC
1139   07FC ED 58               IN E,(C)
1140   07FE 18 51               JR L0181
1141   0800 CD DE F6            CALL L0019
1142   0803 D1                  POP DE
1143   0804 C1                  POP BC
1144   0805 ED 59               OUT (C),E
1145   0807 C9                  RET
1146   0808 CD 33 F9            CALL L0154
1147   080B 7E          L0182:  LD A,(HL)
1148   080C 02                  LD (BC),A
1149   080D CD 48 F9            CALL L0161
1150   0810 18 F9               JR L0182
1151   0812 CD DC F6            CALL L0177
1152   0815 E1                  POP HL
1153   0816 7E          L0187:  LD A,(HL)
1154   0817 CD 5C FA            CALL L0159
1155   081A CD 6D F9            CALL L0183
1156   081D D8                  RET C
1157   081E 28 0F               JR Z,L0184
1158   0820 FE 0A               CP 0AH
1159   0822 28 0D               JR Z,L0185
1160   0824 E5                  PUSH HL
1161   0825 CD D3 F6            CALL L0186
1162   0828 D1                  POP DE
1163   0829 E1                  POP HL
1164   082A 73                  LD (HL),E
1165   082B 79                  LD A,C
1166   082C FE 0D               CP 0DH
1167   082E C8                  RET Z
1168   082F 23          L0184:  INC HL
1169   0830 23                  INC HL
1170   0831 2B          L0185:  DEC HL
1171   0832 7D                  LD A,L
1172   0833 E6 07               AND 07H
1173   0835 CC 63 FA            CALL Z,L0158
1174   0838 18 DC               JR L0187
1175   083A CD AB FA            CALL L0163
1176   083D 7E          L0189:  LD A,(HL)
1177   083E F5                  PUSH AF
1178   083F 2F                  CPL
1179   0840 77                  LD (HL),A
1180   0841 AE                  XOR (HL)
1181   0842 C4 4C F8            CALL NZ,L0188
1182   0845 F1                  POP AF
1183   0846 77                  LD (HL),A
1184   0847 CD 49 F9            CALL L0172
1185   084A 18 F1               JR L0189
1186   084C D5                  PUSH DE
1187   084D 5F                  LD E,A
1188   084E CD 63 FA            CALL L0158
1189   0851 06 08       L0181:  LD B,08H
1190   0853 7B          L0190:  LD A,E
1191   0854 07                  RLCA
1192   0855 5F                  LD E,A
1193   0856 3E 18               LD A,18H
1194   0858 17                  RLA
1195   0859 4F                  LD C,A
1196   085A CD 68 FA            CALL L0171
1197   085D 10 F4               DJNZ L0190
1198   085F D1                  POP DE
1199   0860 C9                  RET
1200   0861 3E 00       L0191:  LD A,00H
1201   0863 32 26 00            LD (0026H),A
1202   0866 DB 85               IN A,(85H)
1203   0868 2F                  CPL
1204   0869 CB 7F               BIT 7,A
1205   086B 28 F4               JR Z,L0191
1206   086D E5                  PUSH HL
1207   086E 21 26 00            LD HL,0026H
1208   0871 BE                  CP (HL)
1209   0872 28 05               JR Z,L0192
1210   0874 21 FF A0            LD HL,0A0FFH
1211   0877 18 03               JR L0193
1212   0879 21 00 04    L0192:  LD HL,0400H
1213   087C F5          L0193:  PUSH AF
1214   087D DB 85       L0195:  IN A,(85H)
1215   087F 2F                  CPL
1216   0880 CB 7F               BIT 7,A
1217   0882 28 05               JR Z,L0194
1218   0884 2B                  DEC HL
1219   0885 7D                  LD A,L
1220   0886 B4                  OR H
1221   0887 20 F4               JR NZ,L0195
1222   0889 F1          L0194:  POP AF
1223   088A 32 26 00            LD (0026H),A
1224   088D CB BF               RES 7,A
1225   088F 21 27 00            LD HL,0027H
1226   0892 CB 4E               BIT 1,(HL)
1227   0894 21 47 00            LD HL,0047H
1228   0897 20 0D               JR NZ,L0196
1229   0899 CB 5E               BIT 3,(HL)
1230   089B E1                  POP HL
1231   089C C8                  RET Z
1232   089D FE 61               CP 61H
1233   089F F8                  RET M
1234   08A0 FE 7B               CP 7BH
1235   08A2 F0                  RET P
1236   08A3 CB AF               RES 5,A
1237   08A5 C9                  RET
1238   08A6 21 DB F8    L0196:  LD HL,0F8DBH
1239   08A9 E5                  PUSH HL
1240   08AA 21 47 00            LD HL,0047H
1241   08AD FE 5E               CP 5EH
1242   08AF 20 03               JR NZ,L0197
1243   08B1 CB DE               SET 3,(HL)
1244   08B3 C9                  RET
1245   08B4 FE 5C       L0197:  CP 5CH
1246   08B6 20 03               JR NZ,L0198
1247   08B8 CB 9E               RES 3,(HL)
1248   08BA C9                  RET
1249   08BB FE 07       L0198:  CP 07H
1250   08BD CA 40 FF            JP Z,L0199
1251   08C0 FE 05               CP 05H
1252   08C2 CA 9B FD            JP Z,L0200
1253   08C5 FE 13               CP 13H
1254   08C7 CA DF F8            JP Z,L0201
1255   08CA FE 04               CP 04H
1256   08CC CA 4E FB            JP Z,L0202
1257   08CF FE 18               CP 18H
1258   08D1 CA 13 FD            JP Z,L0203
1259   08D4 E1                  POP HL
1260   08D5 21 47 00            LD HL,0047H
1261   08D8 C3 03 F9            JP L0204
1262   08DB E1                  POP HL
1263   08DC C3 66 F8            JP L0002
1264   08DF 21 27 00            LD HL,0027H
1265   08E2 7E                  LD A,(HL)
1266   08E3 F5                  PUSH AF
1267   08E4 E5                  PUSH HL
1268   08E5 CB E6               SET 4,(HL)
1269   08E7 CD 46 FC            CALL L0205
1270   08EA E1                  POP HL
1271   08EB F1                  POP AF
1272   08EC 77                  LD (HL),A
1273   08ED C9                  RET
1274   08EE 2A 48 00            LD HL,(0048H)
1275   08F1 EB                  EX DE,HL
1276   08F2 AF                  XOR A
1277   08F3 ED 52               SBC HL,DE
1278   08F5 11 50 00            LD DE,0050H
1279   08F8 AF                  XOR A
1280   08F9 ED 52               SBC HL,DE
1281   08FB 30 FA               JR NC,L0206
1282   08FD 19                  ADD HL,DE
1283   08FE 7D                  LD A,L
1284   08FF 32 29 00            LD (0029H),A
1285   0902 C9                  RET
1286   0903 F5                  PUSH AF
1287   0904 D5                  PUSH DE
1288   0905 CD E7 F7            CALL L0207
1289   0908 D1                  POP DE
1290   0909 F1                  POP AF
1291   090A C3 99 F8            JP L0208
1292   090D 00                  NOP
1293   090E 3E 0C               LD A,0CH
1294   0910 D3 8C               OUT (8CH),A
1295   0912 7C                  LD A,H
1296   0913 D3 8D               OUT (8DH),A
1297   0915 3E 0D               LD A,0DH
1298   0917 D3 8C               OUT (8CH),A
1299   0919 7D                  LD A,L
1300   091A D3 8D               OUT (8DH),A
1301   091C 3E 1F               LD A,1FH
1302   091E D3 8C               OUT (8CH),A
1303   0920 C9                  RET
1304   0921 00                  NOP
1305   0922 00                  NOP
1306   0923 00                  NOP
1307   0924 00                  NOP
1308   0925 CD 5F FA            CALL L0209
1309   0928 CD 89 FA            CALL L0210
1310   092B C5                  PUSH BC
1311   092C 4F                  LD C,A
1312   092D CD 68 FA            CALL L0171
1313   0930 79                  LD A,C
1314   0931 C1                  POP BC
1315   0932 C9                  RET
1316   0933 04                  INC B
1317   0934 CD DE F6            CALL L0019
1318   0937 C1                  POP BC
1319   0938 D1                  POP DE
1320   0939 C3 B1 FA            JP L0211
1321   093C 23                  INC HL
1322   093D 7C                  LD A,H
1323   093E B5                  OR L
1324   093F 37                  SCF
1325   0940 C8                  RET Z
1326   0941 7B                  LD A,E
1327   0942 95                  SUB L
1328   0943 7A                  LD A,D
1329   0944 9C                  SBC A,H
1330   0945 C9                  RET
1331   0946 D1          L0212:  POP DE
1332   0947 C9                  RET
1333   0948 03                  INC BC
1334   0949 CD 3C F9            CALL L0155
1335   094C 38 F8               JR C,L0212
1336   094E CD B9 FA            CALL L0020
1337   0951 B7                  OR A
1338   0952 C8                  RET Z
1339   0953 CD 89 FA            CALL L0210
1340   0956 FE 13               CP 13H
1341   0958 20 EC               JR NZ,L0212
1342   095A C3 89 FA            JP L0210
1343   095D D6 30               SUB 30H
1344   095F D8                  RET C
1345   0960 FE 17               CP 17H
1346   0962 3F                  CCF
1347   0963 D8                  RET C
1348   0964 FE 0A               CP 0AH
1349   0966 3F                  CCF
1350   0967 D0                  RET NC
1351   0968 D6 07               SUB 07H
1352   096A FE 0A               CP 0AH
1353   096C C9                  RET
1354   096D CD 28 F9            CALL L0145
1355   0970 FE 20               CP 20H
1356   0972 C8                  RET Z
1357   0973 FE 2C               CP 2CH
1358   0975 C8                  RET Z
1359   0976 FE 0D               CP 0DH
1360   0978 37                  SCF
1361   0979 C8                  RET Z
1362   097A 3F                  CCF
1363   097B C9                  RET
1364   097C E5                  PUSH HL
1365   097D D5                  PUSH DE
1366   097E C5                  PUSH BC
1367   097F F5                  PUSH AF
1368   0980 CD 7C F6            CALL L0138
1369   0983 EB                  EX DE,HL
1370   0984 21 0A 00            LD HL,000AH
1371   0987 39                  ADD HL,SP
1372   0988 06 04               LD B,04H
1373   098A EB                  EX DE,HL
1374   098B 2B          L0213:  DEC HL
1375   098C 72                  LD (HL),D
1376   098D 2B                  DEC HL
1377   098E 73                  LD (HL),E
1378   098F D1                  POP DE
1379   0990 10 F9               DJNZ L0213
1380   0992 C1                  POP BC
1381   0993 0B                  DEC BC
1382   0994 F9                  LD SP,HL
1383   0995 21 25 00            LD HL,0025H
1384   0998 39                  ADD HL,SP
1385   0999 D5                  PUSH DE
1386   099A 16 02               LD D,02H
1387   099C 7E          L0215:  LD A,(HL)
1388   099D 91                  SUB C
1389   099E 23                  INC HL
1390   099F 7E                  LD A,(HL)
1391   09A0 98                  SBC A,B
1392   09A1 28 06               JR Z,L0214
1393   09A3 23                  INC HL
1394   09A4 23                  INC HL
1395   09A5 15                  DEC D
1396   09A6 20 F4               JR NZ,L0215
1397   09A8 03                  INC BC
1398   09A9 21 20 00    L0214:  LD HL,0020H
1399   09AC D1                  POP DE
1400   09AD 39                  ADD HL,SP
1401   09AE 73                  LD (HL),E
1402   09AF 23                  INC HL
1403   09B0 72                  LD (HL),D
1404   09B1 C5                  PUSH BC
1405   09B2 0E 2A               LD C,2AH
1406   09B4 CD 68 FA            CALL L0171
1407   09B7 D1                  POP DE
1408   09B8 3E E5               LD A,0E5H
1409   09BA BA                  CP D
1410   09BB 28 09               JR Z,L0216
1411   09BD 23                  INC HL
1412   09BE 23                  INC HL
1413   09BF 73                  LD (HL),E
1414   09C0 23                  INC HL
1415   09C1 72                  LD (HL),D
1416   09C2 EB                  EX DE,HL
1417   09C3 CD 49 FA            CALL L0217
1418   09C6 21 25 00    L0216:  LD HL,0025H
1419   09C9 39                  ADD HL,SP
1420   09CA 01 00 02            LD BC,0200H
1421   09CD 5E          L0219:  LD E,(HL)
1422   09CE 71                  LD (HL),C
1423   09CF 23                  INC HL
1424   09D0 56                  LD D,(HL)
1425   09D1 71                  LD (HL),C
1426   09D2 23                  INC HL
1427   09D3 7B                  LD A,E
1428   09D4 B2                  OR D
1429   09D5 28 02               JR Z,L0218
1430   09D7 7E                  LD A,(HL)
1431   09D8 12                  LD (DE),A
1432   09D9 23          L0218:  INC HL
1433   09DA 10 F1               DJNZ L0219
1434   09DC 08                  EX AF,AF'
1435   09DD D9                  EXX
1436   09DE E5                  PUSH HL
1437   09DF D5                  PUSH DE
1438   09E0 C5                  PUSH BC
1439   09E1 F5                  PUSH AF
1440   09E2 DD E5               PUSH IX
1441   09E4 FD E5               PUSH IY
1442   09E6 ED 57               LD A,I
1443   09E8 47                  LD B,A
1444   09E9 ED 5F               LD A,R
1445   09EB 4F                  LD C,A
1446   09EC C5                  PUSH BC
1447   09ED C3 07 F3            JP L0220
1448   09F0 E5                  PUSH HL
1449   09F1 CF                  RST 08H
1450   09F2 C1                  POP BC
1451   09F3 79                  LD A,C
1452   09F4 ED 4F               LD R,A
1453   09F6 78                  LD A,B
1454   09F7 ED 47               LD I,A
1455   09F9 DD E1               POP IX
1456   09FB FD E1               POP IY
1457   09FD F1                  POP AF
1458   09FE C1                  POP BC
1459   09FF D1                  POP DE
1460   0A00 E1                  POP HL
1461   0A01 08                  EX AF,AF'
1462   0A02 D9                  EXX
1463   0A03 D1                  POP DE
1464   0A04 C1                  POP BC
1465   0A05 F1                  POP AF
1466   0A06 E1                  POP HL
1467   0A07 F9                  LD SP,HL
1468   0A08 00                  NOP
1469   0A09 21 00 00            LD HL,0000H
1470   0A0C C3 00 00            JP L0221
1471   0A0F AA                  XOR D
1472   0A10 21 47 00            LD HL,0047H
1473   0A13 CB 66               BIT 4,(HL)
1474   0A15 28 04               JR Z,L0222
1475   0A17 CB A6               RES 4,(HL)
1476   0A19 18 02               JR L0223
1477   0A1B CB E6       L0222:  SET 4,(HL)
1478   0A1D C3 03 F7    L0223:  JP L0120
1479   0A20 ED 5B 48 00         LD DE,(0048H)
1480   0A24 AF                  XOR A
1481   0A25 ED 52               SBC HL,DE
1482   0A27 7C                  LD A,H
1483   0A28 FE 07               CP 07H
1484   0A2A D8                  RET C
1485   0A2B 7D                  LD A,L
1486   0A2C FE CF               CP 0CFH
1487   0A2E C9                  RET
1488   0A2F 00                  NOP
1489   0A30 B7                  OR A
1490   0A31 7C                  LD A,H
1491   0A32 1F                  RRA
1492   0A33 67                  LD H,A
1493   0A34 7D                  LD A,L
1494   0A35 1F                  RRA
1495   0A36 6F                  LD L,A
1496   0A37 C9                  RET
1497   0A38 CD AB FA            CALL L0163
1498   0A3B E5                  PUSH HL
1499   0A3C 19                  ADD HL,DE
1500   0A3D CD 63 FA            CALL L0158
1501   0A40 E1                  POP HL
1502   0A41 B7                  OR A
1503   0A42 ED 52               SBC HL,DE
1504   0A44 18 03               JR L0224
1505   0A46 CD B0 FA            CALL L0152
1506   0A49 7C          L0224:  LD A,H
1507   0A4A CD 4E FA            CALL L0160
1508   0A4D 7D                  LD A,L
1509   0A4E F5                  PUSH AF
1510   0A4F 0F                  RRCA
1511   0A50 0F                  RRCA
1512   0A51 0F                  RRCA
1513   0A52 0F                  RRCA
1514   0A53 CD 57 FA            CALL L0225
1515   0A56 F1                  POP AF
1516   0A57 CD E0 FD            CALL L0226
1517   0A5A 18 0C               JR L0227
1518   0A5C CD 4E FA            CALL L0160
1519   0A5F 0E 2D               LD C,2DH
1520   0A61 18 05               JR L0227
1521   0A63 CD 46 FA            CALL L0228
1522   0A66 0E 20               LD C,20H
1523   0A68 3A 47 00    L0227:  LD A,(0047H)
1524   0A6B CB 67               BIT 4,A
1525   0A6D 28 03               JR Z,L0229
1526   0A6F CD 3C F0            CALL L0230
1527   0A72 C3 06 F0    L0229:  JP L0231
1528   0A75 DB 89       L0232:  IN A,(89H)
1529   0A77 CB 47               BIT 0,A
1530   0A79 20 FA               JR NZ,L0232
1531   0A7B 79                  LD A,C
1532   0A7C D3 81               OUT (81H),A
1533   0A7E C9                  RET
1534   0A7F 00                  NOP
1535   0A80 00                  NOP
1536   0A81 00                  NOP
1537   0A82 00                  NOP
1538   0A83 00                  NOP
1539   0A84 00                  NOP
1540   0A85 00                  NOP
1541   0A86 00                  NOP
1542   0A87 00                  NOP
1543   0A88 00                  NOP
1544   0A89 CD 03 F0            CALL L0233
1545   0A8C FE 60               CP 60H
1546   0A8E FA 98 FA            JP M,L0234
1547   0A91 FE 7B               CP 7BH
1548   0A93 F2 98 FA            JP P,L0234
1549   0A96 CB AF               RES 5,A
1550   0A98 C9                  RET
1551   0A99 CD B0 FA            CALL L0152
1552   0A9C C5                  PUSH BC
1553   0A9D 4E          L0235:  LD C,(HL)
1554   0A9E 46                  LD B,(HL)
1555   0A9F CB B9               RES 7,C
1556   0AA1 CD 68 FA            CALL L0171
1557   0AA4 23                  INC HL
1558   0AA5 78                  LD A,B
1559   0AA6 07                  RLCA
1560   0AA7 30 F4               JR NC,L0235
1561   0AA9 C1                  POP BC
1562   0AAA C9                  RET
1563   0AAB CD DE F6            CALL L0019
1564   0AAE D1                  POP DE
1565   0AAF E1                  POP HL
1566   0AB0 E5                  PUSH HL
1567   0AB1 21 02 F6            LD HL,0F602H
1568   0AB4 CD 9C FA            CALL L0151
1569   0AB7 E1                  POP HL
1570   0AB8 C9                  RET
1571   0AB9 DB 85               IN A,(85H)
1572   0ABB 2F                  CPL
1573   0ABC CB 7F               BIT 7,A
1574   0ABE 3E 00               LD A,00H
1575   0AC0 18 45               JR L0236
1576   0AC2 06 02       L0237:  LD B,02H
1577   0AC4 CD 89 FA    L0239:  CALL L0210
1578   0AC7 FE 07               CP 07H
1579   0AC9 20 F7               JR NZ,L0237
1580   0ACB CD 2B F9            CALL L0238
1581   0ACE 10 F4               DJNZ L0239
1582   0AD0 C9                  RET
1583   0AD1 00                  NOP
1584   0AD2 FD                  UNRECOGNIZED
1585   0AD3 F6 33               OR 33H
1586   0AD5 F0                  RET P
1587   0AD6 FD                  UNRECOGNIZED
1588   0AD7 F6 57               OR 57H
1589   0AD9 F7                  RST 30H
1590   0ADA FD                  UNRECOGNIZED
1591   0ADB F6 30               OR 30H
1592   0ADD F7                  RST 30H
1593   0ADE A8                  XOR B
1594   0ADF F7                  RST 30H
1595   0AE0 38 FA               JR C,L0240
1596   0AE2 F8                  RET M
1597   0AE3 F7                  RST 30H
1598   0AE4 C8                  RET Z
1599   0AE5 F5                  PUSH AF
1600   0AE6 00                  NOP
1601   0AE7 F0                  RET P
1602   0AE8 74                  LD (HL),H
1603   0AE9 F5                  PUSH AF
1604   0AEA 08                  EX AF,AF'
1605   0AEB F8                  RET M
1606   0AEC B5          L0241:  OR L
1607   0AED F5                  PUSH AF
1608   0AEE 00                  NOP
1609   0AEF F8                  RET M
1610   0AF0 10 FA               DJNZ L0241
1611   0AF2 FD                  UNRECOGNIZED
1612   0AF3 F6 7B               OR 7BH
1613   0AF5 F5                  PUSH AF
1614   0AF6 12                  LD (DE),A
1615   0AF7 F8                  RET M
1616   0AF8 3A F8 FD            LD A,(0FDF8H)
1617   0AFB F6 3C               OR 3CH
1618   0AFD F7                  RST 30H
1619   0AFE FD                  UNRECOGNIZED
1620   0AFF F6 FD               OR 0FDH
1621   0B01 F6 06               OR 06H
1622   0B03 F6 C2               OR 0C2H
1623   0B05 FA 00 C8            JP M,L0242
1624   0B08 2F                  CPL
1625   0B09 C9                  RET
1626   0B0A 00                  NOP
1627   0B0B 00                  NOP
1628   0B0C 00                  NOP
1629   0B0D 00                  NOP
1630   0B0E 00                  NOP
1631   0B0F 00                  NOP
1632   0B10 F5                  PUSH AF
1633   0B11 C5                  PUSH BC
1634   0B12 D5                  PUSH DE
1635   0B13 E5                  PUSH HL
1636   0B14 21 DE FB            LD HL,0FBDEH
1637   0B17 E5                  PUSH HL
1638   0B18 00                  NOP
1639   0B19 00                  NOP
1640   0B1A 00                  NOP
1641   0B1B 00                  NOP
1642   0B1C 00                  NOP
1643   0B1D 00                  NOP
1644   0B1E 00                  NOP
1645   0B1F 00                  NOP
1646   0B20 79                  LD A,C
1647   0B21 21 27 00            LD HL,0027H
1648   0B24 CB 7E               BIT 7,(HL)
1649   0B26 EB                  EX DE,HL
1650   0B27 C2 98 FB            JP NZ,L0243
1651   0B2A FE 20               CP 20H
1652   0B2C 30 0E               JR NC,L0244
1653   0B2E 21 00 FE            LD HL,0FE00H
1654   0B31 85                  ADD A,L
1655   0B32 6F                  LD L,A
1656   0B33 4E                  LD C,(HL)
1657   0B34 06 00               LD B,00H
1658   0B36 B7                  OR A
1659   0B37 21 30 FC            LD HL,0FC30H
1660   0B3A 09                  ADD HL,BC
1661   0B3B E9                  JP (HL)
1662   0B3C EB          L0244:  EX DE,HL
1663   0B3D CB 76               BIT 6,(HL)
1664   0B3F 28 0A               JR Z,L0245
1665   0B41 FE 40               CP 40H
1666   0B43 38 06               JR C,L0245
1667   0B45 FE 60               CP 60H
1668   0B47 30 02               JR NC,L0245
1669   0B49 D6 40               SUB 40H
1670   0B4B CD D0 F7    L0245:  CALL L0246
1671   0B4E CD B0 F7            CALL L0247
1672   0B51 CD 60 F0            CALL L0040
1673   0B54 3A 29 00            LD A,(0029H)
1674   0B57 3C                  INC A
1675   0B58 FE 50               CP 50H
1676   0B5A 28 04               JR Z,L0248
1677   0B5C 32 29 00            LD (0029H),A
1678   0B5F C9                  RET
1679   0B60 AF          L0248:  XOR A
1680   0B61 32 29 00            LD (0029H),A
1681   0B64 CD 20 FA            CALL L0249
1682   0B67 D8                  RET C
1683   0B68 21 27 00            LD HL,0027H
1684   0B6B CB 56               BIT 2,(HL)
1685   0B6D 11 30 F8            LD DE,0F830H
1686   0B70 CD B0 F7            CALL L0247
1687   0B73 2B                  DEC HL
1688   0B74 28 04               JR Z,L0250
1689   0B76 19                  ADD HL,DE
1690   0B77 C3 60 F0            JP L0040
1691   0B7A E5          L0250:  PUSH HL
1692   0B7B CD C0 FD            CALL L0251
1693   0B7E 2A 48 00            LD HL,(0048H)
1694   0B81 11 50 00            LD DE,0050H
1695   0B84 19                  ADD HL,DE
1696   0B85 11 20 08            LD DE,0820H
1697   0B88 E5                  PUSH HL
1698   0B89 ED 52               SBC HL,DE
1699   0B8B E1                  POP HL
1700   0B8C 38 02               JR C,L0252
1701   0B8E CB 9C               RES 3,H
1702   0B90 22 48 00    L0252:  LD (0048H),HL
1703   0B93 CD 0E F9            CALL L0134
1704   0B96 18 4B               JR L0253
1705   0B98 FE 20               CP 20H
1706   0B9A 30 0F               JR NC,L0254
1707   0B9C 21 20 FE            LD HL,0FE20H
1708   0B9F 85                  ADD A,L
1709   0BA0 6F                  LD L,A
1710   0BA1 4E                  LD C,(HL)
1711   0BA2 06 00               LD B,00H
1712   0BA4 B7                  OR A
1713   0BA5 21 0F FD            LD HL,0FD0FH
1714   0BA8 09                  ADD HL,BC
1715   0BA9 00                  NOP
1716   0BAA E9                  JP (HL)
1717   0BAB EB          L0254:  EX DE,HL
1718   0BAC CB 46               BIT 0,(HL)
1719   0BAE 20 0B               JR NZ,L0255
1720   0BB0 FE 70               CP 70H
1721   0BB2 D0                  RET NC
1722   0BB3 D6 20               SUB 20H
1723   0BB5 32 25 00            LD (0025H),A
1724   0BB8 CB C6               SET 0,(HL)
1725   0BBA C9                  RET
1726   0BBB FE 39       L0255:  CP 39H
1727   0BBD D0                  RET NC
1728   0BBE D6 1F               SUB 1FH
1729   0BC0 CB BE               RES 7,(HL)
1730   0BC2 CB 86               RES 0,(HL)
1731   0BC4 47                  LD B,A
1732   0BC5 21 B0 FF            LD HL,0FFB0H
1733   0BC8 11 50 00            LD DE,0050H
1734   0BCB 19          L0256:  ADD HL,DE
1735   0BCC 10 FD               DJNZ L0256
1736   0BCE 3A 25 00            LD A,(0025H)
1737   0BD1 32 29 00            LD (0029H),A
1738   0BD4 5F                  LD E,A
1739   0BD5 19                  ADD HL,DE
1740   0BD6 EB                  EX DE,HL
1741   0BD7 2A 48 00            LD HL,(0048H)
1742   0BDA 19                  ADD HL,DE
1743   0BDB C3 60 F0            JP L0040
1744   0BDE E1                  POP HL
1745   0BDF D1                  POP DE
1746   0BE0 C1                  POP BC
1747   0BE1 F1                  POP AF
1748   0BE2 C9                  RET
1749   0BE3 E1          L0253:  POP HL
1750   0BE4 38 02               JR C,L0257
1751   0BE6 CB 9C               RES 3,H
1752   0BE8 C3 60 F0    L0257:  JP L0040
1753   0BEB 00                  NOP
1754   0BEC 00                  NOP
1755   0BED 00                  NOP
1756   0BEE 00                  NOP
1757   0BEF 00                  NOP
1758   0BF0 2E 40               LD L,40H
1759   0BF2 18 16               JR L0258
1760   0BF4 2E 4A               LD L,4AH
1761   0BF6 18 12               JR L0258
1762   0BF8 2E 60               LD L,60H
1763   0BFA 18 0E               JR L0258
1764   0BFC 2E 6A               LD L,6AH
1765   0BFE 18 0A               JR L0258
1766   0C00 2E 20               LD L,20H
1767   0C02 18 06               JR L0258
1768   0C04 2E 00               LD L,00H
1769   0C06 18 02               JR L0258
1770   0C08 2E 0A               LD L,0AH
1771   0C0A 3E 0A       L0258:  LD A,0AH
1772   0C0C D3 8C               OUT (8CH),A
1773   0C0E 7D                  LD A,L
1774   0C0F D3 8D               OUT (8DH),A
1775   0C11 3E 1F               LD A,1FH
1776   0C13 D3 8C               OUT (8CH),A
1777   0C15 C9                  RET
1778   0C16 21 FF FF            LD HL,0FFFFH
1779   0C19 22 2A 00            LD (002AH),HL
1780   0C1C 3E FF               LD A,0FFH
1781   0C1E 32 2C 00            LD (002CH),A
1782   0C21 C3 4A FE            JP L0259
1783   0C24 CD D0 F7            CALL L0246
1784   0C27 C3 60 F0            JP L0040
1785   0C2A 00                  NOP
1786   0C2B 00                  NOP
1787   0C2C 00                  NOP
1788   0C2D 00                  NOP
1789   0C2E 00                  NOP
1790   0C2F 00                  NOP
1791   0C30 C9                  RET
1792   0C31 EB                  EX DE,HL
1793   0C32 CB DE               SET 3,(HL)
1794   0C34 C9                  RET
1795   0C35 EB                  EX DE,HL
1796   0C36 CB 9E               RES 3,(HL)
1797   0C38 C9                  RET
1798   0C39 2A 48 00            LD HL,(0048H)
1799   0C3C CD 60 F0            CALL L0040
1800   0C3F AF                  XOR A
1801   0C40 C3 5C FB            JP L0260
1802   0C43 D3 8F               OUT (8FH),A
1803   0C45 C9                  RET
1804   0C46 CD B0 F7            CALL L0247
1805   0C49 2B                  DEC HL
1806   0C4A ED 5B 48 00         LD DE,(0048H)
1807   0C4E AF                  XOR A
1808   0C4F ED 52               SBC HL,DE
1809   0C51 BC                  CP H
1810   0C52 20 02               JR NZ,L0261
1811   0C54 BD                  CP L
1812   0C55 C8                  RET Z
1813   0C56 2B          L0261:  DEC HL
1814   0C57 19                  ADD HL,DE
1815   0C58 CD 60 F0            CALL L0040
1816   0C5B E5                  PUSH HL
1817   0C5C 3A 29 00            LD A,(0029H)
1818   0C5F 3D                  DEC A
1819   0C60 FE FF               CP 0FFH
1820   0C62 20 02               JR NZ,L0262
1821   0C64 3E 4F               LD A,4FH
1822   0C66 32 29 00    L0262:  LD (0029H),A
1823   0C69 21 27 00            LD HL,0027H
1824   0C6C CB 66               BIT 4,(HL)
1825   0C6E E1                  POP HL
1826   0C6F C0                  RET NZ
1827   0C70 3E 20               LD A,20H
1828   0C72 C3 24 FC            JP L0263
1829   0C75 21 29 00            LD HL,0029H
1830   0C78 5E                  LD E,(HL)
1831   0C79 AF                  XOR A
1832   0C7A 77                  LD (HL),A
1833   0C7B 57                  LD D,A
1834   0C7C CD B0 F7            CALL L0247
1835   0C7F 2B                  DEC HL
1836   0C80 ED 52               SBC HL,DE
1837   0C82 CD 60 F0            CALL L0040
1838   0C85 C9                  RET
1839   0C86 21 00 00            LD HL,0000H
1840   0C89 AF                  XOR A
1841   0C8A 32 29 00            LD (0029H),A
1842   0C8D 2F                  CPL
1843   0C8E 32 28 00            LD (0028H),A
1844   0C91 22 48 00            LD (0048H),HL
1845   0C94 CD 60 F0            CALL L0040
1846   0C97 CD 0E F9            CALL L0134
1847   0C9A E5                  PUSH HL
1848   0C9B 3E 20       L0264:  LD A,20H
1849   0C9D CD D0 F7            CALL L0246
1850   0CA0 23                  INC HL
1851   0CA1 7C                  LD A,H
1852   0CA2 FE 08               CP 08H
1853   0CA4 20 F5               JR NZ,L0264
1854   0CA6 E1                  POP HL
1855   0CA7 C3 60 F0            JP L0040
1856   0CAA EB                  EX DE,HL
1857   0CAB CB 5E               BIT 3,(HL)
1858   0CAD 28 03               JR Z,L0265
1859   0CAF CD D6 FC            CALL L0266
1860   0CB2 C3 75 FC    L0265:  JP L0267
1861   0CB5 AF                  XOR A
1862   0CB6 2A 48 00            LD HL,(0048H)
1863   0CB9 11 D0 07            LD DE,07D0H
1864   0CBC 19                  ADD HL,DE
1865   0CBD EB                  EX DE,HL
1866   0CBE CD B0 F7            CALL L0247
1867   0CC1 2B                  DEC HL
1868   0CC2 EB                  EX DE,HL
1869   0CC3 ED 52               SBC HL,DE
1870   0CC5 E5                  PUSH HL
1871   0CC6 C1                  POP BC
1872   0CC7 CD C3 FD            CALL L0268
1873   0CCA EB                  EX DE,HL
1874   0CCB C3 60 F0            JP L0040
1875   0CCE C3 FC FB            JP L0269
1876   0CD1 C3 F0 FF            JP L0270
1877   0CD4 00                  NOP
1878   0CD5 00                  NOP
1879   0CD6 3A 29 00            LD A,(0029H)
1880   0CD9 47                  LD B,A
1881   0CDA 3E 50               LD A,50H
1882   0CDC 90                  SUB B
1883   0CDD 06 00               LD B,00H
1884   0CDF 4F                  LD C,A
1885   0CE0 CD B0 F7            CALL L0247
1886   0CE3 2B                  DEC HL
1887   0CE4 EB                  EX DE,HL
1888   0CE5 C3 C7 FC            JP L0271
1889   0CE8 EB                  EX DE,HL
1890   0CE9 CB D6               SET 2,(HL)
1891   0CEB C9                  RET
1892   0CEC EB                  EX DE,HL
1893   0CED CB 96               RES 2,(HL)
1894   0CEF C9                  RET
1895   0CF0 EB                  EX DE,HL
1896   0CF1 CB 8E               RES 1,(HL)
1897   0CF3 C9                  RET
1898   0CF4 EB                  EX DE,HL
1899   0CF5 CB CE               SET 1,(HL)
1900   0CF7 C9                  RET
1901   0CF8 EB                  EX DE,HL
1902   0CF9 CB FE               SET 7,(HL)

1903   0CFB C9                  RET
1904   0CFC C3 9B FD            JP L0200
1905   0CFF 3E FF               LD A,0FFH
1906   0D01 32 28 00            LD (0028H),A
1907   0D04 C9                  RET
1908   0D05 C3 C8 F5            JP L0135
1909   0D08 C3 59 FF            JP L0272
1910   0D0B C3 F8 FB            JP L0273
1911   0D0E 00                  NOP
1912   0D0F C9                  RET
1913   0D10 C3 4E FB            JP L0202
1914   0D13 CD B0 F7            CALL L0247
1915   0D16 11 AF FF            LD DE,0FFAFH
1916   0D19 19                  ADD HL,DE
1917   0D1A EB                  EX DE,HL
1918   0D1B 2A 48 00            LD HL,(0048H)
1919   0D1E EB                  EX DE,HL
1920   0D1F AF                  XOR A
1921   0D20 ED 52               SBC HL,DE
1922   0D22 2F                  CPL
1923   0D23 BC                  CP H
1924   0D24 19                  ADD HL,DE
1925   0D25 C8                  RET Z
1926   0D26 C3 60 F0            JP L0040
1927   0D29 C3 F6 FF            JP L0274
1928   0D2C 00                  NOP
1929   0D2D 00                  NOP
1930   0D2E 00                  NOP
1931   0D2F EB                  EX DE,HL
1932   0D30 CB B6               RES 6,(HL)
1933   0D32 C9                  RET
1934   0D33 EB                  EX DE,HL
1935   0D34 CB E6               SET 4,(HL)
1936   0D36 C9                  RET
1937   0D37 EB                  EX DE,HL
1938   0D38 CB A6               RES 4,(HL)
1939   0D3A C9                  RET
1940   0D3B 21 28 00            LD HL,0028H
1941   0D3E CB C6               SET 0,(HL)
1942   0D40 C9                  RET
1943   0D41 21 28 00            LD HL,0028H
1944   0D44 CB CE               SET 1,(HL)
1945   0D46 C9                  RET
1946   0D47 21 28 00            LD HL,0028H
1947   0D4A CB D6               SET 2,(HL)
1948   0D4C C9                  RET
1949   0D4D 21 28 00            LD HL,0028H
1950   0D50 CB DE               SET 3,(HL)
1951   0D52 C9                  RET
1952   0D53 21 28 00            LD HL,0028H
1953   0D56 CB E6               SET 4,(HL)
1954   0D58 C9                  RET
1955   0D59 21 28 00            LD HL,0028H
1956   0D5C CB EE               SET 5,(HL)
1957   0D5E C9                  RET
1958   0D5F 21 28 00            LD HL,0028H
1959   0D62 CB F6               SET 6,(HL)
1960   0D64 C9                  RET
1961   0D65 21 28 00            LD HL,0028H
1962   0D68 CB FE               SET 7,(HL)
1963   0D6A C9                  RET
1964   0D6B 21 28 00            LD HL,0028H
1965   0D6E CB 86               RES 0,(HL)
1966   0D70 C9                  RET
1967   0D71 21 28 00            LD HL,0028H
1968   0D74 CB 8E               RES 1,(HL)
1969   0D76 C9                  RET
1970   0D77 21 28 00            LD HL,0028H
1971   0D7A CB 96               RES 2,(HL)
1972   0D7C C9                  RET
1973   0D7D 21 28 00            LD HL,0028H
1974   0D80 CB 9E               RES 3,(HL)
1975   0D82 C9                  RET
1976   0D83 21 28 00            LD HL,0028H
1977   0D86 CB A6               RES 4,(HL)
1978   0D88 C9                  RET
1979   0D89 21 28 00            LD HL,0028H
1980   0D8C CB AE               RES 5,(HL)
1981   0D8E C9                  RET
1982   0D8F 21 28 00            LD HL,0028H
1983   0D92 CB B6               RES 6,(HL)
1984   0D94 C9                  RET
1985   0D95 21 28 00            LD HL,0028H
1986   0D98 CB BE               RES 7,(HL)
1987   0D9A C9                  RET
1988   0D9B CD B0 F7            CALL L0247
1989   0D9E 2B                  DEC HL
1990   0D9F 11 50 00            LD DE,0050H
1991   0DA2 19                  ADD HL,DE
1992   0DA3 CD 60 F0            CALL L0040
1993   0DA6 C3 64 FB            JP L0275
1994   0DA9 EB                  EX DE,HL
1995   0DAA CB BE               RES 7,(HL)
1996   0DAC C9                  RET
1997   0DAD C3 F0 FB            JP L0276
1998   0DB0 C3 F4 FB            JP L0277
1999   0DB3 EB                  EX DE,HL
2000   0DB4 CB F6               SET 6,(HL)
2001   0DB6 C9                  RET
2002   0DB7 00                  NOP
2003   0DB8 00                  NOP
2004   0DB9 00                  NOP
2005   0DBA 00                  NOP
2006   0DBB 00                  NOP
2007   0DBC 00                  NOP
2008   0DBD 00                  NOP
2009   0DBE 00                  NOP
2010   0DBF 00                  NOP
2011   0DC0 01 50 00            LD BC,0050H
2012   0DC3 3A 28 00            LD A,(0028H)
2013   0DC6 F5                  PUSH AF
2014   0DC7 3E FF               LD A,0FFH
2015   0DC9 32 28 00            LD (0028H),A
2016   0DCC 3E 20       L0278:  LD A,20H
2017   0DCE CD D0 F7            CALL L0246
2018   0DD1 0B                  DEC BC
2019   0DD2 78                  LD A,B
2020   0DD3 B1                  OR C
2021   0DD4 20 F6               JR NZ,L0278
2022   0DD6 F1                  POP AF
2023   0DD7 32 28 00            LD (0028H),A
2024   0DDA C9                  RET
2025   0DDB 00                  NOP
2026   0DDC 00                  NOP
2027   0DDD 00                  NOP
2028   0DDE 00                  NOP
2029   0DDF 00                  NOP
2030   0DE0 E6 0F               AND 0FH
2031   0DE2 C6 90               ADD A,90H
2032   0DE4 27                  DAA
2033   0DE5 CE 40               ADC A,40H
2034   0DE7 27                  DAA
2035   0DE8 4F                  LD C,A
2036   0DE9 C9                  RET
2037   0DEA C3 08 FC            JP L0279
2038   0DED 00                  NOP
2039   0DEE 00                  NOP
2040   0DEF 00                  NOP
2041   0DF0 C3 40 FE            JP L0127
2042   0DF3 00                  NOP
2043   0DF4 00                  NOP
2044   0DF5 00                  NOP
2045   0DF6 00                  NOP
2046   0DF7 00                  NOP
2047   0DF8 00                  NOP
2048   0DF9 00                  NOP
2049   0DFA 00                  NOP
2050   0DFB 00                  NOP
2051   0DFC 00                  NOP
2052   0DFD 00                  NOP
2053   0DFE 00                  NOP
2054   0DFF 00                  NOP
2055   0E00 00                  NOP
2056   0E01 01 05 00            LD BC,0005H
2057   0E04 DB 9E               IN A,(9EH)
2058   0E06 09                  ADD HL,BC
2059   0E07 13                  INC DE
2060   0E08 16 00               LD D,00H
2061   0E0A CC 45 56            CALL Z,L0280
2062   0E0D 7A                  LD A,D
2063   0E0E 85                  ADD A,L
2064   0E0F A6                  AND (HL)
2065   0E10 00                  NOP
2066   0E11 CF                  RST 08H
2067   0E12 00                  NOP
2068   0E13 00                  NOP
2069   0E14 00                  NOP
2070   0E15 00                  NOP
2071   0E16 B8                  CP B
2072   0E17 BC                  CP H
2073   0E18 D5                  PUSH DE
2074   0E19 00                  NOP
2075   0E1A 00                  NOP
2076   0E1B C8                  RET Z
2077   0E1C C0                  RET NZ
2078   0E1D C4 D8 A1            CALL NZ,L0281
2079   0E20 9A                  SBC A,D
2080   0E21 2C                  INC L
2081   0E22 5C                  LD E,H
2082   0E23 38 68               JR C,L0282
2083   0E25 3E 6E               LD A,6EH
2084   0E27 44                  LD B,H
2085   0E28 00                  NOP
2086   0E29 74                  LD (HL),H
2087   0E2A 00                  NOP
2088   0E2B DB E1               IN A,(0E1H)
2089   0E2D 00                  NOP
2090   0E2E 4A                  LD C,D
2091   0E2F 7A                  LD A,D
2092   0E30 50                  LD D,B
2093   0E31 80                  ADD A,B
2094   0E32 9E                  SBC A,(HL)
2095   0E33 A1                  AND C
2096   0E34 8C                  ADC A,H
2097   0E35 01 04 A4            LD BC,0A404H
2098   0E38 20 24               JR NZ,L0283
2099   0E3A 28 62               JR Z,L0284
2100   0E3C 32 56 86            LD (8656H),A
2101   0E3F 1A                  LD A,(DE)
2102   0E40 21 00 00            LD HL,0000H
2103   0E43 22 2A 00            LD (002AH),HL
2104   0E46 AF                  XOR A
2105   0E47 32 2C 00            LD (002CH),A
2106   0E4A 3E EF               LD A,0EFH
2107   0E4C 32 28 00            LD (0028H),A
2108   0E4F 21 00 00            LD HL,0000H
2109   0E52 22 48 00            LD (0048H),HL
2110   0E55 CD D8 F0            CALL L0031
2111   0E58 E5          L0286:  PUSH HL
2112   0E59 CD 66 FE            CALL L0285
2113   0E5C E1                  POP HL
2114   0E5D 23                  INC HL
2115   0E5E 7C          L0283:  LD A,H
2116   0E5F FE 08               CP 08H
2117   0E61 20 F5               JR NZ,L0286
2118   0E63 C3 D8 F0            JP L0031
2119   0E66 DB 8C       L0287:  IN A,(8CH)
2120   0E68 CB 7F               BIT 7,A
2121   0E6A 28 FA               JR Z,L0287
2122   0E6C 21 2A 00            LD HL,002AH
2123   0E6F 7E                  LD A,(HL)
2124   0E70 D3 80               OUT (80H),A
2125   0E72 23                  INC HL
2126   0E73 7E                  LD A,(HL)
2127   0E74 D3 84               OUT (84H),A
2128   0E76 23                  INC HL
2129   0E77 7E                  LD A,(HL)
2130   0E78 D3 88               OUT (88H),A
2131   0E7A 3A 28 00            LD A,(0028H)
2132   0E7D D3 8E               OUT (8EH),A
2133   0E7F AF                  XOR A
2134   0E80 D3 8D               OUT (8DH),A
2135   0E82 C9                  RET
2136   0E83 00                  NOP
2137   0E84 CD B0 F7            CALL L0247
2138   0E87 E5                  PUSH HL
2139   0E88 3A 29 00            LD A,(0029H)
2140   0E8B F5                  PUSH AF
2141   0E8C C3 E1 FE            JP L0288
2142   0E8F 00                  NOP
2143   0E90 3A 2D 00            LD A,(002DH)
2144   0E93 FE A0               CP 0A0H
2145   0E95 D0                  RET NC
2146   0E96 47                  LD B,A
2147   0E97 AF                  XOR A
2148   0E98 CB 78               BIT 7,B
2149   0E9A 28 02               JR Z,L0284
2150   0E9C 3E 20               LD A,20H
2151   0E9E CB 70       L0284:  BIT 6,B
2152   0EA0 28 02               JR Z,L0289
2153   0EA2 C6 10               ADD A,10H
2154   0EA4 CB 68       L0289:  BIT 5,B
2155   0EA6 28 02               JR Z,L0290
2156   0EA8 C6 08               ADD A,08H
2157   0EAA CB 60       L0290:  BIT 4,B
2158   0EAC 28 02               JR Z,L0291
2159   0EAE C6 04               ADD A,04H
2160   0EB0 CB 58       L0291:  BIT 3,B
2161   0EB2 28 02               JR Z,L0292
2162   0EB4 C6 02               ADD A,02H
2163   0EB6 CB 50       L0292:  BIT 2,B
2164   0EB8 28 02               JR Z,L0293
2165   0EBA C6 01               ADD A,01H
2166   0EBC 21 2F 00    L0293:  LD HL,002FH
2167   0EBF CB 46               BIT 0,(HL)
2168   0EC1 28 02               JR Z,L0294
2169   0EC3 C6 28               ADD A,28H
2170   0EC5 32 25 00    L0294:  LD (0025H),A
2171   0EC8 78                  LD A,B
2172   0EC9 E6 03               AND 03H
2173   0ECB 5F                  LD E,A
2174   0ECC 3A 2E 00            LD A,(002EH)
2175   0ECF FE 95               CP 95H
2176   0ED1 D0                  RET NC
2177   0ED2 06 01               LD B,01H
2178   0ED4 D6 06       L0296:  SUB 06H
2179   0ED6 38 03               JR C,L0295
2180   0ED8 04                  INC B
2181   0ED9 18 F9               JR L0296
2182   0EDB C6 06       L0295:  ADD A,06H
2183   0EDD 57                  LD D,A
2184   0EDE C3 84 FE            JP L0297
2185   0EE1 00                  NOP
2186   0EE2 D5                  PUSH DE
2187   0EE3 CD C5 FB            CALL L0298
2188   0EE6 D1                  POP DE
2189   0EE7 21 2A 00            LD HL,002AH
2190   0EEA DB 8C       L0299:  IN A,(8CH)
2191   0EEC CB 7F               BIT 7,A
2192   0EEE 28 FA               JR Z,L0299
2193   0EF0 DB 80               IN A,(80H)
2194   0EF2 77                  LD (HL),A
2195   0EF3 23                  INC HL
2196   0EF4 DB 84               IN A,(84H)
2197   0EF6 77                  LD (HL),A
2198   0EF7 23                  INC HL
2199   0EF8 DB 88               IN A,(88H)
2200   0EFA 77                  LD (HL),A
2201   0EFB 3A 28 00            LD A,(0028H)
2202   0EFE CB A7               RES 4,A
2203   0F00 32 28 00            LD (0028H),A
2204   0F03 21 2A 00            LD HL,002AH
2205   0F06 CB 4A               BIT 1,D
2206   0F08 28 03               JR Z,L0300
2207   0F0A 23                  INC HL
2208   0F0B 18 06               JR L0301
2209   0F0D CB 52       L0300:  BIT 2,D
2210   0F0F 28 02               JR Z,L0301
2211   0F11 23                  INC HL
2212   0F12 23                  INC HL
2213   0F13 7B          L0301:  LD A,E
2214   0F14 CB 42               BIT 0,D
2215   0F16 28 02               JR Z,L0302
2216   0F18 C6 04               ADD A,04H
2217   0F1A 07          L0302:  RLCA
2218   0F1B 07                  RLCA
2219   0F1C 07                  RLCA
2220   0F1D EB                  EX DE,HL
2221   0F1E 21 2F 00            LD HL,002FH
2222   0F21 CB 4E               BIT 1,(HL)
2223   0F23 28 02               JR Z,L0303
2224   0F25 CB F7               SET 6,A
2225   0F27 F6 86       L0303:  OR 86H
2226   0F29 21 74 FF            LD HL,0FF74H
2227   0F2C E5                  PUSH HL
2228   0F2D ED 73 2D 00         LD (002DH),SP
2229   0F31 2A 2D 00            LD HL,(002DH)
2230   0F34 2B                  DEC HL
2231   0F35 36 C9               LD (HL),0C9H
2232   0F37 2B                  DEC HL
2233   0F38 77                  LD (HL),A
2234   0F39 2B                  DEC HL
2235   0F3A 36 CB               LD (HL),0CBH
2236   0F3C 2B                  DEC HL
2237   0F3D 36 EB               LD (HL),0EBH
2238   0F3F E9                  JP (HL)
2239   0F40 DB 8C       L0304:  IN A,(8CH)
2240   0F42 CB 7F               BIT 7,A
2241   0F44 28 FA               JR Z,L0304
2242   0F46 DB 8E               IN A,(8EH)
2243   0F48 CB E7               SET 4,A
2244   0F4A 32 28 00            LD (0028H),A
2245   0F4D DB 80               IN A,(80H)
2246   0F4F E1                  POP HL
2247   0F50 E1                  POP HL
2248   0F51 C9                  RET
2249   0F52 00                  NOP
2250   0F53 00                  NOP
2251   0F54 00                  NOP
2252   0F55 00                  NOP
2253   0F56 00                  NOP
2254   0F57 00                  NOP
2255   0F58 00                  NOP
2256   0F59 CD B0 F7            CALL L0247
2257   0F5C 2B                  DEC HL
2258   0F5D 3A 28 00            LD A,(0028H)
2259   0F60 F5                  PUSH AF
2260   0F61 E5                  PUSH HL
2261   0F62 CB A7               RES 4,A
2262   0F64 32 28 00            LD (0028H),A
2263   0F67 CD 66 FE            CALL L0285
2264   0F6A E1                  POP HL
2265   0F6B F1                  POP AF
2266   0F6C 32 28 00            LD (0028H),A
2267   0F6F C3 60 F0            JP L0040
2268   0F72 00                  NOP
2269   0F73 00                  NOP
2270   0F74 CD 66 FE            CALL L0285
2271   0F77 F1                  POP AF
2272   0F78 32 29 00            LD (0029H),A
2273   0F7B E1                  POP HL
2274   0F7C 2B                  DEC HL
2275   0F7D C3 60 F0            JP L0040
2276   0F80 CD B0 F7            CALL L0247
2277   0F83 2B                  DEC HL
2278   0F84 E5                  PUSH HL
2279   0F85 21 00 00            LD HL,0000H
2280   0F88 06 19       L0310:  LD B,19H
2281   0F8A C5                  PUSH BC
2282   0F8B 06 50               LD B,50H
2283   0F8D CD 60 F0    L0309:  CALL L0040
2284   0F90 DB 8C       L0305:  IN A,(8CH)
2285   0F92 CB 7F               BIT 7,A
2286   0F94 28 FA               JR Z,L0305
2287   0F96 DB 8E               IN A,(8EH)
2288   0F98 CB 67               BIT 4,A
2289   0F9A 20 04               JR NZ,L0306
2290   0F9C 3E 20       L0308:  LD A,20H
2291   0F9E 18 06               JR L0307
2292   0FA0 DB 80       L0306:  IN A,(80H)
2293   0FA2 FE 20               CP 20H
2294   0FA4 38 F6               JR C,L0308
2295   0FA6 CD 75 FA    L0307:  CALL L0021
2296   0FA9 CD B0 F7            CALL L0247
2297   0FAC 10 DF               DJNZ L0309
2298   0FAE 3E 0D               LD A,0DH
2299   0FB0 CD 75 FA            CALL L0021
2300   0FB3 3E 0A               LD A,0AH
2301   0FB5 CD 75 FA            CALL L0021
2302   0FB8 C1                  POP BC
2303   0FB9 10 CD               DJNZ L0310
2304   0FBB E1                  POP HL
2305   0FBC C3 60 F0            JP L0040
2306   0FBF 00                  NOP
2307   0FC0 D5                  PUSH DE
2308   0FC1 5E                  LD E,(HL)
2309   0FC2 23                  INC HL
2310   0FC3 56                  LD D,(HL)
2311   0FC4 21 A0 00            LD HL,00A0H
2312   0FC7 EB                  EX DE,HL
2313   0FC8 AF                  XOR A
2314   0FC9 3E 01               LD A,01H
2315   0FCB ED 52               SBC HL,DE
2316   0FCD 30 02               JR NC,L0311
2317   0FCF 19                  ADD HL,DE
2318   0FD0 3D                  DEC A
2319   0FD1 32 2F 00    L0311:  LD (002FH),A
2320   0FD4 7D                  LD A,L
2321   0FD5 32 2D 00            LD (002DH),A
2322   0FD8 D1                  POP DE
2323   0FD9 1A                  LD A,(DE)
2324   0FDA 32 2E 00            LD (002EH),A
2325   0FDD 0A                  LD A,(BC)
2326   0FDE CB 47               BIT 0,A
2327   0FE0 21 2F 00            LD HL,002FH
2328   0FE3 20 04               JR NZ,L0312
2329   0FE5 CB CE               SET 1,(HL)
2330   0FE7 18 02               JR L0313
2331   0FE9 CB 8E       L0312:  RES 1,(HL)
2332   0FEB C3 90 FE    L0313:  JP L0314
2333   0FEE 00                  NOP
2334   0FEF 00                  NOP
2335   0FF0 21 47 00            LD HL,0047H
2336   0FF3 CB DE               SET 3,(HL)
2337   0FF5 C9                  RET
2338   0FF6 21 47 00            LD HL,0047H
2339   0FF9 CB 9E               RES 3,(HL)
2340   0FFB C9                  RET
2341   0FFC 00                  NOP
2342   0FFD 00                  NOP
2343   0FFE 00                  NOP
2344   0FFF 00                  NOP

---------------------------------------------
LIST OF LABELS
Sorted by address:      Sorted by name:
---------------------------------------------

L0221:  0000            L0001:  F630
L0023:  0044            L0002:  F866
L0102:  0080            L0003:  FB10
L0024:  0086            L0004:  F4C2
L0025:  0094            L0005:  F498
L0026:  009B            L0006:  F489
L0027:  00CE            L0007:  F48E
L0028:  00DA            L0008:  F493
L0033:  00FC            L0009:  F50D
L0035:  0114            L0010:  F514
L0037:  012C            L0011:  F4AF
L0042:  0170            L0012:  F49D
L0044:  0182            L0013:  F4B9
L0043:  0190            L0014:  F4DC
L0045:  01A2            L0015:  F450
L0046:  01AA            L0016:  FE6C
L0050:  01B0            L0017:  F6FD
L0048:  01CA            L0018:  F461
L0049:  01E4            L0019:  F6DE
L0052:  0201            L0020:  FAB9
L0055:  020E            L0021:  FA75
L0053:  0211            L0022:  FFC0
L0054:  021D            L0023:  0044
L0057:  0244            L0024:  0086
L0058:  0259            L0025:  0094
L0059:  026E            L0026:  009B
L0063:  0290            L0027:  00CE
L0061:  02B1            L0028:  00DA
L0062:  02C2            L0029:  F086
L0060:  02DE            L0030:  F07E
L0065:  02EB            L0031:  F0D8
L0066:  0313            L0032:  F113
L0068:  0338            L0033:  00FC
L0070:  0346            L0034:  F08B
L0067:  0356            L0035:  0114
L0069:  035A            L0036:  F044
L0071:  036E            L0037:  012C
L0076:  03A3            L0038:  F0E7
L0073:  03A7            L0039:  F2E1
L0075:  03B2            L0040:  F060
L0074:  03B9            L0041:  F094
L0072:  03BD            L0042:  0170
L0077:  03CD            L0043:  0190
L0082:  03D3            L0044:  0182
L0079:  03DA            L0045:  01A2
L0078:  03E1            L0046:  01AA
L0091:  03EB            L0047:  F1F5
L0081:  0401            L0048:  01CA
L0080:  0403            L0049:  01E4
L0086:  0408            L0050:  01B0
L0087:  040B            L0051:  F152
L0100:  040F            L0052:  0201
L0084:  0412            L0053:  0211
L0089:  0413            L0054:  021D
L0088:  041A            L0055:  020E
L0085:  041E            L0056:  F126
L0083:  0420            L0057:  0244
L0090:  0422            L0058:  0259
L0101:  0436            L0059:  026E
L0093:  0459            L0060:  02DE
L0094:  0465            L0061:  02B1
L0092:  0467            L0062:  02C2
L0103:  049E            L0063:  0290
L0104:  04AF            L0064:  F06E
L0106:  04C5            L0065:  02EB
L0105:  04D7            L0066:  0313
L0109:  04E5            L0067:  0356
L0108:  0506            L0068:  0338
L0107:  0509            L0069:  035A
L0110:  0519            L0070:  0346
L0117:  051C            L0071:  036E
L0116:  0523            L0072:  03BD
L0113:  0536            L0073:  03A7
L0112:  0542            L0074:  03B9
L0115:  0547            L0075:  03B2
L0114:  0551            L0076:  03A3
L0111:  056E            L0077:  03CD
L0118:  0580            L0078:  03E1
L0121:  05C0            L0079:  03DA
L0133:  0610            L0080:  0403
L0130:  061C            L0081:  0401
L0131:  0641            L0082:  03D3
L0129:  064F            L0083:  0420
L0132:  0652            L0084:  0412
L0137:  0683            L0085:  041E
L0136:  0690            L0086:  0408
L0139:  06A1            L0087:  040B
L0140:  06C4            L0088:  041A
L0150:  06DA            L0089:  0413
L0148:  06E1            L0090:  0422
L0143:  06E4            L0091:  03EB
L0147:  06F2            L0092:  0467
L0144:  06FD            L0093:  0459
L0142:  0703            L0094:  0465
L0156:  0733            L0095:  F403
L0162:  073F            L0096:  F3FD
L0157:  0751            L0097:  F0A5
L0174:  075A            L0098:  F227
L0167:  0762            L0099:  F13D
L0175:  0773            L0100:  040F
L0173:  077A            L0101:  0436
L0169:  0786            L0102:  0080
L0170:  0788            L0103:  049E
L0165:  0795            L0104:  04AF
L0176:  07A2            L0105:  04D7
L0179:  07DD            L0106:  04C5
L0182:  080B            L0107:  0509
L0187:  0816            L0108:  0506
L0184:  082F            L0109:  04E5
L0185:  0831            L0110:  0519
L0189:  083D            L0111:  056E
L0181:  0851            L0112:  0542
L0190:  0853            L0113:  0536
L0191:  0861            L0114:  0551
L0192:  0879            L0115:  0547
L0193:  087C            L0116:  0523
L0195:  087D            L0117:  051C
L0194:  0889            L0118:  0580
L0196:  08A6            L0119:  F51C
L0197:  08B4            L0120:  F703
L0198:  08BB            L0121:  05C0
L0206:  08F7            L0122:  F00F
L0212:  0946            L0123:  F009
L0213:  098B            L0124:  F400
L0215:  099C            L0125:  F606
L0214:  09A9            L0126:  FC16
L0216:  09C6            L0127:  FE40
L0219:  09CD            L0128:  FC39
L0218:  09D9            L0129:  064F
L0222:  0A1B            L0130:  061C
L0223:  0A1D            L0131:  0641
L0224:  0A49            L0132:  0652
L0227:  0A68            L0133:  0610
L0229:  0A72            L0134:  F90E
L0232:  0A75            L0135:  F5C8
L0235:  0A9D            L0136:  0690
L0237:  0AC2            L0137:  0683
L0239:  0AC4            L0138:  F67C
L0240:  0ADC            L0139:  06A1
L0241:  0AEC            L0140:  06C4
L0236:  0B07            L0141:  FA99
L0244:  0B3C            L0142:  0703
L0245:  0B4B            L0143:  06E4
L0248:  0B60            L0144:  06FD
L0250:  0B7A            L0145:  F928
L0252:  0B90            L0146:  F95D
L0254:  0BAB            L0147:  06F2
L0255:  0BBB            L0148:  06E1
L0256:  0BCB            L0149:  F970
L0253:  0BE3            L0150:  06DA
L0257:  0BE8            L0151:  FA9C
L0258:  0C0A            L0152:  FAB0
L0261:  0C56            L0153:  F925
L0262:  0C66            L0154:  F933
L0264:  0C9B            L0155:  F93C
L0265:  0CB2            L0156:  0733
L0278:  0DCC            L0157:  0751
L0286:  0E58            L0158:  FA63
L0283:  0E5E            L0159:  FA5C
L0287:  0E66            L0160:  FA4E
L0282:  0E8D            L0161:  F948
L0284:  0E9E            L0162:  073F
L0289:  0EA4            L0163:  FAAB
L0290:  0EAA            L0164:  F79B
L0291:  0EB0            L0165:  0795
L0292:  0EB6            L0166:  FA66
L0293:  0EBC            L0167:  0762
L0294:  0EC5            L0168:  F7A0
L0296:  0ED4            L0169:  0786
L0295:  0EDB            L0170:  0788
L0299:  0EEA            L0171:  FA68
L0300:  0F0D            L0172:  F949
L0301:  0F13            L0173:  077A
L0302:  0F1A            L0174:  075A
L0303:  0F27            L0175:  0773
L0304:  0F40            L0176:  07A2
L0310:  0F88            L0177:  F6DC
L0309:  0F8D            L0178:  F8EE
L0305:  0F90            L0179:  07DD
L0308:  0F9C            L0180:  F7C4
L0306:  0FA0            L0181:  0851
L0307:  0FA6            L0182:  080B
L0311:  0FD1            L0183:  F96D
L0312:  0FE9            L0184:  082F
L0313:  0FEB            L0185:  0831
L0280:  5645            L0186:  F6D3
L0281:  A1D8            L0187:  0816
L0242:  C800            L0188:  F84C
L0233:  F003            L0189:  083D
L0231:  F006            L0190:  0853
L0123:  F009            L0191:  0861
L0122:  F00F            L0192:  0879
L0230:  F03C            L0193:  087C
L0036:  F044            L0194:  0889
L0040:  F060            L0195:  087D
L0064:  F06E            L0196:  08A6
L0030:  F07E            L0197:  08B4
L0029:  F086            L0198:  08BB
L0034:  F08B            L0199:  FF40
L0041:  F094            L0200:  FD9B
L0097:  F0A5            L0201:  F8DF
L0031:  F0D8            L0202:  FB4E
L0038:  F0E7            L0203:  FD13
L0032:  F113            L0204:  F903
L0056:  F126            L0205:  FC46
L0099:  F13D            L0206:  08F7
L0051:  F152            L0207:  F7E7
L0047:  F1F5            L0208:  F899
L0098:  F227            L0209:  FA5F
L0039:  F2E1            L0210:  FA89
L0220:  F307            L0211:  FAB1
L0096:  F3FD            L0212:  0946
L0124:  F400            L0213:  098B
L0095:  F403            L0214:  09A9
L0015:  F450            L0215:  099C
L0018:  F461            L0216:  09C6
L0006:  F489            L0217:  FA49
L0007:  F48E            L0218:  09D9
L0008:  F493            L0219:  09CD
L0005:  F498            L0220:  F307
L0012:  F49D            L0221:  0000
L0011:  F4AF            L0222:  0A1B
L0013:  F4B9            L0223:  0A1D
L0004:  F4C2            L0224:  0A49
L0014:  F4DC            L0225:  FA57
L0009:  F50D            L0226:  FDE0
L0010:  F514            L0227:  0A68
L0119:  F51C            L0228:  FA46
L0135:  F5C8            L0229:  0A72
L0125:  F606            L0230:  F03C
L0001:  F630            L0231:  F006
L0138:  F67C            L0232:  0A75
L0186:  F6D3            L0233:  F003
L0177:  F6DC            L0234:  FA98
L0019:  F6DE            L0235:  0A9D
L0017:  F6FD            L0236:  0B07
L0120:  F703            L0237:  0AC2
L0164:  F79B            L0238:  F92B
L0168:  F7A0            L0239:  0AC4
L0247:  F7B0            L0240:  0ADC
L0180:  F7C4            L0241:  0AEC
L0246:  F7D0            L0242:  C800
L0207:  F7E7            L0243:  FB98
L0188:  F84C            L0244:  0B3C
L0002:  F866            L0245:  0B4B
L0208:  F899            L0246:  F7D0
L0201:  F8DF            L0247:  F7B0
L0178:  F8EE            L0248:  0B60
L0204:  F903            L0249:  FA20
L0134:  F90E            L0250:  0B7A
L0153:  F925            L0251:  FDC0
L0145:  F928            L0252:  0B90
L0238:  F92B            L0253:  0BE3
L0154:  F933            L0254:  0BAB
L0155:  F93C            L0255:  0BBB
L0161:  F948            L0256:  0BCB
L0172:  F949            L0257:  0BE8
L0146:  F95D            L0258:  0C0A
L0183:  F96D            L0259:  FE4A
L0149:  F970            L0260:  FB5C
L0249:  FA20            L0261:  0C56
L0228:  FA46            L0262:  0C66
L0217:  FA49            L0263:  FC24
L0160:  FA4E            L0264:  0C9B
L0225:  FA57            L0265:  0CB2
L0159:  FA5C            L0266:  FCD6
L0209:  FA5F            L0267:  FC75
L0158:  FA63            L0268:  FDC3
L0166:  FA66            L0269:  FBFC
L0171:  FA68            L0270:  FFF0
L0021:  FA75            L0271:  FCC7
L0210:  FA89            L0272:  FF59
L0234:  FA98            L0273:  FBF8
L0141:  FA99            L0274:  FFF6
L0151:  FA9C            L0275:  FB64
L0163:  FAAB            L0276:  FBF0
L0152:  FAB0            L0277:  FBF4
L0211:  FAB1            L0278:  0DCC
L0020:  FAB9            L0279:  FC08
L0003:  FB10            L0280:  5645
L0202:  FB4E            L0281:  A1D8
L0260:  FB5C            L0282:  0E8D
L0275:  FB64            L0283:  0E5E
L0243:  FB98            L0284:  0E9E
L0298:  FBC5            L0285:  FE66
L0276:  FBF0            L0286:  0E58
L0277:  FBF4            L0287:  0E66
L0273:  FBF8            L0288:  FEE1
L0269:  FBFC            L0289:  0EA4
L0279:  FC08            L0290:  0EAA
L0126:  FC16            L0291:  0EB0
L0263:  FC24            L0292:  0EB6
L0128:  FC39            L0293:  0EBC
L0205:  FC46            L0294:  0EC5
L0267:  FC75            L0295:  0EDB
L0271:  FCC7            L0296:  0ED4
L0266:  FCD6            L0297:  FE84
L0203:  FD13            L0298:  FBC5
L0200:  FD9B            L0299:  0EEA
L0251:  FDC0            L0300:  0F0D
L0268:  FDC3            L0301:  0F13
L0226:  FDE0            L0302:  0F1A
L0127:  FE40            L0303:  0F27
L0259:  FE4A            L0304:  0F40
L0285:  FE66            L0305:  0F90
L0016:  FE6C            L0306:  0FA0
L0297:  FE84            L0307:  0FA6
L0314:  FE90            L0308:  0F9C
L0288:  FEE1            L0309:  0F8D
L0199:  FF40            L0310:  0F88
L0272:  FF59            L0311:  0FD1
L0022:  FFC0            L0312:  0FE9
L0270:  FFF0            L0313:  0FEB
L0274:  FFF6            L0314:  FE90
