   1:			;;----------------------------------------------------------------------------
   2:			;; FORMAT.COM - Z80DarkStar Floppy format utility
   3:			;;
   4:			;; (c) 2006 Piergiorgio Betti <pbetti@lpconsul.net>
   5:			;;
   6:			;; 2006/03/15 - Release 3.2
   7:			;; Now handle 128/256 bytes per sector (17/10 sectors/track)
   8:			;;
   9:			;; originally disassembly of the Micro Z80 of Nuova Elettronica produced
  10:			;; with:
  11:			;z80dasm: Portable Z80 disassembler
  12:			;Copyright (C) Marcel de Kogel 1996,1997
  13:			;Patched 2006 for uppercase by Piergiorgio Betti <pbetti@lpconsul.net>
  14:			;;----------------------------------------------------------------------------
  15:			
  16:			; link to DarkStar Monitor symbols...
  17:			rsym ../../darkstar.sym
  18:			
  19:			
  20:	000D          	CR	EQU	$0D
  21:	000A          	LF	EQU	$0A
  22:	0007          	BEL	EQU	$07
  23:	005C          	FCB1	EQU	$005C			; DEFAULT FCB STRUCTURE
  24:	0100          	TPA	EQU	$0100
  25:				;
  26:	0100          		ORG	TPA
  27:			
  28:	0100  C3D802  	GOFMT:	JP	FORMAT			; 000100 the beginning
  29:				;
  30:	0103          	SCRTCH:	DEFS	128			; local stack area
  31:	0183          	SPAREA	EQU	$
  32:				;
  33:				; include routines to print ascii values
  34:			include ../../ASM/bit2040.asm
**** ../../ASM/bit2040.asm ****
   1:			;;
   2:			;; Routines for binary to decimal conversion
   3:			;;
   4:			;; (C) Piergiorgio Betti <pbetti@lpconsul.net> - 2006
   5:			;;
   6:			;; The active part is taken from:
   7:			;; David Barrow - Assembler routines for the Z80
   8:			;; CENTURY COMMUNICATIONS LTD - ISBN 0 7126 0506 1
   9:			;;
  10:			
  11:			
  12:			;;
  13:			;; BIN2A8 - Convert an 8 bit value to ASCII
  14:			;;
  15:			;; INPUT	C = Value to be converted
  16:			;; OUTPUT	DE = Converted string address
  17:			;
  18:	0183  E5      	BIN2A8: PUSH	HL
  19:	0184  F5      		PUSH	AF
  20:	0185  0600    		LD	B,0
  21:	0187  ED43B301		LD	(IVAL16),BC
  22:	018B  21B301  		LD	HL,IVAL16
  23:	018E  11B501  		LD	DE,OVAL16
  24:	0191  3E01    		LD	A,1			; one byte conversion
  25:	0193  CDBD01  		CALL	LNGIBD
  26:	0196  11B501  		LD	DE,OVAL16
  27:	0199  F1      		POP	AF
  28:	019A  E1      		POP	HL
  29:	019B  C9      		RET
  30:				;
  31:			;;
  32:			;; BN2A16 - Convert a 16 bit value to ASCII
  33:			;;
  34:			;; INPUT	BC = Value to be converted
  35:			;; OUTPUT	DE = Converted string address
  36:			;
  37:	019C  E5      	BN2A16: PUSH	HL
  38:	019D  F5      		PUSH	AF
  39:	019E  ED43B301		LD	(IVAL16),BC
  40:	01A2  21B301  		LD	HL,IVAL16
  41:	01A5  11B501  		LD	DE,OVAL16
  42:	01A8  3E02    		LD	A,2			; two byte conversion
  43:	01AA  CDBD01  		CALL	LNGIBD
  44:	01AD  11B501  		LD	DE,OVAL16
  45:	01B0  F1      		POP	AF
  46:	01B1  E1      		POP	HL
  47:	01B2  C9      		RET
  48:				;
  49:			;; Generic storage
  50:			
  51:	01B3          	IVAL16:	DEFS	2
  52:	01B5          	OVAL16:	DEFS	6
  53:			
  54:			;;
  55:			;;
  56:			;; LNGIBD - Convert long integer of given precision to ASCII
  57:			;;
  58:			;; INPUT	HL addresses the first byte of the binary value
  59:			;;		which must be stored with the low order byte in
  60:			;;		lowest memory.
  61:			;;		DE addresses the first byte of the destination
  62:			;;		area which must be larger enough to accept the
  63:			;;		decimal result (2.42 * binary lenght + 1).
  64:			;;		A = binary byte lenght (1 to 255)
  65:			
  66:			;;
  67:	000A          	CVBASE	EQU	10		; CONVERSION BASE
  68:	01BB          	VPTR	EQU	HILO		; STORAGE AREA EQU
  69:			
  70:			
  71:	01BB          	HILO:	DEFS	2		; STORAGE AREA
  72:			
  73:	01BD  4F      	LNGIBD:	LD	C,A
  74:	01BE  0600    		LD	B,0
  75:	01C0  2B      		DEC	HL
  76:	01C1  22BB01  		LD	(VPTR),HL
  77:	01C4  3EFF    		LD	A,-1
  78:	01C6  12      		LD	(DE),A
  79:	01C7  09      		ADD	HL,BC
  80:				;
  81:	01C8  7E      	NXTMSB:	LD	A,(HL)
  82:	01C9  B7      		OR	A
  83:	01CA  C2D901  		JP	NZ,MSBFND
  84:	01CD  2B      		DEC	HL
  85:	01CE  0D      		DEC	C
  86:	01CF  C2C801  		JP	NZ,NXTMSB
  87:				;
  88:	01D2  EB      		EX	DE,HL
  89:	01D3  3630    		LD	(HL),'0'
  90:	01D5  23      		INC	HL
  91:	01D6  3600    		LD	(HL),0
  92:	01D8  C9      		RET
  93:				;
  94:	01D9  47      	MSBFND:	LD	B,A
  95:	01DA  3E80    		LD	A,$80
  96:				;
  97:	01DC  B8      	NXTMSK:	CP	B
  98:	01DD  DAE701  		JP	C,MSKFND
  99:	01E0  CAE701  		JP	Z,MSKFND
 100:	01E3  0F      		RRCA
 101:	01E4  C3DC01  		JP	NXTMSK
 102:				;
 103:	01E7  47      	MSKFND:	LD	B,A
 104:	01E8  C5      		PUSH	BC
 105:	01E9  2ABB01  		LD	HL,(VPTR)
 106:	01EC  0600    		LD	B,0
 107:	01EE  09      		ADD	HL,BC
 108:	01EF  A6      		AND	(HL)
 109:	01F0  C6FF    		ADD	A,$FF
 110:	01F2  6B      		LD	L,E
 111:	01F3  62      		LD	H,D
 112:				;
 113:	01F4  7E      	NXTOPV:	LD	A,(HL)
 114:	01F5  3C      		INC	A
 115:	01F6  CA0802  		JP	Z,OPVDON
 116:	01F9  3D      		DEC	A
 117:	01FA  8F      		ADC	A,A
 118:				;
 119:	01FB  FE0A    		CP	CVBASE
 120:	01FD  DA0202  		JP	C,NOCOUL
 121:	0200  D60A    		SUB	CVBASE
 122:	0202  3F      	NOCOUL:	CCF
 123:				;
 124:	0203  77      		LD	(HL),A
 125:	0204  23      		INC	HL
 126:	0205  C3F401  		JP	NXTOPV
 127:				;
 128:	0208  D21002  	OPVDON:	JP	NC,EXTDON
 129:	020B  3601    		LD	(HL),1
 130:	020D  23      		INC	HL
 131:	020E  36FF    		LD	(HL),-1
 132:				;
 133:	0210  C1      	EXTDON:	POP	BC
 134:	0211  78      		LD	A,B
 135:	0212  0F      		RRCA
 136:	0213  D2E701  		JP	NC,MSKFND
 137:	0216  0D      		DEC	C
 138:	0217  C2E701  		JP	NZ,MSKFND
 139:				;
 140:				; REVERSE DIGIT ORDER. ADD ASCII DIGITS HI-NIBBLES
 141:	021A  3600    		LD	(HL),0
 142:				;
 143:	021C  2B      	NXTCNV:	DEC	HL
 144:	021D  7D      		LD	A,L
 145:	021E  93      		SUB	E
 146:	021F  7C      		LD	A,H
 147:	0220  9A      		SBC	A,D
 148:	0221  D8      		RET	C
 149:				;
 150:	0222  1A      		LD	A,(DE)
 151:	0223  F630    		OR	$30
 152:	0225  47      		LD	B,A
 153:	0226  7E      		LD	A,(HL)
 154:	0227  F630    		OR	$30
 155:	0229  70      		LD	(HL),B
 156:	022A  12      		LD	(DE),A
 157:				;
 158:	022B  13      		INC	DE
 159:	022C  C31C02  		JP	NXTCNV
 160:			
 161:			;-----------------------------------------------
**** formndos.asm ****
  35:				;;
  36:				; Here is the data to compose the track
  37:	022F  FFFFFFFF	FTRBEG:	DEFB	$FF,$FF,$FF,$FF,$FF,$FF,$FF,$FF,$FF,$FF
	      FFFFFFFF
	      FFFF
  38:	0239  FFFFFFFF		DEFB	$FF,$FF,$FF,$FF,$FF,$FF,$FF,$FF,$FF,$FF
	      FFFFFFFF
	      FFFF
  39:	0243  FFFFFFFF		DEFB	$FF,$FF,$FF,$FF,$FF,$FF,$FF,$FF,$FF,$FF
	      FFFFFFFF
	      FFFF
  40:	024D  FFFFFFFF		DEFB	$FF,$FF,$FF,$FF,$FF,$FF,$FF,$FF,$FF,$FF
	      FFFFFFFF
	      FFFF
  41:				;
  42:	0257  00000000	FTRBG2:	DEFB	$00,$00,$00,$00,$00,$00
	      0000
  43:	025D  FE      		DEFB	$FE					; addr mark
  44:	025E  00      	FITRKN:	DEFB	$00					; track #
  45:	025F  00      		DEFB	$00					;
  46:	0260  00      	FISECN:	DEFB	$00					; sector #
  47:	0261  00      	FISECL:	DEFB	$00					; sectro len.
  48:	0262  F7      		DEFB	$F7					; CRC mark
  49:	0263  FFFFFFFF		DEFB	$FF,$FF,$FF,$FF,$FF,$FF,$FF,$FF,$FF,$FF
	      FFFFFFFF
	      FFFF
  50:	026D  FF      		DEFB	$FF
  51:	026E  00000000		DEFB	$00,$00,$00,$00,$00,$00
	      0000
  52:	0274  FB      		DEFB	$FB					; DATA addr mark (30 bytes)
  53:				;
  54:				;	sector data here...
  55:				;
  56:	0275  F7      	FIPOSE:	DEFB	$F7					; DATA CRC mark
  57:	0276  FFFFFFFF		DEFB	$FF,$FF,$FF,$FF,$FF,$FF,$FF,$FF,$FF,$FF
	      FFFFFFFF
	      FFFF
  58:	0280  FFFFFFFF		DEFB	$FF,$FF,$FF,$FF				; 173 byte block (originally + 128 $e5)
  59:	0284  FFFFFFFF		DEFB	$FF,$FF,$FF,$FF,$FF,$FF
	      FFFF
  60:				;
  61:				; Disks format vector
  62:	028A          	DFTAB:	;DEFB	40,1,18,0		; 40 TRK SS	; 40 tracks formats
  63:				;DEFB	40,2,18,0		; 40 TRK DS	; removed...
  64:				;DEFB	80,1,18,0		; 80 TRK SS	; ... 80 tracks SS too
  65:	028A  50022100		DEFB	80,2,33,0		; 80 TRK DS 128 bytes 32 sec.
  66:	028E  28010B01		DEFB	40,1,11,1		; 40 TRK DS 256 bytes 10 sec. (102400 bytes)
  67:	0292  50020C02		DEFB	80,2,12,2		; 80 TRK DS 512 bytes 11 sec.
  68:				;
  69:				;
  70:	0296          	CODBEG	EQU	$			; begin code...
  71:				;
  72:				; Show a zero terminated string
  73:	0296          	ZSDSPCL:				; 0239
  74:	0296  0E0D    		LD	C,CR			;
  75:	0298  CD06F0  		CALL	JCONOU			; send CR
  76:	029B  0E0A    		LD	C,LF			;
  77:	029D  CD06F0  		CALL	JCONOU			; send LF
  78:	02A0  7E      	ZSDSP:	LD	A,(HL)			; pick char pointed by HL
  79:	02A1  B7      		OR	A			; is the terminating NUL ?
  80:	02A2  C8      		RET	Z			; yes
  81:	02A3  E5      		PUSH	HL			; no
  82:	02A4  4F      		LD	C,A			;
  83:	02A5  CD06F0  		CALL	JCONOU			; display it
  84:	02A8  E1      		POP	HL			;
  85:	02A9  23      		INC	HL			;
  86:	02AA  C3A002  		JP	ZSDSP			;
  87:				;
  88:				; this copy a decimal converted string in area
  89:				; pointed by HL
  90:	02AD  E5      	PLDECS:	PUSH	HL			; load HL on IY
  91:	02AE  FDE1    		POP	IY			;
  92:	02B0  21B501  		LD	HL,OVAL16		; result of conversion
  93:	02B3  7E      	PLDNXT:	LD	A,(HL)			; pick char pointed by HL
  94:	02B4  B7      		OR	A			; is the terminating NUL ?
  95:	02B5  C8      		RET	Z			; yes
  96:	02B6  FD7700  		LD	(IY+0),A		; digit copy
  97:	02B9  23      		INC	HL			; next locations
  98:	02BA  FD23    		INC	IY			;
  99:	02BC  C3B302  		JP	PLDNXT			;
 100:				; get user input
 101:	02BF          	GCHR:
 102:	02BF  CD03F0  		CALL	JCONIN			; take from console
 103:	02C2  E67F    		AND	$7F			;
 104:	02C4  FE60    		CP	$60			;
 105:	02C6  FAD002  		JP	M,GCDSP			; verify alpha
 106:	02C9  FE7B    		CP	$7B			;
 107:	02CB  F2D002  		JP	P,GCDSP			;
 108:	02CE  CBAF    		RES	5,A			; convert to uppercase
 109:	02D0  C5      	GCDSP:	PUSH	BC			;
 110:	02D1  4F      		LD	C,A			;
 111:	02D2  CD06F0  		CALL	JCONOU			;
 112:	02D5  79      		LD	A,C			;
 113:	02D6  C1      		POP	BC			;
 114:	02D7  C9      		RET				;
 115:			
 116:	02D8          	FORMAT:
 117:	02D8  318301  		LD	SP,SPAREA		; init stack
 118:	02DB  3E28    		LD	A,40			; 40 tracks by default
 119:	02DD  32F606  		LD	(TNUMBF),A		;
 120:	02E0  3E01    		LD	A,1			; 1 side
 121:	02E2  32F706  		LD	(TSIDES),A		;
 122:	02E5  214505  		LD	HL,MCHOI		; ask format
 123:	02E8  CDA002  		CALL	ZSDSP			;
 124:	02EB  CDBF02  	USEL:	CALL	GCHR			;
 125:	02EE  FE03    		CP	$03			; CTRL+C ?
 126:	02F0  CAD704  		JP	Z,EXIT			; exit
 127:	02F3  FE0D    		CP	CR			; return ?
 128:	02F5  CAD404  		JP	Z,EXNOS			; exit
 129:	02F8  D630    		SUB	'0'			; convert to binary
 130:	02FA  3D      		DEC	A			; adjust base
 131:	02FB  FE03    		CP	$03			; is in range 0-2
 132:	02FD  F2CE04  		JP	P,WRNGD			; no
 133:	0300  32FD06  		LD	(TFRMT),A		; store user selection
 134:	0303  5F      		LD	E,A			; copy drive num on DE
 135:	0304  1600    		LD	D,0			;
 136:	0306  DD218A02		LD	IX,DFTAB		; load format parameter base
 137:	030A  DD19    		ADD	IX,DE			; for check
 138:	030C  DD19    		ADD	IX,DE			;
 139:	030E  DD19    		ADD	IX,DE			;
 140:	0310  DD19    		ADD	IX,DE			;
 141:	0312  DD4E00  		LD	C,(IX+0)		;
 142:	0315  CD8301  		CALL	BIN2A8			; convert tracks to decimal
 143:	0318  218306  		LD	HL,MUSNT		;
 144:	031B  CDAD02  		CALL	PLDECS			;
 145:	031E  DD4E01  		LD	C,(IX+1)		;
 146:	0321  CD8301  		CALL	BIN2A8			; convert sides to decimal
 147:	0324  218E06  		LD	HL,MUSSD		;
 148:	0327  CDAD02  		CALL	PLDECS			;
 149:	032A  DD7E03  		LD	A,(IX+3)		; sector len.
 150:	032D  FE00    		CP	0			; 128 ? ...
 151:	032F  2008    		JR	NZ,SL256		; no
 152:	0331  218000  		LD	HL,128			; yes
 153:	0334  22FA06  		LD	(TSLEN),HL		; store
 154:	0337  1816    		JR	USHW
 155:	0339  FE01    	SL256:	CP	1			; 256 ? ...
 156:	033B  2008    		JR	NZ,SL512		; no
 157:	033D  210001  		LD	HL,256			; yes
 158:	0340  22FA06  		LD	(TSLEN),HL		; store
 159:	0343  180A    		JR	USHW
 160:	0345  FE02    	SL512:	CP	2			; 512 ? ...
 161:	0347  2006    		JR	NZ,USHW			; no (... error!)
 162:	0349  210002  		LD	HL,512			; yes
 163:	034C  22FA06  		LD	(TSLEN),HL		; store
 164:	034F  E5      	USHW:	PUSH	HL			; sec. len. in BC
 165:	0350  C1      		POP	BC			;
 166:	0351  CD9C01  		CALL	BN2A16			; convert to decimal
 167:	0354  219706  		LD	HL,MUSSL		;
 168:	0357  CDAD02  		CALL	PLDECS			;
 169:	035A  217406  		LD	HL,MUSFM		;
 170:	035D  CDA002  		CALL	ZSDSP			; show to the user
 171:				;
 172:	0360  21A806  		LD	HL,MDCHO		; ask for drive id
 173:	0363  CDA002  		CALL	ZSDSP			;
 174:	0366  CDBF02  		CALL	GCHR			;
 175:	0369  FE03    		CP	$03			; CTRL+C ?
 176:	036B  CAD704  		JP	Z,EXIT			; exit
 177:	036E  FE0D    		CP	CR			; return ?
 178:	0370  CAD404  		JP	Z,EXNOS			; exit
 179:	0373  FE41    		CP	'A'			; is A or B ?
 180:	0375  FACE04  		JP	M,WRNGD			;
 181:	0378  FE43    		CP	'C'			;
 182:	037A  F2CE04  		JP	P,WRNGD			; no
 183:	037D  D641    		SUB	'A'			; makes number
 184:	037F  32FE06  		LD	(TDRIV),A		; store user selection
 185:	0382  324600  		LD	(FDRVBUF),A		; store drive num
 186:				;
 187:	0385  213205  		LD	HL,MCFM			; ask confirm
 188:	0388  CD9602  		CALL	ZSDSPCL			;
 189:	038B  CDBF02  		CALL	GCHR			;
 190:	038E  FE59    		CP	'Y'			; is 'Y' ?
 191:	0390  C2C804  		JP	NZ,WCMND		; no
 192:	0393  0E65    		LD	C,'e'			; complete answer with (Y)es
 193:	0395  CD06F0  		CALL	JCONOU			;
 194:	0398  0E73    		LD	C,'s'			; complete answer with (Y)es
 195:	039A  CD06F0  		CALL	JCONOU			;
 196:	039D  0E0D    		LD	C,CR			;
 197:	039F  CD06F0  		CALL	JCONOU			;
 198:	03A2  0E0A    		LD	C,LF			;
 199:	03A4  CD06F0  		CALL	JCONOU			;
 200:				;
 201:	03A7  CD1405  	AGAIN:	CALL	WAITKY			; wait for disk in drive
 202:				; Defines format parameters
 203:	03AA  3AFD06  		LD	A,(TFRMT)		; retrieve format
 204:	03AD  5F      		LD	E,A			; store drive num on DE
 205:	03AE  1600    		LD	D,0			; for later use
 206:	03B0  DD218A02		LD	IX,DFTAB		; format parameter base
 207:	03B4  DD19    		ADD	IX,DE			; type offset
 208:	03B6  DD19    		ADD	IX,DE			;
 209:	03B8  DD19    		ADD	IX,DE			;
 210:	03BA  DD19    		ADD	IX,DE			;
 211:	03BC  DD7E00  		LD	A,(IX+0)		; TRACKS
 212:	03BF  32F606  		LD	(TNUMBF),A		; store # of tracks
 213:	03C2  DD5601  		LD	D,(IX+1)		; SIDES - loads in DE (sides+sectors)
 214:	03C5  DD5E02  		LD	E,(IX+2)		;
 215:	03C8  DD7E03  		LD	A,(IX+3)		; set sector len. byte
 216:	03CB  326102  		LD	(FISECL),A		;
 217:	03CE  AF      		XOR	A			;
 218:	03CF  325E02  		LD	(FITRKN),A		; start track
 219:	03D2  32FC06  		LD	(TCOUNT),A
 220:	03D5  32F906  		LD	(CSIDE),A		; start side
 221:	03D8  4F      		LD	C,A			; for SETSID
 222:	03D9  3C      		INC	A			;
 223:	03DA  326002  		LD	(FISECN),A		;
 224:				;
 225:	03DD  CDB2F3  		CALL	SETSID
 226:	03E0  CD98F3  		CALL	DRVSEL
 227:	03E3  3E03    		LD	A,$03			; 1771 RESTORE
 228:	03E5  CD21F0  		CALL	JFDCMD			;
 229:	03E8  CD1EF0  		CALL	JFSTAT			;
 230:				;
 231:	03EB  212F02  	TRSTA:	LD	HL,FTRBEG		; start sequence
 232:	03EE  0ED7    		LD	C,FDCDATAREG		; set C to 1771 data port
 233:	03F0  0628    		LD	B,40			; 40 bytes to send
 234:	03F2  3EF4    		LD	A,$F4			; 1771 WRITE TRACK
 235:	03F4  CD21F0  		CALL	JFDCMD			;
 236:	03F7  DBD0    	WFDC:	IN	A,(FDCCMDSTATR)		; check ready
 237:	03F9  CB4F    		BIT	1,A			;
 238:	03FB  28FA    		JR	Z,WFDC			;
 239:	03FD  EDA3    		OUTI				; loop send byte
 240:	03FF  20F6    		JR	NZ,WFDC			;
 241:	0401  215702  	WSECD:	LD	HL,FTRBG2		; ID FIELD sector image
 242:	0404  061E    		LD	B,30			; 30 bytes to send
 243:	0406  DBD0    	WFDC1:	IN	A,(FDCCMDSTATR)		;
 244:	0408  CB4F    		BIT	1,A			;
 245:	040A  28FA    		JR	Z,WFDC1			;
 246:	040C  EDA3    		OUTI				;
 247:	040E  20F6    		JR	NZ,WFDC1		; ID FIELD written
 248:	0410  2AFA06  		LD	HL,(TSLEN)
 249:	0413  DBD0    	WFDC2:	IN	A,(FDCCMDSTATR)		;
 250:	0415  CB4F    		BIT	1,A			;
 251:	0417  28FA    		JR	Z,WFDC2			;
 252:	0419  3EE5    		LD	A,$E5			; null sector data
 253:	041B  D3D7    		OUT	(FDCDATAREG),A		; out
 254:	041D  2B      		DEC	HL			; dec counters
 255:	041E  7C      		LD	A,H			; zero ?
 256:	041F  B5      		OR	L			;
 257:	0420  20F1    		JR	NZ,WFDC2		; no, next $E5
 258:	0422  217502  		LD	HL,FIPOSE		; END DATA FIELD sector image
 259:	0425  060F    		LD	B,15			; 15 bytes to send
 260:	0427  DBD0    	WFDC3:	IN	A,(FDCCMDSTATR)		;
 261:	0429  CB4F    		BIT	1,A			;
 262:	042B  28FA    		JR	Z,WFDC3			;
 263:	042D  EDA3    		OUTI				;
 264:	042F  20F6    		JR	NZ,WFDC3		; END DATA FIELD written
 265:	0431  3A6002  		LD	A,(FISECN)		;
 266:	0434  3C      		INC	A			;
 267:	0435  326002  		LD	(FISECN),A		;
 268:	0438  BB      		CP	E			; if not all # sec image written
 269:	0439  C20104  		JP	NZ,WSECD		; next sector
 270:			; 	LD	B,0
 271:	043C  DBD0    	WTEAG:	IN	A,(FDCCMDSTATR)		; ready to write again ?
 272:	043E  CB47    		BIT	0,A			;
 273:	0440  CA4A04  		JP	Z,WTEND			; no
 274:	0443  3EFF    		LD	A,$FF			; pad with FF
 275:	0445  D3D7    		OUT	(FDCDATAREG),A		;
 276:			; 	INC	B
 277:	0447  C33C04  		JP	WTEAG			;
 278:	044A  CD1EF0  	WTEND:	CALL	JFSTAT			;
 279:	044D  E6E7    		AND	$E7			;
 280:	044F  C20905  		JP	NZ,UNRERR		; very bad: format failed
 281:				;
 282:			; 	CALL	OUTCRLF
 283:			; 	LD	A,B
 284:			; 	CALL	H2AJ2
 285:			; 	CALL	OUTCRLF
 286:	0452  D5      		PUSH	DE
 287:	0453  215B06  		LD	HL,MFMTT		; inform user about progress
 288:	0456  CDA002  		CALL	ZSDSP			;
 289:	0459  3A5E02  		LD	A,(FITRKN)		; track
 290:	045C  4F      		LD	C,A			;
 291:	045D  CD8301  		CALL	BIN2A8			;
 292:	0460  21B501  		LD	HL,OVAL16		;
 293:	0463  CDA002  		CALL	ZSDSP			;
 294:	0466  216C06  		LD	HL,MFMTS		;
 295:	0469  CDA002  		CALL	ZSDSP			;
 296:	046C  3AF906  		LD	A,(CSIDE)		; side
 297:	046F  4F      		LD	C,A			;
 298:	0470  CD8301  		CALL	BIN2A8			;
 299:	0473  21B501  		LD	HL,OVAL16		;
 300:	0476  CDA002  		CALL	ZSDSP			;
 301:	0479  0E0D    		LD	C,CR			;
 302:	047B  CD06F0  		CALL	JCONOU			; at beginning of line
 303:	047E  D1      		POP	DE
 304:				;
 305:	047F  3AF906  		LD	A,(CSIDE)		; verify side
 306:	0482  3C      		INC	A			; inc. side
 307:	0483  BA      		CP	D			; exists ?
 308:	0484  2814    		JR	Z,ADVTRK		; no
 309:	0486  32F906  		LD	(CSIDE),A		; set it
 310:	0489  4F      		LD	C,A			;
 311:	048A  CDB2F3  		CALL	SETSID			; activate
 312:	048D  CD98F3  		CALL	DRVSEL			; transfer to hardware
 313:			;	LD	A,(FITRKN)		; adjust trk offset
 314:			; 	ADD	E			; sum n. of tracks on side 0
 315:			; 	LD	(FITRKN),A		; done
 316:			; 	JR	SIDOK			;
 317:	0490  3E01    		LD	A,$01			; resets sector counters
 318:	0492  326002  		LD	(FISECN),A		;
 319:	0495  0600    		LD	B,$00			;
 320:	0497  C3EB03  		JP	TRSTA			; restart write
 321:	049A  AF      	ADVTRK:	XOR	A			;
 322:	049B  32F906  		LD	(CSIDE),A		; restore side 0
 323:	049E  4F      		LD	C,A			;
 324:	049F  CDB2F3  		CALL	SETSID			;
 325:	04A2  CD98F3  		CALL	DRVSEL			; transfer to hardware
 326:	04A5  3AFC06  		LD	A,(TCOUNT)		; get cylinder counter
 327:	04A8  3C      		INC	A			; next track
 328:	04A9  21F606  		LD	HL,TNUMBF		;
 329:	04AC  BE      		CP	(HL)			; EOD ?
 330:	04AD  CAE004  		JP	Z,RSTART		; yes
 331:	04B0  32FC06  		LD	(TCOUNT),A		; update track counters
 332:	04B3  325E02  		LD	(FITRKN),A		;
 333:	04B6  3E01    	SIDOK:	LD	A,$01			; resets sector counters
 334:	04B8  326002  		LD	(FISECN),A		;
 335:	04BB  0600    		LD	B,$00			;
 336:				; verify remove.........
 337:			; VL1:	DJNZ	VL1			; ?????? 000370 10 FE
 338:			; VL2:	DJNZ	VL2			; ?????? 000372 10 FE
 339:				;
 340:	04BD  3E53    		LD	A,$53			; 1771 STEP-IN
 341:	04BF  CD21F0  		CALL	JFDCMD			;
 342:	04C2  CD1EF0  		CALL	JFSTAT			;
 343:	04C5  C3EB03  		JP	TRSTA			; restart write
 344:			
 345:	04C8  211E05  	WCMND:	LD	HL,MCMDA		; 00037F 21 2A 04
 346:	04CB  C3DD04  		JP	DSPER
 347:			
 348:			; 	JP	RSTART			;
 349:			
 350:	04CE  216405  	WRNGD:	LD	HL,MCHO2		;
 351:	04D1  C3DD04  	 	JP	DSPER			;
 352:			
 353:	04D4  211906  	EXNOS:	LD	HL,MNSEL		; no sel msg
 354:	04D7  CD97F9  	EXIT:	CALL	OUTCRLF			;
 355:	04DA  C30000  		JP	$0000			; jump to BOOT
 356:			
 357:				; restart from beginning
 358:	04DD  CDA002  	DSPER:	CALL	ZSDSP			;
 359:	04E0  3E00    	RSTART:	LD	A,$00			; reset drives
 360:	04E2  D3D6    		OUT	(FDCDRVRCNT),A		;
 361:	04E4  21BD06  		LD	HL,MANOT		; ask for another
 362:	04E7  CD9602  		CALL	ZSDSPCL			;
 363:	04EA  CDBF02  		CALL	GCHR			;
 364:	04ED  FE59    		CP	'Y'			; is 'Y' ?
 365:	04EF  C2D704  		JP	NZ,EXIT		; no
 366:	04F2  0E65    		LD	C,'e'			; complete answer with (Y)es
 367:	04F4  CD06F0  		CALL	JCONOU			;
 368:	04F7  0E73    		LD	C,'s'			; complete answer with (Y)es
 369:	04F9  CD06F0  		CALL	JCONOU			;
 370:	04FC  0E0D    		LD	C,CR			;
 371:	04FE  CD06F0  		CALL	JCONOU			;
 372:	0501  0E0A    		LD	C,LF			;
 373:	0503  CD06F0  		CALL	JCONOU			;
 374:	0506  C3A703  		JP	AGAIN			;
 375:				;
 376:	0509  213406  	UNRERR:	LD	HL,MCRSH
 377:	050C  CD9602  		CALL	ZSDSPCL
 378:	050F  211E05  		LD	HL,MCMDA
 379:	0512  18C3    		JR	EXIT
 380:				;
 381:	0514  21D106  	WAITKY:	LD	HL,MINDS
 382:	0517  CDA002  		CALL	ZSDSP
 383:	051A  CD03F0  		CALL	JCONIN
 384:	051D  C9      		RET
 385:				;
 386:	051E  0D0A466F	MCMDA:	DEFB	CR,LF,"Format aborted.",CR,LF,$00
	      726D6174
	      2061626F
	      72746564
	      2E0D0A00
 387:	0532  0D0A4172	MCFM:	DEFB	CR,LF,"Are you shure ? ",$00
	      6520796F
	      75207368
	      75726520
	      3F2000
 388:	0545  2A205A38	MCHOI:	DEFB	"* Z80DarkStar DISK FORMAT *",CR,LF
	      30446172
	      6B537461
	      72204449
	      534B2046
	      4F524D41
	      54202A0D
	      0A
 389:	0562  0D0A    		DEFB	CR,LF
 390:	0564  0D0A    	MCHO2:	DEFB	CR,LF
 391:	0566  53454C45		DEFB	"SELECT DISK FORMAT:",CR,LF
	      43542044
	      49534B20
	      464F524D
	      41543A0D
	      0A
 392:	057B  0D0A    		DEFB	CR,LF
 393:	057D  31202D20		DEFB	"1 - 80 TRACK, 128 bytes, 17 sectors/track, DS",CR,LF
	      38302054
	      5241434B
	      2C203132
	      38206279
	      7465732C
	      20313720
	      73656374
	      6F72732F
	      74726163
	      6B2C2044
	      530D0A
 394:	05AC  32202D20		DEFB	"2 - 80 TRACK, 256 bytes, 20 sectors/track, DS",CR,LF
	      38302054
	      5241434B
	      2C203235
	      36206279
	      7465732C
	      20323020
	      73656374
	      6F72732F
	      74726163
	      6B2C2044
	      530D0A
 395:	05DB  33202D20		DEFB	"3 - 80 TRACK, 512 bytes, 11 sectors/track, DS",CR,LF
	      38302054
	      5241434B
	      2C203531
	      32206279
	      7465732C
	      20313120
	      73656374
	      6F72732F
	      74726163
	      6B2C2044
	      530D0A
 396:	060A  0D0A    		DEFB	CR,LF
 397:	060C  53454C45		DEFB	"SELECT 1-3 :"
	      43542031
	      2D33203A
 398:	0618  00      		DEFB	$00
 399:	0619  4E4F2073	MNSEL:	DEFB	"NO selection, exiting...",CR,LF,$00
	      656C6563
	      74696F6E
	      2C206578
	      6974696E
	      672E2E2E
	      0D0A00
 400:	0634  07554E52	MCRSH:	DEFB	BEL,"UNRECOVERABLE ERROR DURING FORMAT !",CR,LF,$00
	      45434F56
	      45524142
	      4C452045
	      52524F52
	      20445552
	      494E4720
	      464F524D
	      41542021
	      0D0A00
 401:	065B  466F726D	MFMTT:	DEFB	"Formatted track ",$00
	      61747465
	      64207472
	      61636B20
	      00
 402:	066C  2C207369	MFMTS:	DEFB	", side ",$00
	      64652000
 403:	0674  0D0A5573	MUSFM:	DEFB	CR,LF,"Using format "
	      696E6720
	      666F726D
	      617420
 404:	0683  3030    	MUSNT:	DEFB	"00"
 405:	0685  20747261		DEFB	" tracks, "
	      636B732C
	      20
 406:	068E  30      	MUSSD:	DEFB	"0"
 407:	068F  20736964		DEFB	" sides, "
	      65732C20
 408:	0697  303030  	MUSSL:	DEFB	"000"
 409:	069A  20627974		DEFB	" bytes/sec.",CR,LF,$00
	      65732F73
	      65632E0D
	      0A00
 410:	06A8  53656C65	MDCHO:	DEFB	"Select drive (A/B): ",$00
	      63742064
	      72697665
	      2028412F
	      42293A20
	      00
 411:	06BD  0D0A466F	MANOT:	DEFB	CR,LF,"Format another ? ",$00
	      726D6174
	      20616E6F
	      74686572
	      203F2000
 412:	06D1  0D0A496E	MINDS:	DEFB	CR,LF,"Insert disk and press any key...",CR,LF,$00
	      73657274
	      20646973
	      6B20616E
	      64207072
	      65737320
	      616E7920
	      6B65792E
	      2E2E0D0A
	      00
 413:			
 414:	06F6  28      	TNUMBF:	DEFB	$28			; # of tracks to format
 415:	06F7  01      	TSIDES:	DEFB	$01			; and # of sides
 416:	06F8          	TNSECT:	DEFS	1			; # if sectors per track
 417:	06F9          	CSIDE:	DEFS	1			; current side register
 418:	06FA          	TSLEN:	DEFS	2			; sector lenght
 419:	06FC          	TCOUNT:	DEFS	1			; cylinder counter
 420:	06FD          	TFRMT:	DEFS	1			; users' format selection
 421:	06FE          	TDRIV:	DEFS	1			; users' drive selection
 422:			
 423:	06FF          		END



Statistics:

   510	symbols
  1390	bytes



Symbol Table:

advtrk           49a     frwlp           f47c+    monmaj            32+    
again            3a7     frwnxt          f483+    monmin            32+    
alibn           f74a+    frwwro          f4a9+    movdn           fa7b+    
altprnprt          3+    fsecbuf           44+    movdn1          fa7f+    
appbuf            2a+    fseek           f43b+    mprompt         f950+    
bconin          f7d6+    fsekbuf           40+    mpunch          fdaf+    
bconout         f9e3+    fshtm           f4de+    mreader         fdc0+    
bconsp          f9ac+    fterr           f468+    msbfnd           1d9     
bconst          f9a0+    ftrbeg           22f     mscnt             f6+    
bdnxt           f7c4+    ftrbg2           257     mskfnd           1e7     
bel            =   7     ftrkbuf           47+    msnodev         fdee+    
bhome           f421+    fvlp0           f0f1+    mterr           f7bd+    
bin2a8           183     fwend           f4c2+    mtnxt           f7ae+    
bindisp         f7c2+    fwrdy           f4b3+    mul16           fe37+    
bldoffs         2000+    gcdsp            2d0     musfm            674     
bmpro           f5ff+    gchr             2bf     musnt            683     
bn2a16           19c     gcurtrk         f418+    mussd            68e     
boot            f59f+    gdcua           f755+    mussl            697     
bootm           f5ef+    gentr           f68c+    ndevmsg         fdde+    
bread           f46c+    get1hnum        f67b+    nib2asc         fc8f+    
bseldsk         f3fd+    gethnum         f686+    nocoul           202     
bsetdma         f3f8+    getlpen         f85b+    nulfn2          fddb+    
bsetsec         f3f3+    gfdcstat        f411+    nxtcnv           21c     
bsettrk         f3ee+    gnxtc           f689+    nxtmsb           1c8     
btpasiz            6+    goexec          f750+    nxtmsk           1dc     
bwaitio         f478+    gofmt            100+    nxtopv           1f4     
bwrite          f473+    greet           f980+    ocjpv           f963+    
calchlde        f929+    h2aen1          f93a+    ocrlf1          f998+    
cbkend          f8d3+    h2aj1           f93f+    offcal          fe4a+    
cdisk              4+    h2aj2           f948+    offgt1          fe5d+    
cfil1           fcf7+    h2aj3           f94d+    offgtz          fe5c+    
chkbrk          f8d6+    hdboot          fd47+    offzer          fe64+    
chkctr          f8fd+    hdrvv           f394+    opvdon           208     
chkeor          f8c9+    hehex           f682+    outchr          f959+    
chkhex          f8ea+    hilo             1bb     outcrlf         f997     
chome           fb38+    hl2asc          f937+    outgrbuf        fd22+    
cibt1           f813+    hl2ascb         f954+    oval16           1b5     
cieqb           f7e9+    hlistst         fdd3+    pdnload         f22b+    
cigon           f7f9+    hnhex           f69a+    pldecs           2ad     
cigrtog         f88d+    iclp1           f09f+    pldnxt           2b3     
cihcr           f84c+    ictlp0          f57b+    pop1prm         f684+    
cijp4           f87e+    ini6545         f575+    pop2prm         f992+    
cilop           f806+    inicrt          f073+    pop3num         f8c0+    
ciprc           f7ec+    inicrtcur       fafc+    portin          f769+    
cirbf           f7d2+    inicrtreg       f563+    portout         f771+    
ciren           f848+    init0           f526+    ppakstb            1+    
cisti           f7ed+    iobyte             3+    ppcntrp            2+    
citc1           f821+    iocac2          fc3a+    ppdatap            3+    
citc2           f828+    iocack          fafc+    ppdini             0+    
clreol          fb97+    iocbas2         fbcf+    ppdokg             2+    
clrj0           fb8a+    iocbase         faf3+    ppdrdy             4+    
clrlin          fc74+    iocbe2          fc10+    ppdstp             6+    
clrlin1         fc77+    iocbel          fb06+    ppstrob            0+    
clrlp1          fc80+    iocbs           fb09+    ppuack             7+    
clrscr          fb49+    iocbs1          fb19+    ppuini             1+    
clrscrgr        f0ac+    iocbs2          fb29+    ppuokg             3+    
clsnc           fb5e+    iocca2          fbec+    ppurdy             5+    
codbeg         = 296+    ioccan          fbc6+    prbend          f183+    
coire           f97f+    ioccr           fb6d+    prbloo          f151+    
coiupc          f970+    ioccr1          fb75+    prcvblk         f136+    
cojp1           fa07+    iocd12          fc4c+    prnak           f17d+    
cojp2           fa16+    iocdc1          fbc0+    prnchr          f966+    
colbuf            4f+    iocdc2          fc6a+    prntbusybit        0+    
conou2          fa2b+    iocdc3          fc6d+    prvtop            4f+    
constr          f983+    iocdc4          fc58+    prwcsm          f170+    
coutch          f8b8+    iocdle          fc1c+    psbok           f228+    
cpmboot         f3c0+    iocem           fbf0+    psndblk         f1da+    
cr             =   d     iocen2          fc0a+    psndch          f1bb+    
crlftab         f560+    iocenq          fb91+    psnxtc          f1f2+    
crt6545adst       8c+    ioceo2          fc34+    pwackb          f1c9+    
crt6545data       8d+    ioceot          fbcc+    ram0buf           34+    
crtbase           80+    ioces2          fc2e+    ram1buf           35+    
crtbeepport       8f+    iocesc          fbb9+    ram2buf           36+    
crtblinkbit        0+    iocet2          fc70+    ram3buf           37+    
crtfil          fce9+    iocetb          fbad+    rdrr19r12       f09d+    
crthilitbit        3+    iocetx          fc04+    res3miob        fd41+    
crtkeybcnt        87+    iocff           fb49+    resattr         fbc0+    
crtkeybdat        85+    iocff2          fc9c+    rst7spc           38+    
crtmodebit         4+    iocfs           fbb1+    rstart           4e0     
crtprgend       f065+    iocfs2          fbfe+    rwm1            f7a0+    
crtprntcnt        83+    iocgs           fbb5+    rwm2            f7a2+    
crtprntdat        81+    iocgs2          fc22+    rwm3            f787+    
crtram0cnt        82+    iocht           fc40+    rwmem           f783+    
crtram0dat        80+    ioclf           fbbd+    s_dlpr          f329+    
crtram1cnt        86+    iocnak          fbd0+    s_vhdr          f32b+    
crtram1dat        84+    iocnul          fc66+    savcolb         fa27+    
crtram2cnt        8a+    iocrs           fbc9+    scrtch           103+    
crtram2dat        88+    iocrs2          fc52+    scrtst          f91a+    
crtram3port       8e+    iocs2           fc16+    scurof          f05d+    
crtrevrsbit        1+    iocsi           fb97+    scuron          f06a+    
crtservcnt        8b+    iocsi2          fc46+    sdcuae          f03f+    
crtservdat        89+    iocso           fb78+    sdcuae1         f04d+    
crttab1         f512+    iocso2          fbf8+    sdsta           f89f+    
crtunderbit        2+    iocsoh          faf4+    set3miob        fd3b+    
crtwidthbit        1+    iocst2          fc28+    setrow          fa50+    
csglp0          f0c1+    iocstx          faf8+    setsid          f3b2     
cside            6f9     iocsub          fbf4+    sfdccmd         f402+    
cslp0           f984+    iocsy2          fbd3+    sidok            4b6+    
curadr          fa3e+    iocsyn          fba9+    sidone          f3bd+    
curbfb          fac1+    iocus           fb94+    sl256            339     
curbfl          fac5+    iocus2          fbe9+    sl512            345     
curblb          fab9+    iocvec          fc9f+    sndcl           f403+    
curbll          fabd+    iocvec2         fcbf+    spacer          f957+    
curfxb          facd+    iocvt           fb38+    sparea         = 183     
curfxl          fad1+    iocvt2          fc99+    ssiz1           f37e+    
curofb          fac9+    iptrckbd        f8d5+    ssiz2           f37c+    
curofs          fa63+    ival16           1b3     ssiz5           f37a+    
curpbuf           49+    jboot           f000+    str100          f540+    
currgt          fa19+    jconin          f003     strload         f336+    
cursetmode      fad3+    jconou          f006     strwait         f32f+    
cvbase         =   a     jconst          f039+    tcount           6fc     
dblank          fcdf+    jcpmbt          f033+    tdriv            6fe     
delay           f102+    jcurtr          f024+    tfrmt            6fd     
dftab            28a     jdispg          f02d+    tmpbyte           4b+    
dgclp0          f0d9+    jdrvsl          f02a+    tnsect           6f8+    
dismvc          faed+    jfdcmd          f021     tnumbf           6f6     
dispch          f0d8+    jfseek          f027+    togju           f917+    
dispgr          fd05+    jfstat          f01e     togpr           f915+    
dispnortr       fd0b+    jgethn          f036+    togprnio        f90a+    
dispstr         f380+    jhome           f009+    tpa            = 100     
div16           fe0b+    jprnch          f03c+    transk          fe23+    
divlo           fe11+    jread           f018+    trask1          fe27+    
dlight          fadf+    jselds          f00c+    trsta            3eb     
dly1            f106+    jsetdm          f015+    tsides           6f7     
dly2            f104+    jsetse          f012+    tslen            6fa     
dmpalia         f748+    jsettr          f00f+    ucmdtab         f9af+    
dmpalib         f743+    jusrcm          f030+    ucrej           f6a5+    
dogetchr        f8b5+    jwrite          f01b+    unrerr           509     
doprompt        f8b2+    kbdbyte           4d+    uplchr          f111+    
drvsel          f398     keybstrbbit        7+    upload          f190+    
dselbf            4e+    lf             =   a     upwstrb         f11e+    
dslp0           f38a+    lindn           fc58+    urestr          f909+    
dsper            4dd     lngibd           1bd     usel             2eb+    
epfill          fe7c+    manot            6bd     ushw             34f     
exit             4d7     mbmenu          f62c+    usrcmd          f6ab+    
exnos            4d4     mcblist         fd89+    valgetchr       f8fa+    
extdon           210     mcfm             532     vcpmbt          f33a+    
fcb1           =  5c+    mcho2            564     vcresreg        fa76+    
fdcbase           d0+    mchoi            545     vdbufsz            a+    
fdccmdstatr       d0     mcmda            51e     vdrdsec            0+    
fdcdatareg        d7     mco1            f6f9+    vdrend          f2b3+    
fdcdrvrcnt        d6     mconin          fd50+    vdrnok          f2b4+    
fdcreadc          88+    mconout         fd63+    vdrok           f29a+    
fdcrestc           7+    mconst          fd76+    vdrsl1          f25b+    
fdcsectreg        d2+    mconx           f6e7+    vdrtry          f252+    
fdcseekc          17+    mcrsh            634     vdskbuf           2c+    
fdctrakreg        d1+    mdcho            6a8     vdskrd          f24b+    
fdcwritc          a8+    mdjmp0          fa95+    vdskwr          f2ba+    
fdrvbuf           46     mdjmp1          faab+    vdwend          f321+    
fgtrk           f465+    mdp1            f73d+    vdwnok          f323+    
fillmem         f6d8+    mdp2            f70a+    vdwok           f309+    
filvramg        f0eb+    mdp3            f72e+    vdwrsec            1+    
fipose           275     mdp4            f730+    vdwsl1          f2ca+    
fisecl           261     mdp5            f722+    vdwtry          f2c1+    
fisecn           260     mdp6            f702+    vptr           = 1bb     
fitrkn           25e     mdp7            f71b+    waitky           514     
flme1           f6db+    mejp            fab6+    wcmnd            4c8     
flopio          f4f1+    memcomp         f6e4+    wfdc             3f7     
floppyread      f4e5+    memdump         f6ff+    wfdc1            406     
floppywrit      f4ec+    memmove         f779+    wfdc2            413     
fmemnp          f58f+    memtest         f7ab+    wfdc3            427     
fmemsiz         f588+    mfmts            66c     wrngd            4ce     
fmestp          f59c+    mfmtt            65b     wsecd            401     
fok0            f436+    minds            6d1     wteag            43c     
format           2d8     miobyte           4c+    wtend            44a     
frbsy           f49a+    ml1601          fe3e+    zdsmntr         f000+    
frdpbuf           42+    ml1602          fe44+    zsdsp            2a0     
fretr0          f424+    mlistst         fd9c+    zsdspcl          296     
fretr1          f444+    mmnxt           f77c+    
frrdy           f49d+    mnohd           fdfa+    
frwbsy          f4b0+    mnsel            619     
