   1:			;
   2:			; read after write on
   3:			;
   4:			
   5:			rsym bios.sym
   6:			
   7:	0100          		org $0100
   8:			
   9:			
  10:	0100  C31E01  	START:	JP	BEGIN
  11:			
  12:	0008          	BS	EQU	08H		;ASCII 	backspace
  13:	0009          	TAB	EQU	09H		;	tab
  14:	000A          	LF	EQU	0AH		;	line feed
  15:	000C          	FORMF	EQU	0CH		;	form feed
  16:	000D          	CR	EQU	0DH		;	carriage return
  17:	001B          	ESC	EQU	1BH		;       escape
  18:	0018          	CTLX	EQU	'X' and	1fh	;	control	x - delete line
  19:	0003          	CTLC	EQU	'C' and	1fh	;	control	c - warm boot
  20:	001A          	EOF	EQU	'Z' and	1fh	;	control	z - logical eof
  21:	0027          	QUOTE	EQU	27H		;	quote
  22:	007E          	TILDE	EQU	7EH		;	tilde
  23:	007F          	DEL	EQU	7FH		;	del
  24:			
  25:	0005          	BDOSA	EQU	5
  26:	0003          	CTLC	EQU	'C' and	1fh	;	control	c - warm boot
  27:			
  28:	0103  52656164	MSG1:	DEFB	"Read After Write is OFF.",CR,LF,$00
	      20416674
	      65722057
	      72697465
	      20697320
	      4F46462E
	      0D0A00
  29:			;
  30:			;       begin the load operation
  31:			;
  32:	011E          	BEGIN:
  33:	011E  3A4B00  		LD	A,(TMPBYTE)
  34:	0121  CBBF    		RES	7,A
  35:	0123  324B00  		LD	(TMPBYTE),A
  36:			
  37:	0126  210301  		LD	HL,MSG1
  38:	0129  CD4601  		CALL	ZSDSP
  39:			
  40:	012C          	EXIT:
  41:	012C  C9      		RET
  42:			;	JP	$0000
  43:			
  44:	012D          	GCHR:
  45:	012D  CD6201  		CALL	TTYI			; take from console
  46:	0130  E67F    		AND	$7F			;
  47:	0132  FE60    		CP	$60			;
  48:	0134  FA3E01  		JP	M,GCDSP			; verify alpha
  49:	0137  FE7B    		CP	$7B			;
  50:	0139  F23E01  		JP	P,GCDSP			;
  51:	013C  CBAF    		RES	5,A			; convert to uppercase
  52:	013E  C5      	GCDSP:	PUSH	BC			;
  53:	013F  4F      		LD	C,A			;
  54:	0140  CD5301  		CALL	TTYO			;
  55:	0143  79      		LD	A,C			;
  56:	0144  C1      		POP	BC			;
  57:	0145  C9      		RET				;
  58:			
  59:			
  60:	0146  7E      	ZSDSP:	LD	A,(HL)			; pick char pointed by HL
  61:	0147  B7      		OR	A			; is the terminating NUL ?
  62:	0148  C8      		RET	Z			; yes
  63:	0149  E5      		PUSH	HL			; no
  64:	014A  4F      		LD	C,A			;
  65:	014B  CD5301  		CALL	TTYO			; display it
  66:	014E  E1      		POP	HL			;
  67:	014F  23      		INC	HL			;
  68:	0150  C34601  		JP	ZSDSP			;
  69:			
  70:	0153          	TTYO:
  71:	0153  F5      		PUSH	AF
  72:	0154  C5      		PUSH	BC
  73:	0155  D5      		PUSH	DE
  74:	0156  E5      		PUSH	HL
  75:	0157  59      		LD	E,C
  76:	0158  0E02    		LD	C,2
  77:	015A  CD0500  		CALL 	BDOSA
  78:	015D  E1      		POP	HL
  79:	015E  D1      		POP	DE
  80:	015F  C1      		POP	BC
  81:	0160  F1      		POP	AF
  82:	0161  C9      		RET
  83:			
  84:	0162          	TTYI:
  85:	0162  C5      		PUSH	BC
  86:	0163  D5      		PUSH	DE
  87:	0164  E5      		PUSH	HL
  88:	0165  0E06    	TTYI00:	LD	C,6
  89:	0167  1EFF    		LD	E,0FFH
  90:	0169  CD0500  		CALL 	BDOSA
  91:	016C  E67F    		AND	7FH
  92:	016E  28F5    		JR	Z,TTYI00
  93:	0170  E1      		POP	HL
  94:	0171  D1      		POP	DE
  95:	0172  C1      		POP	BC
  96:	0173  C9      		RET
  97:	0174          	TTYQ:
  98:	0174  C5      		PUSH	BC
  99:	0175  D5      		PUSH	DE
 100:	0176  E5      		PUSH	HL
 101:	0177  0E0B    		LD	C,11
 102:	0179  CD0500  		CALL	BDOSA
 103:	017C  A7      		AND	A
 104:	017D  0E06    		LD	C,6
 105:	017F  1EFF    		LD	E,0FFH
 106:	0181  C406CA  		CALL	NZ,BDOS
 107:	0184  E1      		POP	HL
 108:	0185  D1      		POP	DE
 109:	0186  C1      		POP	BC
 110:	0187  E67F    		AND	7FH
 111:	0189  C9      		RET
 112:			
 113:	018A          	ENDTXT	EQU	$
 114:	018A          		END



Statistics:

     4	passes
     0	jr promotions
   528	symbols
     0	bytes



Symbol Table:

aftrio          dca3+    curpbuf           48+    r0rxtx             0+    
all00           dff7+    cursoroff         20+    r1brdm             1+    
all01           e02e+    cursoron           a+    r1ier              1+    
all02           e0e5+    cursshp           4a+    r2fcr              2+    
all03           e11c+    cwflg           da3d+    r2iir              2+    
alloc           dbfb+    datsiz           475+    r3lcr              3+    
altprnprt          3+    del            =  7f+    r4mcr              4+    
appbuf            2e+    delay           fd85+    r5lsr              5+    
base               0+    dfmt128            0+    r6msr              6+    
bbappp             e+    dfmt256            0+    r7spr              7+    
bbbase          f000+    dfmt512         ffff+    ram0buf           3b+    
bbcalret        fd5a+    diff16          dd01+    ram1buf           3c+    
bbcbank            c+    dirbf           df77+    ram2buf           3d+    
bbcomn          fc00+    dly1            fd89+    ram3buf           3e+    
bbconin         fd94+    dly2            fd87+    ramtbl          e000+    
bbconout        fd9f+    dmaadr          dd75+    rcp             e200+    
bbconst         fdaa+    dpbase          d837+    rcps              10+    
bbcpboot        fcc9+    dpbnds          d882+    rdflo           db13+    
bbcptime        fcc3+    dpbvrt          d857+    rdvrt           db22+    
bbcrtcini       fc03+    dreadh          db00+    readcfg8255       92+    
bbcrtfill       fc09+    dselbf            4e+    readhst         dafd+    
bbcstck            d+    dwrith          db30+    regastatus        16+    
bbcurset        fc21+    eep29c             4+    regcommand         f+    
bbdebug         ffff+    eep29ee            1+    regcontrol        16+    
bbdiv16         fce1+    eep29xe            2+    regcyllsb          c+    
bbdmaset        fcb7+    eepage0           c0+    regcylmsb          d+    
bbdriveid       fcf9+    eeproglock        10+    regdata            8+    
bbdsksel        fcbd+    eepsta          f000+    regerr             9+    
bbeidck         fd23+    eepunsupp          8+    regseccnt          a+    
bbepmngr        fd1d+    eerineprom        80+    regsector          b+    
bbexec          fd29+    enddat          e1d3+    regshd             e+    
bbfdrvsel       fcdb+    endtxt         = 18a+    regstatus          f+    
bbfhome         fc81+    eof            =  1a+    resroom          400+    
bbflopio        fc93+    erflag          dd5f+    rhstfi          dc66+    
bbfread         fc87+    esc            =  1b+    rldrom          fe79+    
bbfwrite        fc8d+    exit             12c+    rst7sp1           38+    
bbhdboot        fd11+    expath          edf4+    rst7sp2           39+    
bbhdgeo         fd0b+    expaths            5+    rst7sp3           3a+    
bbhdinit        fcf3+    extfcb          edd0+    rtbsiz           3c0+    
bbhdrd          fd05+    extrabias       1200+    rtcbuf          da5b+    
bbhdwr          fcff+    extstk          efd0+    rwmove          dcef+    
bbimgp             4+    false              0+    rwoper          dc02+    
bbinictc        fc57+    fcp             ea00+    rwoshf          dc09+    
bbjtobnk        fc00+    fcps               4+    sconin          fc2d+    
bbldpart        fd17+    fdcbase           d0+    sconout         fc27+    
bbmul16         fce7+    fdccmdstatr       d0+    sconst          fc33+    
bboffcal        fced+    fdcdatareg        d7+    sectran         dade+    
bbpag              f+    fdcdrvrcnt        d6+    seg1            e200+    
bbprcvblk       fc6f+    fdcreadc          88+    seg10           ec00+    
bbprnchr        fc99+    fdcrestc           7+    seg11           ef00+    
bbpsndblk       fc63+    fdcsectreg        d2+    seg12           efd0+    
bbrdtime        fca5+    fdcseekc          17+    seg2            ea00+    
bbrdvdsk        fc75+    fdctrakreg        d1+    seg3            ea00+    
bbresctc        fc5d+    fdcwritc          a8+    seg4            ed00+    
bbsecset        fcb1+    fdrvbuf           45+    seg5            ed80+    
bbsidset        fcd5+    ff                 c+    seg6            edd0+    
bbstack         feb4+    fifblok            b+    seg7            edf4+    
bbstbase        fe90+    fifoend           25+    seg8            edff+    
bbsttim         fc9f+    fifokb            1a+    seg9            ee00+    
bbtrkset        fcab+    fifosto            f+    sekdsk          dd65+    
bbu0ini         fc39+    fifou0             f+    sekhst          dd74+    
bbu1ini         fc51+    fifsize            8+    seksec          dd68+    
bbu1rx          fc45+    fin             fdc4+    sektrk          dd66+    
bbu1st          fc4b+    fixblock           0+    selact          da98+    
bbu1tx          fc3f+    formf          =   c+    seldsk          da7d+    
bbuplchr        fc69+    fout            fde1+    selflp          dac0+    
bbvcpmbt        fccf+    frdpbuf           41+    selhdd          dac6+    
bbvoid          fd6a+    fsecbuf           43+    selndb          dabb+    
bbwrvdsk        fc7b+    fsekbuf           3f+    selvrt          dac7+    
bdos            ca06+    fstat           fdb5+    setdma          dad9+    
bdosa          =   5+    ftrkbuf           46+    setsec          dad4+    
bdosb           ca00+    gcdsp            13e     settrk          dacf+    
bdwtyp          dd62+    gchr             12d+    shsize            20+    
begdat          dd5e+    gocpm           d9f1+    shstk           ed00+    
begin            11e     haseds          ffff+    shstks             4+    
bfailmsg        d902+    hmempag            b+    signon          d8a8+    
bias            8e00+    home            da65+    sintvec         fff0+    
biohby            d8+    homflo          da73+    sk2hst          dcb2+    
bioreas          a00+    hstact          dd5e+    start            100+    
bios            d800+    hstbsz           200+    stmpp2          ffff+    
biosiz           55e+    hstbuf          dd77+    stmpzs             0+    
biostds          600+    hstdsk          dd6f+    synpnd          dcf2+    
bldoffs         3000+    hstfil          dc6e+    sysbase         f000+    
blifastblok       60+    hstfrd          dca0+    syscmlo         feb4+    
blifastline       6a+    hstful          dc48+    syscom          fc00+    
blislowblok       40+    hstlgs          dd6d+    syshertz          13+    
blislowline       4a+    hstloa          dc37+    sytimr          fe19+    
bootfail        d9e9+    hstrdd          dc3a+    tab            =   9+    
botdsk          d836+    hstrsf          dcc5+    tblblk            30+    
botok           d93f+    hstsec          dd72+    tdesclen          14+    
bs             =   8+    hstsyn          dc45+    tiaddrlen          4+    
bseldsk         dd16+    hsttmp          dd6e+    tilde          =  7e+    
bsetdma         dd11+    hsttrk          dd70+    time            da54+    
bsetsec         dd0c+    hstwrt          dd60+    timrcon           28+    
bsettrk         dd07+    idea0line          1+    tmpbyte           4b+    
btpasiz            6+    idea1line          2+    tnamelen           8+    
cbboot          d914+    idea2line          4+    tpa              100+    
cbread          db7b+    idecs0line         8+    tpagelen           2+    
cbrev              f+    idecs1line        10+    trans           d877+    
ccp             c200+    ideporta          e0+    trnpag             d+    
cdisk              4+    ideportb          e1+    true            ffff+    
chk00           e065+    ideportc          e2+    tsizelen           4+    
chk01           e0a5+    ideportctrl       e3+    ttyi             162     
chk02           e153+    iderdline         40+    ttyi00           165     
chk03           e193+    iderstline        80+    ttyo             153     
chksid          db61+    idewrline         20+    ttyq             174+    
chkuna          dbb6+    idisk1            24+    u0defspeed         6+    
cldcmnd         da28+    idisk2            24+    u0isr           fe25+    
clkday          da5e+    idisk3             1+    u1defspeed         c+    
clkdow          da60+    idisk4             1+    u1isr           fe59+    
clkhr           da5d+    imtpag            ff+    u1nul           fe70+    
clkio              6+    imtsiz           400+    uart0             c0+    
clkmm           da5c+    intrdi          fe0f+    uart0base         c0+    
clkmon          da5f+    intren          fdfe+    uart0br           2c+    
clkrst             7+    intron             0+    uart1             c8+    
clksclk            5+    iobval            95+    uart115k2          1+    
clkse           da5b+    iobyte             3+    uart1200          60+    
clkyea          da61+    ioflag          dd61+    uart19k2           6+    
cloisr          da62+    iop                0+    uart1base         c8+    
cmdid             ec+    iops               0+    uart1br           2b+    
cmdinit           91+    iuser1            24+    uart2400          30+    
cmdread           20+    iuser2             f+    uart38k4           3+    
cmdrecal          10+    iuser3            24+    uart4800          18+    
cmdset          da4f+    iuser4             f+    uart57k6           2+    
cmdspindown       e0+    kbdbyte           4d+    uart9600           c+    
cmdspinup         e1+    keybstrbbit        7+    uastav          fe84+    
cmdwrite          30+    lf             =   a+    uastkb          fe86+    
cnfbyte           27+    lsect           d9c1+    uisre           fe4e+    
colbuf            4f+    maxblk            14+    uisri           fe32+    
coldbeg         da3e+    mconin          dd1b+    unacnt          dd64+    
coldend         da45+    mconout         dd2c+    unadsk          dd69+    
constr          dd4f+    mconst          dd3b+    unasec          dd6c+    
cont            d9d1+    menaprt           21+    unatrk          dd6a+    
copsys            2d+    miobyte           4c+    usenodeblock       0+    
cpmsiz          1bde+    mmgetp          fd78+    vconin          fc15+    
cr             =   d+    mmpmap          fd6b+    vconout         fc0f+    
crdureg         fc27+    mmtpapag          ef+    vconst          fc1b+    
crt6545adst       8c+    mmuport           20+    vdbufsz            a+    
crt6545data       8d+    mmutstaddr      d000+    vdrdsec            0+    
crtbase           80+    mmutstpage         d+    vdskbuf           30+    
crtbeepport       8f+    mnodev          dd4a+    vdwrsec            1+    
crtblinkbit        0+    monmaj            33+    vers              16+    
crthilitbit        3+    monmin            32+    voidisr         fe22+    
crtkeybcnt        87+    mscnt             f6+    wboot           d986+    
crtkeybdat        85+    msg1             103     wboote          d803+    
crtmodebit         4+    msize             3c+    whstfi          dc5f+    
crtprntcnt        83+    mzmac              1+    wrall              0+    
crtprntdat        81+    nextop          d9d4+    wrdir              1+    
crtram0cnt        82+    noovf           dbf4+    wrfl2           db53+    
crtram0dat        80+    noprow          dd63+    wrflo           db43+    
crtram1cnt        86+    path            da46+    wrflt           db47+    
crtram1dat        84+    phydpt          d8a6+    write           db8e+    
crtram2cnt        8a+    phylen             a+    writecfg8255      80+    
crtram2dat        88+    phyoff             f+    writehst        db2d+    
crtram3port       8e+    phyprm          d89b+    wrttmp          dd73+    
crtrevrsbit        1+    physpt          d8a5+    wrual              2+    
crtservcnt        8b+    phystr          dae1+    wrvrt           db56+    
crtservdat        89+    pio2bit2           2+    z3cl            ef00+    
crtunderbit        2+    pio2bit3           3+    z3cls             d0+    
crtwidthbit        1+    pio2bit4           4+    z3env           ec00+    
cslp0           dd50+    ppakstb            1+    z3envs             2+    
ctc0tc            2a+    ppcntrp            2+    z3msg           ed80+    
ctc0tchi          20+    ppdatap            3+    z3ndir          ee00+    
ctc1tc            29+    ppdini             0+    z3ndirs           1c+    
ctc1tc100hz        5+    ppdokg             2+    z3rev             21+    
ctc1tc10hz        30+    ppdrdy             4+    z3whl           edff+    
ctc1tc25hz        13+    ppdstp             6+    zbufbas         e200+    
ctc1tc2hz         f4+    ppstrob            0+    zdsstpr         e838+    
ctc1tc50hz         a+    ppuack             7+    zdsstsz          1c8+    
ctcbase           e8+    ppuini             1+    zero128         da35+    
ctcchan0          e8+    ppuokg             3+    zerom           da37+    
ctcchan1          e9+    ppurdy             5+    zflopkg          200+    
ctcchan2          ea+    prntbusybit        0+    ziopkg             0+    
ctcchan3          eb+    prvtop            4f+    zrespkg          800+    
ctlc           =   3+    quote          =  27+    zsdsp            146     
ctlx           =  18+    r0brdl             0+    zstdovr          400+    
