   1:			;
   2:			;  MDZ80 V0.9.0 Z80 Disassembly of sys7_offset_3240.bin
   3:			;  2015/09/23 23:46
   4:			;
   5:	3240          		ORG	$3240
   6:			;
   7:	3240  C63A    		ADD	A,$3A		; 3240  C6 3A		F:
   8:	3242  67      		LD	H,A		; 3242  67		g
   9:	3243  7D      		LD	A,L		; 3243  7D		}
  10:	3244  CD4832  		CALL	X3248		; 3244  CD 48 32	MH2
  11:	3247  7C      		LD	A,H		; 3247  7C		|
  12:	3248  F5      	X3248:	PUSH	AF		; 3248  F5		u
  13:	3249  DB8C    	X3249:	IN	A,($8C)		; 3249  DB 8C		[.
  14:	324B  CB7F    		BIT	7,A		; 324B  CB 7F		K.
  15:	324D  28FA    		JR	Z,X3249		; 324D  28 FA		(z
  16:	324F  E3      		EX	(SP),HL		; 324F  E3		c
  17:	3250  E3      		EX	(SP),HL		; 3250  E3		c
  18:	3251  F1      		POP	AF		; 3251  F1		q
  19:	3252  D380    		OUT	($80),A		; 3252  D3 80		S.
  20:	3254  3EFF    		LD	A,$FF		; 3254  3E FF		>.
  21:	3256  C35AF0  		JP	XF05A		; 3256  C3 5A F0	CZp
  22:			;
  23:	3259  07      		RLCA			; 3259  07		.
  24:	325A  07      		RLCA			; 325A  07		.
  25:	325B  07      		RLCA			; 325B  07		.
  26:	325C  07      		RLCA			; 325C  07		.
  27:	325D  CD6132  		CALL	X3261		; 325D  CD 61 32	Ma2
  28:	3260  7E      		LD	A,(HL)		; 3260  7E		~
  29:	3261  E60F    	X3261:	AND	$0F		; 3261  E6 0F		f.
  30:	3263  C630    		ADD	A,$30		; 3263  C6 30		F0
  31:	3265  FE3A    		CP	$3A		; 3265  FE 3A		~:
  32:	3267  3802    		JR	C,X326B		; 3267  38 02		8.
  33:	3269  C607    		ADD	A,$07		; 3269  C6 07		F.
  34:	326B  18DB    	X326B:	JR	X3248		; 326B  18 DB		.[
  35:			;
  36:	3270          		ORG	$3270
  37:			;
  38:	3270  3E01    		LD	A,$01		; 3270  3E 01		>.
  39:	3272  D3D6    		OUT	($D6),A		; 3272  D3 D6		SV
  40:	3274  CD0030  		CALL	X3000		; 3274  CD 00 30	M.0
  41:	3277  E1      		POP	HL		; 3277  E1		a
  42:	3278  C9      		RET			; 3278  C9		I
  43:			;
  44:	3279  CDE303  		CALL	X03E3		; 3279  CD E3 03	Mc.
  45:	327C  A2      		AND	D		; 327C  A2		"
  46:	327D  C8      		RET	Z		; 327D  C8		H
  47:	327E  7B      		LD	A,E		; 327E  7B		{
  48:	327F  C9      		RET			; 327F  C9		I
  49:			;
  50:	3280  7B      		LD	A,E		; 3280  7B		{
  51:	3281  D3D2    		OUT	($D2),A		; 3281  D3 D2		SR
  52:	3283  7A      		LD	A,D		; 3283  7A		z
  53:	3284  D3D7    		OUT	($D7),A		; 3284  D3 D7		SW
  54:	3286  C9      		RET			; 3286  C9		I
  55:			;
  56:	3287  DBD0    		IN	A,($D0)		; 3287  DB D0		[P
  57:	3289  F5      		PUSH	AF		; 3289  F5		u
  58:	328A  3ED0    		LD	A,$D0		; 328A  3E D0		>P
  59:	328C  D3D0    		OUT	($D0),A		; 328C  D3 D0		SP
  60:	328E  F1      		POP	AF		; 328E  F1		q
  61:	328F  C9      		RET			; 328F  C9		I
  62:			;
  63:	3290  09      		ADD	HL,BC		; 3290  09		.
  64:	3291  0A      		LD	A,(BC)		; 3291  0A		.
  65:	3292  00      		NOP			; 3292  00		.
  66:	3293  D3D7    		OUT	($D7),A		; 3293  D3 D7		SW
  67:	3295  C9      		RET			; 3295  C9		I
  68:			;
  69:	3296  00      		NOP			; 3296  00		.
  70:	3297  CDE303  		CALL	X03E3		; 3297  CD E3 03	Mc.
  71:	329A  A2      		AND	D		; 329A  A2		"
  72:	329B  C8      		RET	Z		; 329B  C8		H
  73:	329C  7B      		LD	A,E		; 329C  7B		{
  74:	329D  C9      		RET			; 329D  C9		I
  75:			;
  76:	329E  FE1A    		CP	$1A		; 329E  FE 1A		~.
  77:	32A0  200C    		JR	NZ,X32AE	; 32A0  20 0C		 .
  78:	32A2  21DBD7  		LD	HL,XD7DB	; 32A2  21 DB D7	![W
  79:	32A5  3E02    		LD	A,$02		; 32A5  3E 02		>.
  80:	32A7  22A746  	X32A7:	LD	(X46A7),HL	; 32A7  22 A7 46	"'F
  81:	32AA  32A946  		LD	(X46A9),A	; 32AA  32 A9 46	2)F
  82:	32AD  C9      		RET			; 32AD  C9		I
  83:			;
  84:	32AE  210AD3  	X32AE:	LD	HL,XD30A	; 32AE  21 0A D3	!.S
  85:	32B1  3ED7    		LD	A,$D7		; 32B1  3E D7		>W
  86:	32B3  18F2    		JR	X32A7		; 32B3  18 F2		.r
  87:			;
  88:	32B5  3E07    		LD	A,$07		; 32B5  3E 07		>.
  89:	32B7  324051  	X32B7:	LD	(X5140),A	; 32B7  32 40 51	2@Q
  90:	32BA  C3994E  		JP	X4E99		; 32BA  C3 99 4E	C.N
  91:			;
  92:	32BD  18F8    		JR	X32B7		; 32BD  18 F8		.x
  93:			;
  94:	32BF  CD2B00  	X32BF:	CALL	X002B		; 32BF  CD 2B 00	M+.
  95:	32C2  B7      		OR	A		; 32C2  B7		7
  96:	32C3  C0      		RET	NZ		; 32C3  C0		@
  97:	32C4  18F9    		JR	X32BF		; 32C4  18 F9		.y
  98:			;
  99:	32C6  DBD0    		IN	A,($D0)		; 32C6  DB D0		[P
 100:	32C8  CB4F    		BIT	1,A		; 32C8  CB 4F		KO
 101:	32CA  C9      		RET			; 32CA  C9		I
 102:			;
 103:	32CB  0A      		LD	A,(BC)		; 32CB  0A		.
 104:	32CC  D3D7    		OUT	($D7),A		; 32CC  D3 D7		SW
 105:	32CE  03      		INC	BC		; 32CE  03		.
 106:	32CF  C9      		RET			; 32CF  C9		I
 107:			;
 108:	32D0  DBD0    	X32D0:	IN	A,($D0)		; 32D0  DB D0		[P
 109:	32D2  0F      		RRCA			; 32D2  0F		.
 110:	32D3  38FB    		JR	C,X32D0		; 32D3  38 FB		8{
 111:	32D5  C9      		RET			; 32D5  C9		I
 112:			;
 113:	32D6  F5      		PUSH	AF		; 32D6  F5		u
 114:	32D7  3E1A    		LD	A,$1A		; 32D7  3E 1A		>.
 115:	32D9  D3D0    		OUT	($D0),A		; 32D9  D3 D0		SP
 116:	32DB  00      		NOP			; 32DB  00		.
 117:	32DC  F5      		PUSH	AF		; 32DC  F5		u
 118:	32DD  F1      		POP	AF		; 32DD  F1		q
 119:	32DE  F5      		PUSH	AF		; 32DE  F5		u
 120:	32DF  F1      		POP	AF		; 32DF  F1		q
 121:	32E0  C9      		RET			; 32E0  C9		I
 122:			;
 123:	32E1  DBD0    		IN	A,($D0)		; 32E1  DB D0		[P
 124:	32E3  E679    		AND	$79		; 32E3  E6 79		fy
 125:	32E5  00      		NOP			; 32E5  00		.
 126:	32E6  C8      		RET	Z		; 32E6  C8		H
 127:	32E7  F5      		PUSH	AF		; 32E7  F5		u
 128:	32E8  3ED0    		LD	A,$D0		; 32E8  3E D0		>P
 129:	32EA  D3D0    		OUT	($D0),A		; 32EA  D3 D0		SP
 130:	32EC  F1      		POP	AF		; 32EC  F1		q
 131:	32ED  C9      		RET			; 32ED  C9		I
 132:			;
 133:	32EE  FB      		EI			; 32EE  FB		{
 134:	32EF  C1      		POP	BC		; 32EF  C1		A
 135:	32F0  C9      		RET			; 32F0  C9		I
 136:			;
 137:	32F1  E5      		PUSH	HL		; 32F1  E5		e
 138:	32F2  CDA904  		CALL	X04A9		; 32F2  CD A9 04	M).
 139:	32F5  7D      		LD	A,L		; 32F5  7D		}
 140:	32F6  E1      		POP	HL		; 32F6  E1		a
 141:	32F7  95      		SUB	L		; 32F7  95		.
 142:	32F8  C9      		RET			; 32F8  C9		I
 143:			;
 144:	32F9  CDF504  		CALL	X04F5		; 32F9  CD F5 04	Mu.
 145:	32FC  7C      		LD	A,H		; 32FC  7C		|
 146:	32FD  E6F0    		AND	$F0		; 32FD  E6 F0		fp
 147:	32FF  C8      		RET	Z		; 32FF  C8		H
 148:	3300  7B      		LD	A,E		; 3300  7B		{
 149:	3301  ED44    		NEG			; 3301  ED 44		mD
 150:	3303  5F      		LD	E,A		; 3303  5F		_
 151:	3304  1600    		LD	D,$00		; 3304  16 00		..
 152:	3306  19      		ADD	HL,DE		; 3306  19		.
 153:	3307  C9      		RET			; 3307  C9		I
 154:			;
 155:	3308  CD2823  		CALL	X2328		; 3308  CD 28 23	M(#
 156:	330B  CD0402  		CALL	X0204		; 330B  CD 04 02	M..
 157:	330E  213041  		LD	HL,X4130	; 330E  21 30 41	!0A
 158:	3311  110000  		LD	DE,X0000	; 3311  11 00 00	...
 159:	3314  C9      		RET			; 3314  C9		I
 160:			;
 161:	3315  CD8403  		CALL	X0384		; 3315  CD 84 03	M..
 162:	3318  C5      		PUSH	BC		; 3318  C5		E
 163:	3319  47      		LD	B,A		; 3319  47		G
 164:	331A  79      		LD	A,C		; 331A  79		y
 165:	331B  48      		LD	C,B		; 331B  48		H
 166:	331C  ED44    		NEG			; 331C  ED 44		mD
 167:	331E  1808    		JR	X3328		; 331E  18 08		..
 168:			;
 169:	3320  E5      		PUSH	HL		; 3320  E5		e
 170:	3321  213300  		LD	HL,X0033	; 3321  21 33 00	!3.
 171:	3324  E3      		EX	(SP),HL		; 3324  E3		c
 172:	3325  C5      		PUSH	BC		; 3325  C5		E
 173:	3326  4F      		LD	C,A		; 3326  4F		O
 174:	3327  78      		LD	A,B		; 3327  78		x
 175:	3328  FE0A    	X3328:	CP	$0A		; 3328  FE 0A		~.
 176:	332A  79      		LD	A,C		; 332A  79		y
 177:	332B  C1      		POP	BC		; 332B  C1		A
 178:	332C  D8      		RET	C		; 332C  D8		X
 179:	332D  E5      		PUSH	HL		; 332D  E5		e
 180:	332E  6F      		LD	L,A		; 332E  6F		o
 181:	332F  7C      		LD	A,H		; 332F  7C		|
 182:	3330  FE5A    		CP	$5A		; 3330  FE 5A		~Z
 183:	3332  7D      		LD	A,L		; 3332  7D		}
 184:	3333  E1      		POP	HL		; 3333  E1		a
 185:	3334  D8      		RET	C		; 3334  D8		X
 186:	3335  FE11    	X3335:	CP	$11		; 3335  FE 11		~.
 187:	3337  D8      		RET	C		; 3337  D8		X
 188:	3338  184B    	X3338:	JR	X3385		; 3338  18 4B		.K
 189:			;
 190:	333A  00      		NOP			; 333A  00		.
 191:	333B  00      		NOP			; 333B  00		.
 192:	333C  2805    		JR	Z,X3343		; 333C  28 05		(.
 193:	333E  AF      		XOR	A		; 333E  AF		/
 194:	333F  329F40  		LD	(X409F),A	; 333F  32 9F 40	2.@
 195:	3342  C9      		RET			; 3342  C9		I
 196:			;
 197:	3343  3EC0    	X3343:	LD	A,$C0		; 3343  3E C0		>@
 198:	3345  329F40  		LD	(X409F),A	; 3345  32 9F 40	2.@
 199:	3348  C9      		RET			; 3348  C9		I
 200:			;
 201:	3349  CD3300  		CALL	X0033		; 3349  CD 33 00	M3.
 202:	334C  18EA    		JR	X3338		; 334C  18 EA		.j
 203:			;
 204:	334E  E6E5    	X334E:	AND	$E5		; 334E  E6 E5		fe
 205:	3350  EE01    		XOR	$01		; 3350  EE 01		n.
 206:	3352  200E    		JR	NZ,X3362	; 3352  20 0E		 .
 207:	3354  DBD0    	X3354:	IN	A,($D0)		; 3354  DB D0		[P
 208:	3356  CB4F    		BIT	1,A		; 3356  CB 4F		KO
 209:	3358  28F4    		JR	Z,X334E		; 3358  28 F4		(t
 210:	335A  F5      		PUSH	AF		; 335A  F5		u
 211:	335B  79      		LD	A,C		; 335B  79		y
 212:	335C  D3D7    		OUT	($D7),A		; 335C  D3 D7		SW
 213:	335E  F1      		POP	AF		; 335E  F1		q
 214:	335F  10F3    		DJNZ	X3354		; 335F  10 F3		.s
 215:	3361  C9      		RET			; 3361  C9		I
 216:			;
 217:	3362  EB      	X3362:	EX	DE,HL		; 3362  EB		k
 218:	3363  DBD0    		IN	A,($D0)		; 3363  DB D0		[P
 219:	3365  F5      		PUSH	AF		; 3365  F5		u
 220:	3366  3ED0    		LD	A,$D0		; 3366  3E D0		>P
 221:	3368  D3D0    		OUT	($D0),A		; 3368  D3 D0		SP
 222:	336A  F1      		POP	AF		; 336A  F1		q
 223:	336B  C32551  		JP	X5125		; 336B  C3 25 51	C%Q
 224:			;
 225:	336E  3E5B    		LD	A,$5B		; 336E  3E 5B		>[
 226:	3370  D3D0    		OUT	($D0),A		; 3370  D3 D0		SP
 227:	3372  C37E50  		JP	X507E		; 3372  C3 7E 50	C~P
 228:			;
 229:	3375  E5      		PUSH	HL		; 3375  E5		e
 230:	3376  7E      	X3376:	LD	A,(HL)		; 3376  7E		~
 231:	3377  FE03    		CP	$03		; 3377  FE 03		~.
 232:	3379  2808    		JR	Z,X3383		; 3379  28 08		(.
 233:	337B  CD3533  		CALL	X3335		; 337B  CD 35 33	M53
 234:	337E  23      		INC	HL		; 337E  23		#
 235:	337F  FE0D    		CP	$0D		; 337F  FE 0D		~.
 236:	3381  20F3    		JR	NZ,X3376	; 3381  20 F3		 s
 237:	3383  E1      	X3383:	POP	HL		; 3383  E1		a
 238:	3384  C9      		RET			; 3384  C9		I
 239:			;
 240:	3385  FE15    	X3385:	CP	$15		; 3385  FE 15		~.
 241:	3387  D0      		RET	NC		; 3387  D0		P
 242:	3388  08      		EX	AF,AF'		; 3388  08		.
 243:	3389  CDBF32  		CALL	X32BF		; 3389  CD BF 32	M?2
 244:	338C  FE40    		CP	$40		; 338C  FE 40		~@
 245:	338E  D8      		RET	C		; 338E  D8		X
 246:	338F  FE7B    		CP	$7B		; 338F  FE 7B		~{
 247:	3391  D0      		RET	NC		; 3391  D0		P
 248:	3392  FE60    		CP	$60		; 3392  FE 60		~`
 249:	3394  3003    		JR	NC,X3399	; 3394  30 03		0.
 250:	3396  FE5B    		CP	$5B		; 3396  FE 5B		~[
 251:	3398  D0      		RET	NC		; 3398  D0		P
 252:	3399  D1      	X3399:	POP	DE		; 3399  D1		Q
 253:	339A  D5      		PUSH	DE		; 339A  D5		U
 254:	339B  57      		LD	D,A		; 339B  57		W
 255:	339C  7B      		LD	A,E		; 339C  7B		{
 256:	339D  FE33    		CP	$33		; 339D  FE 33		~3
 257:	339F  7A      		LD	A,D		; 339F  7A		z
 258:	33A0  2001    		JR	NZ,X33A3	; 33A0  20 01		 .
 259:	33A2  D1      		POP	DE		; 33A2  D1		Q
 260:	33A3  E5      	X33A3:	PUSH	HL		; 33A3  E5		e
 261:	33A4  D9      		EXX			; 33A4  D9		Y
 262:	33A5  21FC3E  		LD	HL,X3EFC	; 33A5  21 FC 3E	!|>
 263:	33A8  E5      		PUSH	HL		; 33A8  E5		e
 264:	33A9  FE5B    		CP	$5B		; 33A9  FE 5B		~[
 265:	33AB  C33164  		JP	X6431		; 33AB  C3 31 64	C1d
 266:			;
 267:	33AE  F3      		DI			; 33AE  F3		s
 268:	33AF  3E0A    		LD	A,$0A		; 33AF  3E 0A		>.
 269:	33B1  D3D0    		OUT	($D0),A		; 33B1  D3 D0		SP
 270:	33B3  C5      		PUSH	BC		; 33B3  C5		E
 271:	33B4  010000  		LD	BC,X0000	; 33B4  01 00 00	...
 272:	33B7  C3EF33  		JP	X33EF		; 33B7  C3 EF 33	Co3
 273:			;
 274:	33BA  00      		NOP			; 33BA  00		.
 275:	33BB  00      		NOP			; 33BB  00		.
 276:	33BC  CDBF32  		CALL	X32BF		; 33BC  CD BF 32	M?2
 277:	33BF  1803    		JR	X33C4		; 33BF  18 03		..
 278:			;
 279:	33C1  CD2B00  		CALL	X002B		; 33C1  CD 2B 00	M+.
 280:	33C4  FE60    	X33C4:	CP	$60		; 33C4  FE 60		~`
 281:	33C6  F8      		RET	M		; 33C6  F8		x
 282:	33C7  FE7B    		CP	$7B		; 33C7  FE 7B		~{
 283:	33C9  F0      		RET	P		; 33C9  F0		p
 284:	33CA  CBAF    		RES	5,A		; 33CA  CB AF		K/
 285:	33CC  C9      		RET			; 33CC  C9		I
 286:			;
 287:	33CD  C5      		PUSH	BC		; 33CD  C5		E
 288:	33CE  D5      		PUSH	DE		; 33CE  D5		U
 289:	33CF  E5      		PUSH	HL		; 33CF  E5		e
 290:	33D0  2100EC  		LD	HL,XEC00	; 33D0  21 00 EC	!.l
 291:	33D3  222040  		LD	(X4020),HL	; 33D3  22 20 40	" @
 292:	33D6  1101EC  		LD	DE,XEC01	; 33D6  11 01 EC	..l
 293:	33D9  01FF01  		LD	BC,X01FF	; 33D9  01 FF 01	...
 294:	33DC  36BF    		LD	(HL),$BF	; 33DC  36 BF		6?
 295:	33DE  EDB0    		LDIR			; 33DE  ED B0		m0
 296:	33E0  E1      		POP	HL		; 33E0  E1		a
 297:	33E1  D1      		POP	DE		; 33E1  D1		Q
 298:	33E2  C1      		POP	BC		; 33E2  C1		A
 299:	33E3  C9      		RET			; 33E3  C9		I
 300:			;
 301:	33E4  CDC433  		CALL	X33C4		; 33E4  CD C4 33	MD3
 302:	33E7  FE0D    		CP	$0D		; 33E7  FE 0D		~.
 303:	33E9  C9      		RET			; 33E9  C9		I
 304:			;
 305:	33EA  CD4000  		CALL	X0040		; 33EA  CD 40 00	M@.
 306:	33ED  18D5    		JR	X33C4		; 33ED  18 D5		.U
 307:			;
 308:	33EF  CD6000  	X33EF:	CALL	X0060		; 33EF  CD 60 00	M`.
 309:	33F2  C1      		POP	BC		; 33F2  C1		A
 310:	33F3  DBD0    	X33F3:	IN	A,($D0)		; 33F3  DB D0		[P
 311:	33F5  CB6F    		BIT	5,A		; 33F5  CB 6F		Ko
 312:	33F7  20FA    		JR	NZ,X33F3	; 33F7  20 FA		 z
 313:	33F9  C9      		RET			; 33F9  C9		I
 314:			;
 315:	33FA  7E      	X33FA:	LD	A,(HL)		; 33FA  7E		~
 316:	33FB  C3C433  		JP	X33C4		; 33FB  C3 C4 33	CD3
 317:			;
 318:	33FE  CDFA33  		CALL	X33FA		; 33FE  CD FA 33	Mz3
 319:	3401  FE59    		CP	$59		; 3401  FE 59		~Y
 320:	3403  C9      		RET			; 3403  C9		I
 321:			;
 322:	3404  CDFA33  		CALL	X33FA		; 3404  CD FA 33	Mz3
 323:	3407  328D54  		LD	(X548D),A	; 3407  32 8D 54	2.T
 324:	340A  C9      		RET			; 340A  C9		I
 325:			;
 326:	340B  D9      		EXX			; 340B  D9		Y
 327:	340C  DB89    		IN	A,($89)		; 340C  DB 89		[.
 328:	340E  CB47    		BIT	0,A		; 340E  CB 47		KG
 329:	3410  2808    		JR	Z,X341A		; 3410  28 08		(.
 330:	3412  21C043  		LD	HL,X43C0	; 3412  21 C0 43	!@C
 331:	3415  CDA728  		CALL	X28A7		; 3415  CD A7 28	M'(
 332:	3418  D9      		EXX			; 3418  D9		Y
 333:	3419  C9      		RET			; 3419  C9		I
 334:			;
 335:	341A  3A3B30  	X341A:	LD	A,(X303B)	; 341A  3A 3B 30	:;0
 336:	341D  CB4F    		BIT	1,A		; 341D  CB 4F		KO
 337:	341F  3E28    		LD	A,$28		; 341F  3E 28		>(
 338:	3421  2001    		JR	NZ,X3424	; 3421  20 01		 .
 339:	3423  87      		ADD	A,A		; 3423  87		.
 340:	3424  47      	X3424:	LD	B,A		; 3424  47		G
 341:	3425  0E18    		LD	C,$18		; 3425  0E 18		..
 342:	3427  210000  		LD	HL,X0000	; 3427  21 00 00	!..
 343:	342A  08      		EX	AF,AF'		; 342A  08		.
 344:	342B  3E0D    	X342B:	LD	A,$0D		; 342B  3E 0D		>.
 345:	342D  CD3B00  		CALL	X003B		; 342D  CD 3B 00	M;.
 346:	3430  78      		LD	A,B		; 3430  78		x
 347:	3431  E5      		PUSH	HL		; 3431  E5		e
 348:	3432  21DA43  		LD	HL,X43DA	; 3432  21 DA 43	!ZC
 349:	3435  BE      		CP	(HL)		; 3435  BE		>
 350:	3436  3600    		LD	(HL),$00	; 3436  36 00		6.
 351:	3438  E1      		POP	HL		; 3438  E1		a
 352:	3439  3E0A    		LD	A,$0A		; 3439  3E 0A		>.
 353:	343B  CC3B00  		CALL	Z,X003B		; 343B  CC 3B 00	L;.
 354:	343E  3A3B30  		LD	A,(X303B)	; 343E  3A 3B 30	:;0
 355:	3441  CB4F    		BIT	1,A		; 3441  CB 4F		KO
 356:	3443  280A    		JR	Z,X344F		; 3443  28 0A		(.
 357:	3445  3E1F    		LD	A,$1F		; 3445  3E 1F		>.
 358:	3447  CD3B00  		CALL	X003B		; 3447  CD 3B 00	M;.
 359:	344A  3E0E    		LD	A,$0E		; 344A  3E 0E		>.
 360:	344C  CD3B00  		CALL	X003B		; 344C  CD 3B 00	M;.
 361:	344F  EB      	X344F:	EX	DE,HL		; 344F  EB		k
 362:	3450  2A3232  		LD	HL,(X3232)	; 3450  2A 32 32	*22
 363:	3453  19      		ADD	HL,DE		; 3453  19		.
 364:	3454  CD8931  		CALL	X3189		; 3454  CD 89 31	M.1
 365:	3457  21FC3E  		LD	HL,X3EFC	; 3457  21 FC 3E	!|>
 366:	345A  CD3931  		CALL	X3139		; 345A  CD 39 31	M91
 367:	345D  2B      		DEC	HL		; 345D  2B		+
 368:	345E  CB66    		BIT	4,(HL)		; 345E  CB 66		Kf
 369:	3460  3AFC3E  		LD	A,(X3EFC)	; 3460  3A FC 3E	:|>
 370:	3463  EB      		EX	DE,HL		; 3463  EB		k
 371:	3464  2002    		JR	NZ,X3468	; 3464  20 02		 .
 372:	3466  3E2E    		LD	A,$2E		; 3466  3E 2E		>.
 373:	3468  FEC0    	X3468:	CP	$C0		; 3468  FE C0		~@
 374:	346A  3802    		JR	C,X346E		; 346A  38 02		8.
 375:	346C  3E2E    		LD	A,$2E		; 346C  3E 2E		>.
 376:	346E  FE80    	X346E:	CP	$80		; 346E  FE 80		~.
 377:	3470  3802    		JR	C,X3474		; 3470  38 02		8.
 378:	3472  C620    		ADD	A,$20		; 3472  C6 20		F 
 379:	3474  2804    	X3474:	JR	Z,X347A		; 3474  28 04		(.
 380:	3476  FE20    		CP	$20		; 3476  FE 20		~ 
 381:	3478  2006    		JR	NZ,X3480	; 3478  20 06		 .
 382:	347A  E5      	X347A:	PUSH	HL		; 347A  E5		e
 383:	347B  21DA43  		LD	HL,X43DA	; 347B  21 DA 43	!ZC
 384:	347E  00      		NOP			; 347E  00		.
 385:	347F  E1      		POP	HL		; 347F  E1		a
 386:	3480  CDEF44  	X3480:	CALL	X44EF		; 3480  CD EF 44	MoD
 387:	3483  23      		INC	HL		; 3483  23		#
 388:	3484  10C9    		DJNZ	X344F		; 3484  10 C9		.I
 389:	3486  0D      		DEC	C		; 3486  0D		.
 390:	3487  AF      		XOR	A		; 3487  AF		/
 391:	3488  B1      		OR	C		; 3488  B1		1
 392:	3489  2805    		JR	Z,X3490		; 3489  28 05		(.
 393:	348B  08      		EX	AF,AF'		; 348B  08		.
 394:	348C  47      		LD	B,A		; 348C  47		G
 395:	348D  08      		EX	AF,AF'		; 348D  08		.
 396:	348E  189B    		JR	X342B		; 348E  18 9B		..
 397:			;
 398:	3490  3E0E    	X3490:	LD	A,$0E		; 3490  3E 0E		>.
 399:	3492  D38C    		OUT	($8C),A		; 3492  D3 8C		S.
 400:	3494  DB8D    		IN	A,($8D)		; 3494  DB 8D		[.
 401:	3496  67      		LD	H,A		; 3496  67		g
 402:	3497  3E0F    		LD	A,$0F		; 3497  3E 0F		>.
 403:	3499  D38C    		OUT	($8C),A		; 3499  D3 8C		S.
 404:	349B  DB8D    		IN	A,($8D)		; 349B  DB 8D		[.
 405:	349D  6F      		LD	L,A		; 349D  6F		o
 406:	349E  CD8931  		CALL	X3189		; 349E  CD 89 31	M.1
 407:	34A1  3E1E    		LD	A,$1E		; 34A1  3E 1E		>.
 408:	34A3  CD3B00  		CALL	X003B		; 34A3  CD 3B 00	M;.
 409:	34A6  C3FF03  		JP	X03FF		; 34A6  C3 FF 03	C..
 410:			;
 411:	34A9  00      		NOP			; 34A9  00		.
 412:	34AA  7B      		LD	A,E		; 34AA  7B		{
 413:	34AB  B7      		OR	A		; 34AB  B7		7
 414:	34AC  C29E42  		JP	NZ,X429E	; 34AC  C2 9E 42	B.B
 415:	34AF  7A      		LD	A,D		; 34AF  7A		z
 416:	34B0  D3D7    		OUT	($D7),A		; 34B0  D3 D7		SW
 417:	34B2  7B      		LD	A,E		; 34B2  7B		{
 418:	34B3  D3D0    		OUT	($D0),A		; 34B3  D3 D0		SP
 419:	34B5  3E17    		LD	A,$17		; 34B5  3E 17		>.
 420:	34B7  D3D0    		OUT	($D0),A		; 34B7  D3 D0		SP
 421:	34B9  E3      		EX	(SP),HL		; 34B9  E3		c
 422:	34BA  E3      		EX	(SP),HL		; 34BA  E3		c
 423:	34BB  C39E42  		JP	X429E		; 34BB  C3 9E 42	C.B
 424:			;
 425:	34BE  00      	X34BE:	NOP			; 34BE  00		.
 426:	34BF  AF      	X34BF:	XOR	A		; 34BF  AF		/
 427:	34C0  182E    		JR	X34F0		; 34C0  18 2E		..
 428:			;
 429:	34C2  213640  	X34C2:	LD	HL,X4036	; 34C2  21 36 40	!6@
 430:	34C5  CDA335  		CALL	X35A3		; 34C5  CD A3 35	M#5
 431:	34C8  00      		NOP			; 34C8  00		.
 432:	34C9  28F4    		JR	Z,X34BF		; 34C9  28 F4		(t
 433:	34CB  CBBF    		RES	7,A		; 34CB  CB BF		K?
 434:	34CD  BE      		CP	(HL)		; 34CD  BE		>
 435:	34CE  2023    		JR	NZ,X34F3	; 34CE  20 23		 #
 436:	34D0  F5      		PUSH	AF		; 34D0  F5		u
 437:	34D1  C5      		PUSH	BC		; 34D1  C5		E
 438:	34D2  010005  		LD	BC,X0500	; 34D2  01 00 05	...
 439:	34D5  CDA335  	X34D5:	CALL	X35A3		; 34D5  CD A3 35	M#5
 440:	34D8  00      		NOP			; 34D8  00		.
 441:	34D9  285A    		JR	Z,X3535		; 34D9  28 5A		(Z
 442:	34DB  0B      		DEC	BC		; 34DB  0B		.
 443:	34DC  78      		LD	A,B		; 34DC  78		x
 444:	34DD  B1      		OR	C		; 34DD  B1		1
 445:	34DE  20F5    		JR	NZ,X34D5	; 34DE  20 F5		 u
 446:	34E0  3ABE34  		LD	A,(X34BE)	; 34E0  3A BE 34	:>4
 447:	34E3  B7      		OR	A		; 34E3  B7		7
 448:	34E4  3E01    		LD	A,$01		; 34E4  3E 01		>.
 449:	34E6  32BE34  		LD	(X34BE),A	; 34E6  32 BE 34	2>4
 450:	34E9  010050  		LD	BC,X5000	; 34E9  01 00 50	..P
 451:	34EC  28E7    		JR	Z,X34D5		; 34EC  28 E7		(g
 452:	34EE  C1      		POP	BC		; 34EE  C1		A
 453:	34EF  F1      		POP	AF		; 34EF  F1		q
 454:	34F0  32BE34  	X34F0:	LD	(X34BE),A	; 34F0  32 BE 34	2>4
 455:	34F3  77      	X34F3:	LD	(HL),A		; 34F3  77		w
 456:	34F4  D602    		SUB	$02		; 34F4  D6 02		V.
 457:	34F6  7E      		LD	A,(HL)		; 34F6  7E		~
 458:	34F7  D8      		RET	C		; 34F7  D8		X
 459:	34F8  D605    		SUB	$05		; 34F8  D6 05		V.
 460:	34FA  7E      		LD	A,(HL)		; 34FA  7E		~
 461:	34FB  383C    		JR	C,X3539		; 34FB  38 3C		8<
 462:	34FD  D61F    		SUB	$1F		; 34FD  D6 1F		V.
 463:	34FF  7E      		LD	A,(HL)		; 34FF  7E		~
 464:	3500  DAF103  		JP	C,X03F1		; 3500  DA F1 03	Zq.
 465:	3503  FE7F    		CP	$7F		; 3503  FE 7F		~.
 466:	3505  CAF103  		JP	Z,X03F1		; 3505  CA F1 03	Jq.
 467:	3508  3A3A30  		LD	A,(X303A)	; 3508  3A 3A 30	::0
 468:	350B  FE04    		CP	$04		; 350B  FE 04		~.
 469:	350D  7E      		LD	A,(HL)		; 350D  7E		~
 470:	350E  C8      		RET	Z		; 350E  C8		H
 471:	350F  D67B    		SUB	$7B		; 350F  D6 7B		V{
 472:	3511  7E      		LD	A,(HL)		; 3511  7E		~
 473:	3512  D2F103  		JP	NC,X03F1	; 3512  D2 F1 03	Rq.
 474:	3515  D661    		SUB	$61		; 3515  D6 61		Va
 475:	3517  7E      		LD	A,(HL)		; 3517  7E		~
 476:	3518  CBAF    		RES	5,A		; 3518  CB AF		K/
 477:	351A  D0      		RET	NC		; 351A  D0		P
 478:	351B  7E      		LD	A,(HL)		; 351B  7E		~
 479:	351C  D65B    		SUB	$5B		; 351C  D6 5B		V[
 480:	351E  7E      		LD	A,(HL)		; 351E  7E		~
 481:	351F  D0      		RET	NC		; 351F  D0		P
 482:	3520  D641    		SUB	$41		; 3520  D6 41		VA
 483:	3522  7E      		LD	A,(HL)		; 3522  7E		~
 484:	3523  CBEF    		SET	5,A		; 3523  CB EF		Ko
 485:	3525  D0      		RET	NC		; 3525  D0		P
 486:	3526  3A3A30  		LD	A,(X303A)	; 3526  3A 3A 30	::0
 487:	3529  FE03    		CP	$03		; 3529  FE 03		~.
 488:	352B  7E      		LD	A,(HL)		; 352B  7E		~
 489:	352C  C8      		RET	Z		; 352C  C8		H
 490:	352D  CB67    		BIT	4,A		; 352D  CB 67		Kg
 491:	352F  CBA7    		RES	4,A		; 352F  CB A7		K'
 492:	3531  C0      		RET	NZ		; 3531  C0		@
 493:	3532  CBE7    		SET	4,A		; 3532  CB E7		Kg
 494:	3534  C9      		RET			; 3534  C9		I
 495:			;
 496:	3535  C1      	X3535:	POP	BC		; 3535  C1		A
 497:	3536  F1      		POP	AF		; 3536  F1		q
 498:	3537  AF      		XOR	A		; 3537  AF		/
 499:	3538  C9      		RET			; 3538  C9		I
 500:			;
 501:	3539  323A30  	X3539:	LD	(X303A),A	; 3539  32 3A 30	2:0
 502:	353C  AF      		XOR	A		; 353C  AF		/
 503:	353D  C9      		RET			; 353D  C9		I
 504:			;
 505:	353E  323930  		LD	(X3039),A	; 353E  32 39 30	290
 506:	3541  F1      		POP	AF		; 3541  F1		q
 507:	3542  C9      		RET			; 3542  C9		I
 508:			;
 509:	3543  00      		NOP			; 3543  00		.
 510:	3544  00      		NOP			; 3544  00		.
 511:	3545  00      		NOP			; 3545  00		.
 512:	3546  D3D0    		OUT	($D0),A		; 3546  D3 D0		SP
 513:	3548  E3      		EX	(SP),HL		; 3548  E3		c
 514:	3549  E3      		EX	(SP),HL		; 3549  E3		c
 515:	354A  3ED0    		LD	A,$D0		; 354A  3E D0		>P
 516:	354C  D3D0    		OUT	($D0),A		; 354C  D3 D0		SP
 517:	354E  E3      		EX	(SP),HL		; 354E  E3		c
 518:	354F  E3      		EX	(SP),HL		; 354F  E3		c
 519:	3550  3E1B    		LD	A,$1B		; 3550  3E 1B		>.
 520:	3552  D3D0    		OUT	($D0),A		; 3552  D3 D0		SP
 521:	3554  F1      		POP	AF		; 3554  F1		q
 522:	3555  C9      		RET			; 3555  C9		I
 523:			;
 524:	3556  F5      		PUSH	AF		; 3556  F5		u
 525:	3557  DD7E0A  		LD	A,(IX+$0A)	; 3557  DD 7E 0A	]~.
 526:	355A  DD860B  		ADD	A,(IX+$0B)	; 355A  DD 86 0B	]..
 527:	355D  FE00    		CP	$00		; 355D  FE 00		~.
 528:	355F  2005    		JR	NZ,X3566	; 355F  20 05		 .
 529:	3561  DD340A  		INC	(IX+$0A)	; 3561  DD 34 0A	]4.
 530:	3564  05      		DEC	B		; 3564  05		.
 531:	3565  00      		NOP			; 3565  00		.
 532:	3566  F1      	X3566:	POP	AF		; 3566  F1		q
 533:	3567  C33644  		JP	X4436		; 3567  C3 36 44	C6D
 534:			;
 535:	356A  F5      		PUSH	AF		; 356A  F5		u
 536:	356B  DD7E0A  		LD	A,(IX+$0A)	; 356B  DD 7E 0A	]~.
 537:	356E  DD860B  		ADD	A,(IX+$0B)	; 356E  DD 86 0B	]..
 538:	3571  FE00    		CP	$00		; 3571  FE 00		~.
 539:	3573  2005    		JR	NZ,X357A	; 3573  20 05		 .
 540:	3575  DD340A  		INC	(IX+$0A)	; 3575  DD 34 0A	]4.
 541:	3578  05      		DEC	B		; 3578  05		.
 542:	3579  00      		NOP			; 3579  00		.
 543:	357A  F1      	X357A:	POP	AF		; 357A  F1		q
 544:	357B  C33944  		JP	X4439		; 357B  C3 39 44	C9D
 545:			;
 546:	357E  3C      		INC	A		; 357E  3C		<
 547:	357F  00      		NOP			; 357F  00		.
 548:	3580  00      		NOP			; 3580  00		.
 549:	3581  00      		NOP			; 3581  00		.
 550:	3582  D3D6    		OUT	($D6),A		; 3582  D3 D6		SV
 551:	3584  F5      		PUSH	AF		; 3584  F5		u
 552:	3585  DBD1    		IN	A,($D1)		; 3585  DB D1		[Q
 553:	3587  D3D7    		OUT	($D7),A		; 3587  D3 D7		SW
 554:	3589  E3      		EX	(SP),HL		; 3589  E3		c
 555:	358A  E3      		EX	(SP),HL		; 358A  E3		c
 556:	358B  3E17    		LD	A,$17		; 358B  3E 17		>.
 557:	358D  D3D0    		OUT	($D0),A		; 358D  D3 D0		SP
 558:	358F  E3      		EX	(SP),HL		; 358F  E3		c
 559:	3590  E3      		EX	(SP),HL		; 3590  E3		c
 560:	3591  3ED0    		LD	A,$D0		; 3591  3E D0		>P
 561:	3593  D3D0    		OUT	($D0),A		; 3593  D3 D0		SP
 562:	3595  E3      		EX	(SP),HL		; 3595  E3		c
 563:	3596  E3      		EX	(SP),HL		; 3596  E3		c
 564:	3597  DBD0    	X3597:	IN	A,($D0)		; 3597  DB D0		[P
 565:	3599  CB47    		BIT	0,A		; 3599  CB 47		KG
 566:	359B  20FA    		JR	NZ,X3597	; 359B  20 FA		 z
 567:	359D  3E1B    		LD	A,$1B		; 359D  3E 1B		>.
 568:	359F  D3D0    	X359F:	OUT	($D0),A		; 359F  D3 D0		SP
 569:	35A1  F1      		POP	AF		; 35A1  F1		q
 570:	35A2  C9      		RET			; 35A2  C9		I
 571:			;
 572:	35A3  DB85    	X35A3:	IN	A,($85)		; 35A3  DB 85		[.
 573:	35A5  2F      		CPL			; 35A5  2F		/
 574:	35A6  CB7F    		BIT	7,A		; 35A6  CB 7F		K.
 575:	35A8  C9      		RET			; 35A8  C9		I
 576:			;
 577:	35A9  AF      		XOR	A		; 35A9  AF		/
 578:	35AA  321543  		LD	(X4315),A	; 35AA  32 15 43	2.C
 579:	35AD  3A3930  		LD	A,(X3039)	; 35AD  3A 39 30	:90
 580:	35B0  FE01    		CP	$01		; 35B0  FE 01		~.
 581:	35B2  C8      		RET	Z		; 35B2  C8		H
 582:	35B3  DB85    		IN	A,($85)		; 35B3  DB 85		[.
 583:	35B5  2F      		CPL			; 35B5  2F		/
 584:	35B6  CB7F    		BIT	7,A		; 35B6  CB 7F		K.
 585:	35B8  2002    		JR	NZ,X35BC	; 35B8  20 02		 .
 586:	35BA  AF      		XOR	A		; 35BA  AF		/
 587:	35BB  C9      		RET			; 35BB  C9		I
 588:			;
 589:	35BC  E67F    	X35BC:	AND	$7F		; 35BC  E6 7F		f.
 590:	35BE  C9      		RET			; 35BE  C9		I
 591:			;
 592:	35BF  00      		NOP			; 35BF  00		.
 593:	35C0  C1      		POP	BC		; 35C0  C1		A
 594:	35C1  43      		LD	B,E		; 35C1  43		C
 595:	35C2  43      		LD	B,E		; 35C2  43		C
 596:	35C3  45      		LD	B,L		; 35C3  45		E
 597:	35C4  50      		LD	D,B		; 35C4  50		P
 598:	35C5  54      		LD	D,H		; 35C5  54		T
 599:	35C6  24      		INC	H		; 35C6  24		$
 600:	35C7  C24545  		JP	NZ,X4545	; 35C7  C2 45 45	BEE
 601:	35CA  50      		LD	D,B		; 35CA  50		P
 602:	35CB  C24C49  		JP	NZ,X494C	; 35CB  C2 4C 49	BLI
 603:	35CE  4E      		LD	C,(HL)		; 35CE  4E		N
 604:	35CF  4B      		LD	C,E		; 35CF  4B		K
 605:	35D0  C3414C  		JP	X4C41		; 35D0  C3 41 4C	CAL
 606:			;
 607:	35D3  4C      		LD	C,H		; 35D3  4C		L
 608:	35D4  C34841  		JP	X4148		; 35D4  C3 48 41	CHA
 609:			;
 610:	35D7  4E      		LD	C,(HL)		; 35D7  4E		N
 611:	35D8  47      		LD	B,A		; 35D8  47		G
 612:	35D9  45      		LD	B,L		; 35D9  45		E
 613:	35DA  28C3    		JR	Z,X359F		; 35DA  28 C3		(C
 614:	35DC  49      		LD	C,C		; 35DC  49		I
 615:	35DD  52      		LD	D,D		; 35DD  52		R
 616:	35DE  43      		LD	B,E		; 35DE  43		C
 617:	35DF  4C      		LD	C,H		; 35DF  4C		L
 618:	35E0  45      		LD	B,L		; 35E0  45		E
 619:	35E1  C34F55  	X35E1:	JP	X554F		; 35E1  C3 4F 55	COU
 620:			;
 621:	35E4  4E      		LD	C,(HL)		; 35E4  4E		N
 622:	35E5  54      		LD	D,H		; 35E5  54		T
 623:	35E6          	X35E6:	JR	Z,X35AB		; 35E6  28 C3		(C
V Value error
 624:	35E6  55      		LD	D,L		; 35E8  55		U
 625:	35E7  52      		LD	D,D		; 35E9  52		R
 626:	35E8  53      		LD	D,E		; 35EA  53		S
 627:	35E9  C7      		RST	0		; 35EB  C7		G
 628:	35EA  52      		LD	D,D		; 35EC  52		R
 629:	35EB  41      	X35ED:	LD	B,C		; 35ED  41		A
 630:	35EC  50      		LD	D,B		; 35EE  50		P
 631:	35ED  48      		LD	C,B		; 35EF  48		H
 632:	35EE  C8      		RET	Z		; 35F0  C8		H
 633:	35EF  4C      		LD	C,H		; 35F1  4C		L
 634:	35F0  49      		LD	C,C		; 35F2  49		I
 635:	35F1  47      		LD	B,A		; 35F3  47		G
 636:	35F2  48      	X35F4:	LD	C,B		; 35F4  48		H
 637:	35F3  54      		LD	D,H		; 35F5  54		T
 638:	35F4  C8      		RET	Z		; 35F6  C8		H
 639:	35F5  54      		LD	D,H		; 35F7  54		T
 640:	35F6  52      		LD	D,D		; 35F8  52		R
 641:	35F7  41      		LD	B,C		; 35F9  41		A
 642:	35F8  4E      		LD	C,(HL)		; 35FA  4E		N
 643:	35F9  53      		LD	D,E		; 35FB  53		S
 644:	35FA          		JR	Z,X35C9		; 35FC  28 CB		(K
V Value error
 645:	35FA  45      		LD	B,L		; 35FE  45		E
 646:	35FB  59      		LD	E,C		; 35FF  59		Y
 647:	35FC  49      		LD	C,C		; 3600  49		I
 648:	35FD  4E      		LD	C,(HL)		; 3601  4E		N
 649:	35FE  24      		INC	H		; 3602  24		$
 650:	35FF  CB45    		BIT	0,L		; 3603  CB 45		KE
 651:	3601  59      		LD	E,C		; 3605  59		Y
 652:	3602  CF      		RST	8		; 3606  CF		O
 653:	3603  46      		LD	B,(HL)		; 3607  46		F
 654:	3604  46      		LD	B,(HL)		; 3608  46		F
 655:	3605  CC434F  	X3609:	CALL	Z,X4F43		; 3609  CC 43 4F	LCO
 656:	3608  50      		LD	D,B		; 360C  50		P
 657:	3609  59      		LD	E,C		; 360D  59		Y
 658:	360A  CC4452  	X360E:	CALL	Z,X5244		; 360E  CC 44 52	LDR
 659:	360D  4F      		LD	C,A		; 3611  4F		O
 660:	360E  50      		LD	D,B		; 3612  50		P
 661:	360F  28D0    		JR	Z,X35E1		; 3613  28 CC		(L
 662:	3611  50      	X3615:	LD	D,B		; 3615  50		P
 663:	3612  41      		LD	B,C		; 3616  41		A
 664:	3613  44      		LD	B,H		; 3617  44		D
 665:	3614  28D0    		JR	Z,X35E6		; 3618  28 CC		(L
 666:	3616  54      		LD	D,H		; 361A  54		T
 667:	3617  52      		LD	D,D		; 361B  52		R
 668:	3618  41      		LD	B,C		; 361C  41		A
 669:	3619  4E      		LD	C,(HL)		; 361D  4E		N
 670:	361A  53      		LD	D,E		; 361E  53		S
 671:	361B  28CE    		JR	Z,X35ED		; 361F  28 CC		(L
 672:	361D  54      		LD	D,H		; 3621  54		T
 673:	361E  52      		LD	D,D		; 3622  52		R
 674:	361F  49      		LD	C,C		; 3623  49		I
 675:	3620  4D      		LD	C,L		; 3624  4D		M
 676:	3621  28CF    		JR	Z,X35F4		; 3625  28 CD		(M
 677:	3623  4F      	X3627:	LD	C,A		; 3627  4F		O
 678:	3624  44      		LD	B,H		; 3628  44		D
 679:	3625  45      		LD	B,L		; 3629  45		E
 680:	3626  D0      		RET	NC		; 362A  D0		P
 681:	3627  41      		LD	B,C		; 362B  41		A
 682:	3628  47      		LD	B,A		; 362C  47		G
 683:	3629  45      		LD	B,L		; 362D  45		E
 684:	362A  D0      		RET	NC		; 362E  D0		P
 685:	362B  49      	X362F:	LD	C,C		; 362F  49		I
 686:	362C  D24452  		JP	NC,X5244	; 3630  D2 44 52	RDR
 687:	362F  4F      		LD	C,A		; 3633  4F		O
 688:	3630  50      		LD	D,B		; 3634  50		P
 689:	3631  28D2    		JR	Z,X3609		; 3635  28 D2		(R
 690:	3633  50      		LD	D,B		; 3637  50		P
 691:	3634  41      		LD	B,C		; 3638  41		A
 692:	3635  44      		LD	B,H		; 3639  44		D
 693:	3636  28D2    		JR	Z,X360E		; 363A  28 D2		(R
 694:	3638  54      		LD	D,H		; 363C  54		T
 695:	3639  52      		LD	D,D		; 363D  52		R
 696:	363A  49      		LD	C,C		; 363E  49		I
 697:	363B  4D      		LD	C,L		; 363F  4D		M
 698:	363C  28D3    		JR	Z,X3615		; 3640  28 D3		(S
 699:	363E  43      		LD	B,E		; 3642  43		C
 700:	363F  52      		LD	D,D		; 3643  52		R
 701:	3640  4F      		LD	C,A		; 3644  4F		O
 702:	3641  4C      		LD	C,H		; 3645  4C		L
 703:	3642  4C      		LD	C,H		; 3646  4C		L
 704:	3643  D349    		OUT	($49),A		; 3647  D3 49		SI
 705:	3645  5A      		LD	E,D		; 3649  5A		Z
 706:	3646  45      		LD	B,L		; 364A  45		E
 707:	3647  D357    		OUT	($57),A		; 364B  D3 57		SW
 708:	3649  41      		LD	B,C		; 364D  41		A
 709:	364A  50      		LD	D,B		; 364E  50		P
 710:	364B  D4414B  		CALL	NC,X4B41	; 364F  D4 41 4B	TAK
 711:	364E  45      		LD	B,L		; 3652  45		E
 712:	364F  D45241  		CALL	NC,X4152	; 3653  D4 52 41	TRA
 713:	3652  4E      		LD	C,(HL)		; 3656  4E		N
 714:	3653  53      		LD	D,E		; 3657  53		S
 715:	3654  28D5    		JR	Z,X362F		; 3658  28 D5		(U
 716:	3656  4E      		LD	C,(HL)		; 365A  4E		N
 717:	3657  44      		LD	B,H		; 365B  44		D
 718:	3658  45      		LD	B,L		; 365C  45		E
 719:	3659  52      		LD	D,D		; 365D  52		R
 720:	365A  D7      		RST	10H		; 365E  D7		W
 721:	365B  41      		LD	B,C		; 365F  41		A
 722:	365C  49      		LD	C,C		; 3660  49		I
 723:	365D  54      		LD	D,H		; 3661  54		T
 724:	365E  C34841  		JP	X4148		; 3662  C3 48 41	CHA
 725:			;
 726:	3661  49      		LD	C,C		; 3665  49		I
 727:	3662  4E      		LD	C,(HL)		; 3666  4E		N
 728:	3663  80      		ADD	A,B		; 3667  80		.
 729:	3664  00      		NOP			; 3668  00		.
 730:	3665  AC      		XOR	H		; 3669  AC		,
 731:	3666  02      		LD	(BC),A		; 366A  02		.
 732:	3667  63      		LD	H,E		; 366B  63		c
 733:	3668  3014    		JR	NC,X3686	; 366C  30 18		0.
 734:	366A  2C      		INC	L		; 366E  2C		,
 735:	366B  98      		SBC	A,B		; 366F  98		.
 736:	366C          		JR	C,X3610		; 3670  38 9E		8.
V Value error
 737:	366C          		JR	C,X360B		; 3672  38 97		8.
V Value error
 738:	366C  19      		ADD	HL,DE		; 3674  19		.
 739:	366D  65      		LD	H,L		; 3675  65		e
 740:	366E  3B      		DEC	SP		; 3676  3B		;
 741:	366F  9F      		SBC	A,A		; 3677  9F		.
 742:	3670  3B      		DEC	SP		; 3678  3B		;
 743:	3671  AA      		XOR	D		; 3679  AA		*
 744:	3672  212F2C  		LD	HL,X2C2F	; 367A  21 2F 2C	!/,
 745:	3675  0A      		LD	A,(BC)		; 367D  0A		.
 746:	3676  39      		ADD	HL,SP		; 367E  39		9
 747:	3677  FD02    		DEFB	$FD,$02		; 367F  FD 02		}.
 748:			;
 749:	3679  B1      		OR	C		; 3681  B1		1
 750:	367A  37      		SCF			; 3682  37		7
 751:	367B  97      		SUB	A		; 3683  97		.
 752:	367C  19      		ADD	HL,DE		; 3684  19		.
 753:	367D  F7      		RST	30H		; 3685  F7		w
 754:	367E  03      	X3686:	INC	BC		; 3686  03		.
 755:	367F  91      		SUB	C		; 3687  91		.
 756:	3680  3A6A66  		LD	A,(X666A)	; 3688  3A 6A 66	:jf
 757:	3683  0A      		LD	A,(BC)		; 368B  0A		.
 758:	3684  39      		ADD	HL,SP		; 368C  39		9
 759:	3685  56      		LD	D,(HL)		; 368D  56		V
 760:	3686  39      		ADD	HL,SP		; 368E  39		9
 761:	3687  3D      		DEC	A		; 368F  3D		=
 762:	3688  2C      		INC	L		; 3690  2C		,
 763:	3689  C2364D  		JP	NZ,X4D36	; 3691  C2 36 4D	B6M
 764:	368C  3895    		JR	C,X3627		; 3694  38 91		8.
 765:	368E  3A6A66  		LD	A,(X666A)	; 3696  3A 6A 66	:jf
 766:	3691  56      		LD	D,(HL)		; 3699  56		V
 767:	3692  39      		ADD	HL,SP		; 369A  39		9
 768:	3693  89      		ADC	A,C		; 369B  89		.
 769:	3694  2C      		INC	L		; 369C  2C		,
 770:	3695  8E      		ADC	A,(HL)		; 369D  8E		.
 771:	3696  311437  		LD	SP,X3720	; 369E  31 20 37	1 7
 772:	3699  CE37    		ADC	A,$37		; 36A1  CE 37		N7
 773:	369B  BF      		CP	A		; 36A3  BF		?
 774:	369C  39      		ADD	HL,SP		; 36A4  39		9
 775:	369D          		JR	Z,X36D3		; 36A5  28 2C		(,
V Value error
 776:	369D  B2      		OR	D		; 36A7  B2		2
 777:	369E          		JR	NC,X3641	; 36A8  30 97		0.
V Value error
 778:	369E  19      		ADD	HL,DE		; 36AA  19		.
 779:	369F  0E0D    		LD	C,$0D		; 36AB  0E 0D		..
 780:	36A1  3A3B30  		LD	A,(X303B)	; 36AD  3A 3B 30	:;0
 781:	36A4  CB4F    		BIT	1,A		; 36B0  CB 4F		KO
 782:	36A6  3E28    		LD	A,$28		; 36B2  3E 28		>(
 783:	36A8  2001    		JR	NZ,X36B7	; 36B4  20 01		 .
 784:	36AA  87      		ADD	A,A		; 36B6  87		.
 785:	36AB  91      	X36B7:	SUB	C		; 36B7  91		.
 786:	36AC  2A3232  		LD	HL,(X3232)	; 36B8  2A 32 32	*22
 787:	36AF  5F      		LD	E,A		; 36BB  5F		_
 788:	36B0  1600    		LD	D,$00		; 36BC  16 00		..
 789:	36B2  19      		ADD	HL,DE		; 36BE  19		.
 790:	36B3  C38931  		JP	X3189		; 36BF  C3 89 31	C.1
 791:			;
 792:	36B6  E1      		POP	HL		; 36C2  E1		a
 793:	36B7  E5      		PUSH	HL		; 36C3  E5		e
 794:	36B8  012F25  		LD	BC,X252F	; 36C4  01 2F 25	./%
 795:	36BB  ED42    		SBC	HL,BC		; 36C7  ED 42		mB
 796:	36BD  280E    		JR	Z,X36D9		; 36C9  28 0E		(.
 797:	36BF  2A3E30  		LD	HL,(X303E)	; 36CB  2A 3E 30	*>0
 798:	36C2  D7      		RST	10H		; 36CE  D7		W
 799:	36C3  CA9719  		JP	Z,X1997		; 36CF  CA 97 19	J..
 800:	36C6  CD1B2B  		CALL	X2B1B		; 36D2  CD 1B 2B	M.+
 801:	36C9  322840  		LD	(X4028),A	; 36D5  32 28 40	2(@
 802:	36CC  C9      		RET			; 36D8  C9		I
 803:			;
 804:	36CD  2A3E30  	X36D9:	LD	HL,(X303E)	; 36D9  2A 3E 30	*>0
 805:	36D0  D7      		RST	10H		; 36DC  D7		W
 806:	36D1  3A2840  		LD	A,(X4028)	; 36DD  3A 28 40	:(@
 807:	36D4  E3      		EX	(SP),HL		; 36E0  E3		c
 808:	36D5  CDF827  		CALL	X27F8		; 36E1  CD F8 27	Mx'
 809:	36D8  E1      		POP	HL		; 36E4  E1		a
 810:	36D9  C9      		RET			; 36E5  C9		I
 811:			;
 812:	36DA  3E20    		LD	A,$20		; 36E6  3E 20		> 
 813:	36DC  F3      		DI			; 36E8  F3		s
 814:	36DD  D5      		PUSH	DE		; 36E9  D5		U
 815:	36DE  E5      		PUSH	HL		; 36EA  E5		e
 816:	36DF  F5      		PUSH	AF		; 36EB  F5		u
 817:	36E0  CD7A31  		CALL	X317A		; 36EC  CD 7A 31	Mz1
 818:	36E3  F1      		POP	AF		; 36EF  F1		q
 819:	36E4  CDEB36  		CALL	X36F7		; 36F0  CD F7 36	Mw6
 820:	36E7  E1      		POP	HL		; 36F3  E1		a
 821:	36E8  D1      		POP	DE		; 36F4  D1		Q
 822:	36E9  FB      		EI			; 36F5  FB		{
 823:	36EA  C9      		RET			; 36F6  C9		I
 824:			;
 825:	36EB  F5      	X36F7:	PUSH	AF		; 36F7  F5		u
 826:	36EC  DB8C    	X36F8:	IN	A,($8C)		; 36F8  DB 8C		[.
 827:	36EE  CB7F    		BIT	7,A		; 36FA  CB 7F		K.
 828:	36F0  28FA    		JR	Z,X36F8		; 36FC  28 FA		(z
 829:	36F2  F1      		POP	AF		; 36FE  F1		q
 830:	36F3  F5      		PUSH	AF		; 36FF  F5		u
 831:	36F4  E3      		EX	(SP),HL		; 3700  E3		c
 832:	36F5  E3      		EX	(SP),HL		; 3701  E3		c
 833:	36F6  D380    		OUT	($80),A		; 3702  D3 80		S.
 834:	36F8  3A4330  		LD	A,(X3043)	; 3704  3A 43 30	:C0
 835:	36FB  CBE7    		SET	4,A		; 3707  CB E7		Kg
 836:	36FD  D38E    		OUT	($8E),A		; 3709  D3 8E		S.
 837:	36FF  AF      		XOR	A		; 370B  AF		/
 838:	3700  D38D    		OUT	($8D),A		; 370C  D3 8D		S.
 839:	3702  F1      		POP	AF		; 370E  F1		q
 840:	3703  C9      		RET			; 370F  C9		I
 841:			;
 842:	3704  E5      		PUSH	HL		; 3710  E5		e
 843:	3705  118007  		LD	DE,X0780	; 3711  11 80 07	...
 844:	3708  ED52    		SBC	HL,DE		; 3714  ED 52		mR
 845:	370A  E1      		POP	HL		; 3716  E1		a
 846:	370B  C9      		RET			; 3717  C9		I
 847:			;
 848:	370C  00      		NOP			; 3718  00		.
 849:	370D  00      		NOP			; 3719  00		.
 850:	370E  CD6B2C  		CALL	X2C6B		; 371A  CD 6B 2C	Mk,
 851:	3711  C3CF4E  		JP	X4ECF		; 371D  C3 CF 4E	CON
 852:			;
 853:	3714  2A3E30  	X3720:	LD	HL,(X303E)	; 3720  2A 3E 30	*>0
 854:	3717  D7      		RST	10H		; 3723  D7		W
 855:	3718  0E00    		LD	C,$00		; 3724  0E 00		..
 856:	371A  1E17    		LD	E,$17		; 3726  1E 17		..
 857:	371C  2829    		JR	Z,X3753		; 3728  28 29		()
 858:	371E  FE2C    		CP	$2C		; 372A  FE 2C		~,
 859:	3720  2007    		JR	NZ,X3735	; 372C  20 07		 .
 860:	3722  1E00    		LD	E,$00		; 372E  1E 00		..
 861:	3724  CD1B2B  		CALL	X2B1B		; 3730  CD 1B 2B	M.+
 862:	3727  180F    		JR	X3744		; 3733  18 0F		..
 863:			;
 864:	3729  CD1C2B  	X3735:	CALL	X2B1C		; 3735  CD 1C 2B	M.+
 865:	372C  D7      		RST	10H		; 3738  D7		W
 866:	372D  4B      		LD	C,E		; 3739  4B		K
 867:	372E  1E17    		LD	E,$17		; 373A  1E 17		..
 868:	3730  2806    		JR	Z,X3744		; 373C  28 06		(.
 869:	3732  2B      		DEC	HL		; 373E  2B		+
 870:	3733  C5      		PUSH	BC		; 373F  C5		E
 871:	3734  CD172B  		CALL	X2B17		; 3740  CD 17 2B	M.+
 872:	3737  C1      		POP	BC		; 3743  C1		A
 873:	3738  E5      	X3744:	PUSH	HL		; 3744  E5		e
 874:	3739  214A1E  		LD	HL,X1E4A	; 3745  21 4A 1E	!J.
 875:	373C  E5      		PUSH	HL		; 3748  E5		e
 876:	373D  79      		LD	A,C		; 3749  79		y
 877:	373E  FE18    		CP	$18		; 374A  FE 18		~.
 878:	3740  D0      		RET	NC		; 374C  D0		P
 879:	3741  7B      		LD	A,E		; 374D  7B		{
 880:	3742  FE18    		CP	$18		; 374E  FE 18		~.
 881:	3744  D0      		RET	NC		; 3750  D0		P
 882:	3745  E1      		POP	HL		; 3751  E1		a
 883:	3746  E1      		POP	HL		; 3752  E1		a
 884:	3747  E5      	X3753:	PUSH	HL		; 3753  E5		e
 885:	3748  F3      		DI			; 3754  F3		s
 886:	3749  CDB321  		CALL	X21B3		; 3755  CD B3 21	M3!
 887:	374C  43      		LD	B,E		; 3758  43		C
 888:	374D  04      		INC	B		; 3759  04		.
 889:	374E  0C      		INC	C		; 375A  0C		.
 890:	374F  ED5B3232		LD	DE,(X3232)	; 375B  ED 5B 32 32	m[22
 891:	3753  212800  		LD	HL,X0028	; 375F  21 28 00	!(.
 892:	3756  3A3B30  		LD	A,(X303B)	; 3762  3A 3B 30	:;0
 893:	3759  CB4F    		BIT	1,A		; 3765  CB 4F		KO
 894:	375B  2001    		JR	NZ,X376A	; 3767  20 01		 .
 895:	375D  29      		ADD	HL,HL		; 3769  29		)
 896:	375E  EB      	X376A:	EX	DE,HL		; 376A  EB		k
 897:	375F  2B      		DEC	HL		; 376B  2B		+
 898:	3760  E5      		PUSH	HL		; 376C  E5		e
 899:	3761  D5      		PUSH	DE		; 376D  D5		U
 900:	3762  C5      		PUSH	BC		; 376E  C5		E
 901:	3763  D9      		EXX			; 376F  D9		Y
 902:	3764  C1      		POP	BC		; 3770  C1		A
 903:	3765  D1      		POP	DE		; 3771  D1		Q
 904:	3766  E1      		POP	HL		; 3772  E1		a
 905:	3767  19      	X3773:	ADD	HL,DE		; 3773  19		.
 906:	3768  10FD    		DJNZ	X3773		; 3774  10 FD		.}
 907:	376A  D9      		EXX			; 3776  D9		Y
 908:	376B  41      		LD	B,C		; 3777  41		A
 909:	376C  19      	X3778:	ADD	HL,DE		; 3778  19		.
 910:	376D  10FD    		DJNZ	X3778		; 3779  10 FD		.}
 911:	376F  43      		LD	B,E		; 377B  43		C
 912:	3770  E5      	X377C:	PUSH	HL		; 377C  E5		e
 913:	3771  CD8931  		CALL	X3189		; 377D  CD 89 31	M.1
 914:	3774  21FC3E  		LD	HL,X3EFC	; 3780  21 FC 3E	!|>
 915:	3777  CD3931  		CALL	X3139		; 3783  CD 39 31	M91
 916:	377A  E3      		EX	(SP),HL		; 3786  E3		c
 917:	377B  D9      		EXX			; 3787  D9		Y
 918:	377C  CD8931  		CALL	X3189		; 3788  CD 89 31	M.1
 919:	377F  E3      		EX	(SP),HL		; 378B  E3		c
 920:	3780  CD3931  		CALL	X3139		; 378C  CD 39 31	M91
 921:	3783  E1      		POP	HL		; 378F  E1		a
 922:	3784  CD8931  		CALL	X3189		; 3790  CD 89 31	M.1
 923:	3787  2B      		DEC	HL		; 3793  2B		+
 924:	3788  E5      		PUSH	HL		; 3794  E5		e
 925:	3789  21FC3E  		LD	HL,X3EFC	; 3795  21 FC 3E	!|>
 926:	378C  CD5531  		CALL	X3155		; 3798  CD 55 31	MU1
 927:	378F  E3      		EX	(SP),HL		; 379B  E3		c
 928:	3790  D9      		EXX			; 379C  D9		Y
 929:	3791  CD8931  		CALL	X3189		; 379D  CD 89 31	M.1
 930:	3794  E3      		EX	(SP),HL		; 37A0  E3		c
 931:	3795  CD5531  		CALL	X3155		; 37A1  CD 55 31	MU1
 932:	3798  E1      		POP	HL		; 37A4  E1		a
 933:	3799  2B      		DEC	HL		; 37A5  2B		+
 934:	379A  10D4    		DJNZ	X377C		; 37A6  10 D4		.T
 935:	379C  2A8631  		LD	HL,(X3186)	; 37A8  2A 86 31	*.1
 936:	379F  CD8931  		CALL	X3189		; 37AB  CD 89 31	M.1
 937:	37A2  FB      		EI			; 37AE  FB		{
 938:	37A3  E1      		POP	HL		; 37AF  E1		a
 939:	37A4  C9      		RET			; 37B0  C9		I
 940:			;
 941:	37A5  CDCD65  		CALL	X65CD		; 37B1  CD CD 65	MMe
 942:	37A8  D7      		RST	10H		; 37B4  D7		W
 943:	37A9  E3      		EX	(SP),HL		; 37B5  E3		c
 944:	37AA  00      		NOP			; 37B6  00		.
 945:	37AB  CDBA37  		CALL	X37C6		; 37B7  CD C6 37	MF7
 946:	37AE  21B537  		LD	HL,X37C1	; 37BA  21 C1 37	!A7
 947:	37B1  E5      		PUSH	HL		; 37BD  E5		e
 948:	37B2  CDAB01  		CALL	X01AB		; 37BE  CD AB 01	M+.
 949:	37B5  CD0F2A  	X37C1:	CALL	X2A0F		; 37C1  CD 0F 2A	M.*
 950:	37B8  E1      		POP	HL		; 37C4  E1		a
 951:	37B9  C9      		RET			; 37C5  C9		I
 952:			;
 953:	37BA  CD9B1D  	X37C6:	CALL	X1D9B		; 37C6  CD 9B 1D	M..
 954:	37BD  B7      		OR	A		; 37C9  B7		7
 955:	37BE  28FA    		JR	Z,X37C6		; 37CA  28 FA		(z
 956:	37C0  3C      		INC	A		; 37CC  3C		<
 957:	37C1  C9      		RET			; 37CD  C9		I
 958:			;
 959:	37C2  CDCD65  		CALL	X65CD		; 37CE  CD CD 65	MMe
 960:	37C5  E3      		EX	(SP),HL		; 37D1  E3		c
 961:	37C6  E1      		POP	HL		; 37D2  E1		a
 962:	37C7  CD2828  		CALL	X2828		; 37D3  CD 28 28	M((
 963:	37CA  D7      		RST	10H		; 37D6  D7		W
 964:	37CB  CA9719  		JP	Z,X1997		; 37D7  CA 97 19	J..
 965:	37CE  FE22    		CP	$22		; 37DA  FE 22		~"
 966:	37D0  CCD021  		CALL	Z,X21D0		; 37DC  CC D0 21	LP!
 967:	37D3  2B      		DEC	HL		; 37DF  2B		+
 968:	37D4  CD1B2B  		CALL	X2B1B		; 37E0  CD 1B 2B	M.+
 969:	37D7  B7      		OR	A		; 37E3  B7		7
 970:	37D8  CA4A1E  		JP	Z,X1E4A		; 37E4  CA 4A 1E	JJ.
 971:	37DB  FEF1    		CP	$F1		; 37E7  FE F1		~q
 972:	37DD  D24A1E  		JP	NC,X1E4A	; 37E9  D2 4A 1E	RJ.
 973:	37E0  327003  		LD	(X0370),A	; 37EC  32 70 03	2p.
 974:	37E3  CF      		RST	8		; 37EF  CF		O
 975:	37E4  2C      		INC	L		; 37F0  2C		,
 976:	37E5  E5      		PUSH	HL		; 37F1  E5		e
 977:	37E6  CDB31B  		CALL	X1BB3		; 37F2  CD B3 1B	M3.
 978:	37E9  3EF0    		LD	A,$F0		; 37F5  3E F0		>p
 979:	37EB  327003  		LD	(X0370),A	; 37F7  32 70 03	2p.
 980:	37EE  E5      		PUSH	HL		; 37FA  E5		e
 981:	37EF  210000  		LD	HL,X0000	; 37FB  21 00 00	!..
 982:	37F2  222141  		LD	(X4121),HL	; 37FE  22 21 41	"!A
 983:	37F5  E1      		POP	HL		; 3801  E1		a
 984:	37F6  C1      		POP	BC		; 3802  C1		A
 985:	37F7  DABE1D  		JP	C,X1DBE		; 3803  DA BE 1D	Z>.
 986:	37FA  23      		INC	HL		; 3806  23		#
 987:	37FB  7E      		LD	A,(HL)		; 3807  7E		~
 988:	37FC  B7      		OR	A		; 3808  B7		7
 989:	37FD  2B      		DEC	HL		; 3809  2B		+
 990:	37FE  C5      		PUSH	BC		; 380A  C5		E
 991:	37FF  CA041F  		JP	Z,X1F04		; 380B  CA 04 1F	J..
 992:	3802  362C    		LD	(HL),$2C	; 380E  36 2C		6,
 993:	3804  D9      		EXX			; 3810  D9		Y
 994:	3805  211802  		LD	HL,X0218	; 3811  21 18 02	!..
 995:	3808  223722  		LD	(X2237),HL	; 3814  22 37 22	"7"
 996:	380B  AF      		XOR	A		; 3817  AF		/
 997:	380C  323C22  		LD	(X223C),A	; 3818  32 3C 22	2<"
 998:	380F  323E22  		LD	(X223E),A	; 381B  32 3E 22	2>"
 999:	3812  211B38  		LD	HL,X3827	; 381E  21 27 38	!'8
1000:	3815  E3      		EX	(SP),HL		; 3821  E3		c
1001:	3816  E5      		PUSH	HL		; 3822  E5		e
1002:	3817  D9      		EXX			; 3823  D9		Y
1003:	3818  C3F521  		JP	X21F5		; 3824  C3 F5 21	Cu!
1004:			;
1005:	381B  E5      	X3827:	PUSH	HL		; 3827  E5		e
1006:	381C  21FE22  		LD	HL,X22FE	; 3828  21 FE 22	!~"
1007:	381F  223722  		LD	(X2237),HL	; 382B  22 37 22	"7"
1008:	3822  3E3A    		LD	A,$3A		; 382E  3E 3A		>:
1009:	3824  323C22  		LD	(X223C),A	; 3830  32 3C 22	2<"
1010:	3827  3E2C    		LD	A,$2C		; 3833  3E 2C		>,
1011:	3829  323E22  		LD	(X223E),A	; 3835  32 3E 22	2>"
1012:	382C  210000  		LD	HL,X0000	; 3838  21 00 00	!..
1013:	382F  CD3202  		CALL	X0232		; 383B  CD 32 02	M2.
1014:	3832  E1      		POP	HL		; 383E  E1		a
1015:	3833  C9      		RET			; 383F  C9		I
1016:			;
1017:	3834  00      		DEFB	$00					; 3840 .
1018:			;
1019:	3835  00      		NOP			; 3841  00		.
1020:	3836  00      		NOP			; 3842  00		.
1021:	3837  00      		NOP			; 3843  00		.
1022:	3838  00      		NOP			; 3844  00		.
1023:	3839  00      		NOP			; 3845  00		.
1024:	383A  F5      		PUSH	AF		; 3846  F5		u
1025:	383B  78      		LD	A,B		; 3847  78		x
1026:	383C  323938  		LD	(X3839),A	; 3848  32 39 38	298
1027:	383F  F1      		POP	AF		; 384B  F1		q
1028:	3840  C9      		RET			; 384C  C9		I
1029:			;
1030:	3841  E1      		POP	HL		; 384D  E1		a
1031:	3842  011E1D  		LD	BC,X1D1E	; 384E  01 1E 1D	...
1032:	3845  ED42    		SBC	HL,BC		; 3851  ED 42		mB
1033:	3847  CA9719  		JP	Z,X1997		; 3853  CA 97 19	J..
1034:	384A  CDEC0A  		CALL	X0AEC		; 3856  CD EC 0A	Ml.
1035:	384D  215938  		LD	HL,X3865	; 3859  21 65 38	!e8
1036:	3850  111D41  		LD	DE,X411D	; 385C  11 1D 41	..A
1037:	3853  CDD209  		CALL	X09D2		; 385F  CD D2 09	MR.
1038:	3856  2A3E30  		LD	HL,(X303E)	; 3862  2A 3E 30	*>0
1039:	3859  D7      	X3865:	RST	10H		; 3865  D7		W
1040:	385A  C9      		RET			; 3866  C9		I
1041:			;
1042:	385B  37      		SCF			; 3867  37		7
1043:	385C  A2      		AND	D		; 3868  A2		"
1044:	385D  DA0F49  		JP	C,X490F		; 3869  DA 0F 49	Z.I
1045:	3860  82      		ADD	A,D		; 386C  82		.
1046:	3861  E5      		PUSH	HL		; 386D  E5		e
1047:	3862  213D30  		LD	HL,X303D	; 386E  21 3D 30	!=0
1048:	3865  CB46    		BIT	0,(HL)		; 3871  CB 46		KF
1049:	3867  2808    		JR	Z,X387D		; 3873  28 08		(.
1050:	3869  CB56    		BIT	2,(HL)		; 3875  CB 56		KV
1051:	386B  2004    		JR	NZ,X387D	; 3877  20 04		 .
1052:	386D  D38F    		OUT	($8F),A		; 3879  D3 8F		S.
1053:	386F  CBD6    		SET	2,(HL)		; 387B  CB D6		KV
1054:	3871  E1      	X387D:	POP	HL		; 387D  E1		a
1055:	3872  C3C234  		JP	X34C2		; 387E  C3 C2 34	CB4
1056:			;
1057:	3875  E5      		PUSH	HL		; 3881  E5		e
1058:	3876  213D30  		LD	HL,X303D	; 3882  21 3D 30	!=0
1059:	3879  CB96    		RES	2,(HL)		; 3885  CB 96		K.
1060:	387B  E1      		POP	HL		; 3887  E1		a
1061:	387C  C3781D  		JP	X1D78		; 3888  C3 78 1D	Cx.
1062:			;
1063:	387F  22F340  		LD	(X40F3),HL	; 388B  22 F3 40	"s@
1064:	3882  D1      		POP	DE		; 388E  D1		Q
1065:	3883  E3      		EX	(SP),HL		; 388F  E3		c
1066:	3884  23      		INC	HL		; 3890  23		#
1067:	3885  23      		INC	HL		; 3891  23		#
1068:	3886  23      		INC	HL		; 3892  23		#
1069:	3887  E3      		EX	(SP),HL		; 3893  E3		c
1070:	3888  D5      		PUSH	DE		; 3894  D5		U
1071:	3889  C3DA29  		JP	X29DA		; 3895  C3 DA 29	CZ)
1072:			;
1073:	388C  2A3E30  		LD	HL,(X303E)	; 3898  2A 3E 30	*>0
1074:	388F  C32503  		JP	X0325		; 389B  C3 25 03	C%.
1075:			;
1076:	3892  2A3E30  		LD	HL,(X303E)	; 389E  2A 3E 30	*>0
1077:	3895  D7      		RST	10H		; 38A1  D7		W
1078:	3896  E5      		PUSH	HL		; 38A2  E5		e
1079:	3897  CD0D26  		CALL	X260D		; 38A3  CD 0D 26	M.&
1080:	389A  CF      		RST	8		; 38A6  CF		O
1081:	389B  2C      		INC	L		; 38A7  2C		,
1082:	389C  E7      		RST	20H		; 38A8  E7		g
1083:	389D  D5      		PUSH	DE		; 38A9  D5		U
1084:	389E  08      		EX	AF,AF'		; 38AA  08		.
1085:	389F  CD0D26  		CALL	X260D		; 38AB  CD 0D 26	M.&
1086:	38A2  CF      		RST	8		; 38AE  CF		O
1087:	38A3  29      		ADD	HL,HL		; 38AF  29		)
1088:	38A4  E7      		RST	20H		; 38B0  E7		g
1089:	38A5  0600    		LD	B,$00		; 38B1  06 00		..
1090:	38A7  2001    		JR	NZ,X38B6	; 38B3  20 01		 .
1091:	38A9  04      		INC	B		; 38B5  04		.
1092:	38AA  08      	X38B6:	EX	AF,AF'		; 38B6  08		.
1093:	38AB  2001    		JR	NZ,X38BA	; 38B7  20 01		 .
1094:	38AD  04      		INC	B		; 38B9  04		.
1095:	38AE  78      	X38BA:	LD	A,B		; 38BA  78		x
1096:	38AF  FE01    		CP	$01		; 38BB  FE 01		~.
1097:	38B1  CA4A1E  		JP	Z,X1E4A		; 38BD  CA 4A 1E	JJ.
1098:	38B4  B7      		OR	A		; 38C0  B7		7
1099:	38B5  281C    		JR	Z,X38DF		; 38C1  28 1C		(.
1100:	38B7  C1      		POP	BC		; 38C3  C1		A
1101:	38B8  E3      		EX	(SP),HL		; 38C4  E3		c
1102:	38B9  EB      		EX	DE,HL		; 38C5  EB		k
1103:	38BA  C5      		PUSH	BC		; 38C6  C5		E
1104:	38BB  56      		LD	D,(HL)		; 38C7  56		V
1105:	38BC  23      		INC	HL		; 38C8  23		#
1106:	38BD  4E      		LD	C,(HL)		; 38C9  4E		N
1107:	38BE  23      		INC	HL		; 38CA  23		#
1108:	38BF  46      		LD	B,(HL)		; 38CB  46		F
1109:	38C0  2B      		DEC	HL		; 38CC  2B		+
1110:	38C1  2B      		DEC	HL		; 38CD  2B		+
1111:	38C2  E3      		EX	(SP),HL		; 38CE  E3		c
1112:	38C3  5E      		LD	E,(HL)		; 38CF  5E		^
1113:	38C4  72      		LD	(HL),D		; 38D0  72		r
1114:	38C5  23      		INC	HL		; 38D1  23		#
1115:	38C6  56      		LD	D,(HL)		; 38D2  56		V
1116:	38C7  71      		LD	(HL),C		; 38D3  71		q
1117:	38C8  23      		INC	HL		; 38D4  23		#
1118:	38C9  4E      		LD	C,(HL)		; 38D5  4E		N
1119:	38CA  70      		LD	(HL),B		; 38D6  70		p
1120:	38CB  E1      		POP	HL		; 38D7  E1		a
1121:	38CC  73      		LD	(HL),E		; 38D8  73		s
1122:	38CD  23      		INC	HL		; 38D9  23		#
1123:	38CE  72      		LD	(HL),D		; 38DA  72		r
1124:	38CF  23      		INC	HL		; 38DB  23		#
1125:	38D0  71      		LD	(HL),C		; 38DC  71		q
1126:	38D1  E1      		POP	HL		; 38DD  E1		a
1127:	38D2  C9      		RET			; 38DE  C9		I
1128:			;
1129:	38D3  E1      	X38DF:	POP	HL		; 38DF  E1		a
1130:	38D4  E1      		POP	HL		; 38E0  E1		a
1131:	38D5  E5      		PUSH	HL		; 38E1  E5		e
1132:	38D6  CD0D26  		CALL	X260D		; 38E2  CD 0D 26	M.&
1133:	38D9  11FC3E  		LD	DE,X3EFC	; 38E5  11 FC 3E	.|>
1134:	38DC  D7      		RST	10H		; 38E8  D7		W
1135:	38DD  E5      		PUSH	HL		; 38E9  E5		e
1136:	38DE  CD261F  		CALL	X1F26		; 38EA  CD 26 1F	M&.
1137:	38E1  E1      		POP	HL		; 38ED  E1		a
1138:	38E2  CD0D26  		CALL	X260D		; 38EE  CD 0D 26	M.&
1139:	38E5  D7      		RST	10H		; 38F1  D7		W
1140:	38E6  E3      		EX	(SP),HL		; 38F2  E3		c
1141:	38E7  E5      		PUSH	HL		; 38F3  E5		e
1142:	38E8  CD261F  		CALL	X1F26		; 38F4  CD 26 1F	M&.
1143:	38EB  E1      		POP	HL		; 38F7  E1		a
1144:	38EC  CD0D26  		CALL	X260D		; 38F8  CD 0D 26	M.&
1145:	38EF  E7      		RST	20H		; 38FB  E7		g
1146:	38F0  C603    		ADD	A,$03		; 38FC  C6 03		F.
1147:	38F2  47      		LD	B,A		; 38FE  47		G
1148:	38F3  21FC3E  		LD	HL,X3EFC	; 38FF  21 FC 3E	!|>
1149:	38F6  7E      	X3902:	LD	A,(HL)		; 3902  7E		~
1150:	38F7  12      		LD	(DE),A		; 3903  12		.
1151:	38F8  23      		INC	HL		; 3904  23		#
1152:	38F9  13      		INC	DE		; 3905  13		.
1153:	38FA  10FA    		DJNZ	X3902		; 3906  10 FA		.z
1154:	38FC  E1      		POP	HL		; 3908  E1		a
1155:	38FD  C9      		RET			; 3909  C9		I
1156:			;
1157:	38FE  2A3E30  		LD	HL,(X303E)	; 390A  2A 3E 30	*>0
1158:	3901  FE0B    		CP	$0B		; 390D  FE 0B		~.
1159:	3903  3EEE    		LD	A,$EE		; 390F  3E EE		>n
1160:	3905  2002    		JR	NZ,X3915	; 3911  20 02		 .
1161:	3907  3EAE    		LD	A,$AE		; 3913  3E AE		>.
1162:	3909  F5      	X3915:	PUSH	AF		; 3915  F5		u
1163:	390A  CD3823  		CALL	X2338		; 3916  CD 38 23	M8#
1164:	390D  F1      		POP	AF		; 3919  F1		q
1165:	390E  320000  		LD	(X3953),A	; 391A  32 53 39	2S9
U Undeclared error
1166:	3911  E5      		PUSH	HL		; 391D  E5		e
1167:	3912  CDA839  		CALL	X39B4		; 391E  CD B4 39	M49
1168:	3915  D9      		EXX			; 3921  D9		Y
1169:	3916  AF      		XOR	A		; 3922  AF		/
1170:	3917  B6      		OR	(HL)		; 3923  B6		6
1171:	3918  CA3D3A  		JP	Z,X3A49		; 3924  CA 49 3A	JI:
1172:	391B  4F      		LD	C,A		; 3927  4F		O
1173:	391C  23      		INC	HL		; 3928  23		#
1174:	391D  5E      		LD	E,(HL)		; 3929  5E		^
1175:	391E  23      		INC	HL		; 392A  23		#
1176:	391F  56      		LD	D,(HL)		; 392B  56		V
1177:	3920  0600    		LD	B,$00		; 392C  06 00		..
1178:	3922  21FC3E  		LD	HL,X3EFC	; 392E  21 FC 3E	!|>
1179:	3925  77      		LD	(HL),A		; 3931  77		w
1180:	3926  23      		INC	HL		; 3932  23		#
1181:	3927  23      		INC	HL		; 3933  23		#
1182:	3928  23      		INC	HL		; 3934  23		#
1183:	3929  E5      		PUSH	HL		; 3935  E5		e
1184:	392A  EB      		EX	DE,HL		; 3936  EB		k
1185:	392B  EDB0    		LDIR			; 3937  ED B0		m0
1186:	392D  E1      		POP	HL		; 3939  E1		a
1187:	392E  47      		LD	B,A		; 393A  47		G
1188:	392F  7E      	X393B:	LD	A,(HL)		; 393B  7E		~
1189:	3930  FE7B    		CP	$7B		; 393C  FE 7B		~{
1190:	3932  300C    		JR	NC,X394C	; 393E  30 0C		0.
1191:	3934  FE41    		CP	$41		; 3940  FE 41		~A
1192:	3936  3808    		JR	C,X394C		; 3942  38 08		8.
1193:	3938  FE61    		CP	$61		; 3944  FE 61		~a
1194:	393A  300A    		JR	NC,X3952	; 3946  30 0A		0.
1195:	393C  FE5B    		CP	$5B		; 3948  FE 5B		~[
1196:	393E  3806    		JR	C,X3952		; 394A  38 06		8.
1197:	3940  23      	X394C:	INC	HL		; 394C  23		#
1198:	3941  10EC    		DJNZ	X393B		; 394D  10 EC		.l
1199:	3943  C32F3A  		JP	X3A3B		; 394F  C3 3B 3A	C;:
1200:			;
1201:	3946  CBEE    	X3952:	SET	5,(HL)		; 3952  CB EE		Kn
1202:	3948  18F6    		JR	X394C		; 3954  18 F6		.v
1203:			;
1204:	394A  2A3E30  		LD	HL,(X303E)	; 3956  2A 3E 30	*>0
1205:	394D  F5      		PUSH	AF		; 3959  F5		u
1206:	394E  CD3823  		CALL	X2338		; 395A  CD 38 23	M8#
1207:	3951  F1      		POP	AF		; 395D  F1		q
1208:	3952  08      		EX	AF,AF'		; 395E  08		.
1209:	3953  E5      		PUSH	HL		; 395F  E5		e
1210:	3954  CDA839  		CALL	X39B4		; 3960  CD B4 39	M49
1211:	3957  D9      		EXX			; 3963  D9		Y
1212:	3958  AF      		XOR	A		; 3964  AF		/
1213:	3959  B6      		OR	(HL)		; 3965  B6		6
1214:	395A  4F      		LD	C,A		; 3966  4F		O
1215:	395B  CA3D3A  		JP	Z,X3A49		; 3967  CA 49 3A	JI:
1216:	395E  0600    		LD	B,$00		; 396A  06 00		..
1217:	3960  23      		INC	HL		; 396C  23		#
1218:	3961  5E      		LD	E,(HL)		; 396D  5E		^
1219:	3962  23      		INC	HL		; 396E  23		#
1220:	3963  56      		LD	D,(HL)		; 396F  56		V
1221:	3964  21FC3E  		LD	HL,X3EFC	; 3970  21 FC 3E	!|>
1222:	3967  77      		LD	(HL),A		; 3973  77		w
1223:	3968  23      		INC	HL		; 3974  23		#
1224:	3969  23      		INC	HL		; 3975  23		#
1225:	396A  23      		INC	HL		; 3976  23		#
1226:	396B  EB      		EX	DE,HL		; 3977  EB		k
1227:	396C  08      		EX	AF,AF'		; 3978  08		.
1228:	396D  FE19    		CP	$19		; 3979  FE 19		~.
1229:	396F  2013    		JR	NZ,X3990	; 397B  20 13		 .
1230:	3971  E5      		PUSH	HL		; 397D  E5		e
1231:	3972  09      		ADD	HL,BC		; 397E  09		.
1232:	3973  41      		LD	B,C		; 397F  41		A
1233:	3974  2B      	X3980:	DEC	HL		; 3980  2B		+
1234:	3975  7E      		LD	A,(HL)		; 3981  7E		~
1235:	3976  FE20    		CP	$20		; 3982  FE 20		~ 
1236:	3978  2026    		JR	NZ,X39AC	; 3984  20 26		 &
1237:	397A  E5      		PUSH	HL		; 3986  E5		e
1238:	397B  21FC3E  		LD	HL,X3EFC	; 3987  21 FC 3E	!|>
1239:	397E  35      		DEC	(HL)		; 398A  35		5
1240:	397F  E1      		POP	HL		; 398B  E1		a
1241:	3980  10F2    		DJNZ	X3980		; 398C  10 F2		.r
1242:	3982  181C    		JR	X39AC		; 398E  18 1C		..
1243:			;
1244:	3984  41      	X3990:	LD	B,C		; 3990  41		A
1245:	3985  7E      	X3991:	LD	A,(HL)		; 3991  7E		~
1246:	3986  FE20    		CP	$20		; 3992  FE 20		~ 
1247:	3988  2009    		JR	NZ,X399F	; 3994  20 09		 .
1248:	398A  E5      		PUSH	HL		; 3996  E5		e
1249:	398B  21FC3E  		LD	HL,X3EFC	; 3997  21 FC 3E	!|>
1250:	398E  35      		DEC	(HL)		; 399A  35		5
1251:	398F  E1      		POP	HL		; 399B  E1		a
1252:	3990  23      		INC	HL		; 399C  23		#
1253:	3991  10F2    		DJNZ	X3991		; 399D  10 F2		.r
1254:	3993  AF      	X399F:	XOR	A		; 399F  AF		/
1255:	3994  B0      		OR	B		; 39A0  B0		0
1256:	3995  CA3D3A  		JP	Z,X3A49		; 39A1  CA 49 3A	JI:
1257:	3998  48      		LD	C,B		; 39A4  48		H
1258:	3999  0600    		LD	B,$00		; 39A5  06 00		..
1259:	399B  EDB0    		LDIR			; 39A7  ED B0		m0
1260:	399D  C32F3A  		JP	X3A3B		; 39A9  C3 3B 3A	C;:
1261:			;
1262:	39A0  E1      	X39AC:	POP	HL		; 39AC  E1		a
1263:	39A1  18F0    		JR	X399F		; 39AD  18 F0		.p
1264:			;
1265:	39A3  CD3723  	X39AF:	CALL	X2337		; 39AF  CD 37 23	M7#
1266:	39A6  CF      		RST	8		; 39B2  CF		O
1267:	39A7  2C      		INC	L		; 39B3  2C		,
1268:	39A8  3E03    	X39B4:	LD	A,$03		; 39B4  3E 03		>.
1269:	39AA  CD1928  		CALL	X2819		; 39B6  CD 19 28	M.(
1270:	39AD  D9      		EXX			; 39B9  D9		Y
1271:	39AE  CDD729  		CALL	X29D7		; 39BA  CD D7 29	MW)
1272:	39B1  D9      		EXX			; 39BD  D9		Y
1273:	39B2  C9      		RET			; 39BE  C9		I
1274:			;
1275:	39B3  2A3E30  		LD	HL,(X303E)	; 39BF  2A 3E 30	*>0
1276:	39B6  D7      		RST	10H		; 39C2  D7		W
1277:	39B7  E5      		PUSH	HL		; 39C3  E5		e
1278:	39B8  CDA339  		CALL	X39AF		; 39C4  CD AF 39	M/9
1279:	39BB  E5      		PUSH	HL		; 39C7  E5		e
1280:	39BC  CDA339  		CALL	X39AF		; 39C8  CD AF 39	M/9
1281:	39BF  CD3723  		CALL	X2337		; 39CB  CD 37 23	M7#
1282:	39C2  CDA839  		CALL	X39B4		; 39CE  CD B4 39	M49
1283:	39C5  C1      		POP	BC		; 39D1  C1		A
1284:	39C6  E3      		EX	(SP),HL		; 39D2  E3		c
1285:	39C7  E5      		PUSH	HL		; 39D3  E5		e
1286:	39C8  C5      		PUSH	BC		; 39D4  C5		E
1287:	39C9  D9      		EXX			; 39D5  D9		Y
1288:	39CA  7E      		LD	A,(HL)		; 39D6  7E		~
1289:	39CB  08      		EX	AF,AF'		; 39D7  08		.
1290:	39CC  23      		INC	HL		; 39D8  23		#
1291:	39CD  7E      		LD	A,(HL)		; 39D9  7E		~
1292:	39CE  23      		INC	HL		; 39DA  23		#
1293:	39CF  66      		LD	H,(HL)		; 39DB  66		f
1294:	39D0  6F      		LD	L,A		; 39DC  6F		o
1295:	39D1  D1      		POP	DE		; 39DD  D1		Q
1296:	39D2  E3      		EX	(SP),HL		; 39DE  E3		c
1297:	39D3  08      		EX	AF,AF'		; 39DF  08		.
1298:	39D4  F5      		PUSH	AF		; 39E0  F5		u
1299:	39D5  E5      		PUSH	HL		; 39E1  E5		e
1300:	39D6  EB      		EX	DE,HL		; 39E2  EB		k
1301:	39D7  CDA339  		CALL	X39AF		; 39E3  CD AF 39	M/9
1302:	39DA  D9      		EXX			; 39E6  D9		Y
1303:	39DB  4E      		LD	C,(HL)		; 39E7  4E		N
1304:	39DC  23      		INC	HL		; 39E8  23		#
1305:	39DD  7E      		LD	A,(HL)		; 39E9  7E		~
1306:	39DE  23      		INC	HL		; 39EA  23		#
1307:	39DF  66      		LD	H,(HL)		; 39EB  66		f
1308:	39E0  6F      		LD	L,A		; 39EC  6F		o
1309:	39E1  D1      		POP	DE		; 39ED  D1		Q
1310:	39E2  E5      		PUSH	HL		; 39EE  E5		e
1311:	39E3  C5      		PUSH	BC		; 39EF  C5		E
1312:	39E4  EB      		EX	DE,HL		; 39F0  EB		k
1313:	39E5  CDA339  		CALL	X39AF		; 39F1  CD AF 39	M/9
1314:	39E8  D9      		EXX			; 39F4  D9		Y
1315:	39E9  7E      		LD	A,(HL)		; 39F5  7E		~
1316:	39EA  B7      		OR	A		; 39F6  B7		7
1317:	39EB  CA7F3A  		JP	Z,X3A8B		; 39F7  CA 8B 3A	J.:
1318:	39EE  C1      		POP	BC		; 39FA  C1		A
1319:	39EF  47      		LD	B,A		; 39FB  47		G
1320:	39F0  C5      		PUSH	BC		; 39FC  C5		E
1321:	39F1  4F      		LD	C,A		; 39FD  4F		O
1322:	39F2  0600    		LD	B,$00		; 39FE  06 00		..
1323:	39F4  23      		INC	HL		; 3A00  23		#
1324:	39F5  5E      		LD	E,(HL)		; 3A01  5E		^
1325:	39F6  23      		INC	HL		; 3A02  23		#
1326:	39F7  56      		LD	D,(HL)		; 3A03  56		V
1327:	39F8  21FC3E  		LD	HL,X3EFC	; 3A04  21 FC 3E	!|>
1328:	39FB  77      		LD	(HL),A		; 3A07  77		w
1329:	39FC  23      		INC	HL		; 3A08  23		#
1330:	39FD  23      		INC	HL		; 3A09  23		#
1331:	39FE  23      		INC	HL		; 3A0A  23		#
1332:	39FF  E5      		PUSH	HL		; 3A0B  E5		e
1333:	3A00  EB      		EX	DE,HL		; 3A0C  EB		k
1334:	3A01  EDB0    		LDIR			; 3A0D  ED B0		m0
1335:	3A03  E1      		POP	HL		; 3A0F  E1		a
1336:	3A04  C1      		POP	BC		; 3A10  C1		A
1337:	3A05  D1      		POP	DE		; 3A11  D1		Q
1338:	3A06  F1      		POP	AF		; 3A12  F1		q
1339:	3A07  D9      		EXX			; 3A13  D9		Y
1340:	3A08  E1      		POP	HL		; 3A14  E1		a
1341:	3A09  0600    		LD	B,$00		; 3A15  06 00		..
1342:	3A0B  4F      		LD	C,A		; 3A17  4F		O
1343:	3A0C  09      		ADD	HL,BC		; 3A18  09		.
1344:	3A0D  EB      		EX	DE,HL		; 3A19  EB		k
1345:	3A0E  D9      		EXX			; 3A1A  D9		Y
1346:	3A0F  C5      		PUSH	BC		; 3A1B  C5		E
1347:	3A10  E5      		PUSH	HL		; 3A1C  E5		e
1348:	3A11  D9      		EXX			; 3A1D  D9		Y
1349:	3A12  E1      		POP	HL		; 3A1E  E1		a
1350:	3A13  C1      		POP	BC		; 3A1F  C1		A
1351:	3A14  D9      		EXX			; 3A20  D9		Y
1352:	3A15  08      		EX	AF,AF'		; 3A21  08		.
1353:	3A16  79      		LD	A,C		; 3A22  79		y
1354:	3A17  B7      		OR	A		; 3A23  B7		7
1355:	3A18  2815    		JR	Z,X3A3B		; 3A24  28 15		(.
1356:	3A1A  C5      	X3A26:	PUSH	BC		; 3A26  C5		E
1357:	3A1B  E5      		PUSH	HL		; 3A27  E5		e
1358:	3A1C  1A      		LD	A,(DE)		; 3A28  1A		.
1359:	3A1D  BE      	X3A29:	CP	(HL)		; 3A29  BE		>
1360:	3A1E  2824    		JR	Z,X3A50		; 3A2A  28 24		($
1361:	3A20  23      	X3A2C:	INC	HL		; 3A2C  23		#
1362:	3A21  10FA    	X3A2D:	DJNZ	X3A29		; 3A2D  10 FA		.z
1363:	3A23  E1      		POP	HL		; 3A2F  E1		a
1364:	3A24  C1      		POP	BC		; 3A30  C1		A
1365:	3A25  0D      		DEC	C		; 3A31  0D		.
1366:	3A26  08      		EX	AF,AF'		; 3A32  08		.
1367:	3A27  B7      		OR	A		; 3A33  B7		7
1368:	3A28  2801    		JR	Z,X3A37		; 3A34  28 01		(.
1369:	3A2A  3D      		DEC	A		; 3A36  3D		=
1370:	3A2B  08      	X3A37:	EX	AF,AF'		; 3A37  08		.
1371:	3A2C  13      		INC	DE		; 3A38  13		.
1372:	3A2D  20EB    		JR	NZ,X3A26	; 3A39  20 EB		 k
1373:	3A2F  21FC3E  	X3A3B:	LD	HL,X3EFC	; 3A3B  21 FC 3E	!|>
1374:	3A32  222141  	X3A3E:	LD	(X4121),HL	; 3A3E  22 21 41	"!A
1375:	3A35  23      		INC	HL		; 3A41  23		#
1376:	3A36  36FF    		LD	(HL),$FF	; 3A42  36 FF		6.
1377:	3A38  23      		INC	HL		; 3A44  23		#
1378:	3A39  363E    		LD	(HL),$3E	; 3A45  36 3E		6>
1379:	3A3B  E1      		POP	HL		; 3A47  E1		a
1380:	3A3C  C9      		RET			; 3A48  C9		I
1381:			;
1382:	3A3D  21FC3E  	X3A49:	LD	HL,X3EFC	; 3A49  21 FC 3E	!|>
1383:	3A40  3600    		LD	(HL),$00	; 3A4C  36 00		6.
1384:	3A42  18EE    		JR	X3A3E		; 3A4E  18 EE		.n
1385:			;
1386:	3A44  08      	X3A50:	EX	AF,AF'		; 3A50  08		.
1387:	3A45  F5      		PUSH	AF		; 3A51  F5		u
1388:	3A46  08      		EX	AF,AF'		; 3A52  08		.
1389:	3A47  F1      		POP	AF		; 3A53  F1		q
1390:	3A48  B7      		OR	A		; 3A54  B7		7
1391:	3A49  280D    		JR	Z,X3A64		; 3A55  28 0D		(.
1392:	3A4B  D9      		EXX			; 3A57  D9		Y
1393:	3A4C  D5      		PUSH	DE		; 3A58  D5		U
1394:	3A4D  ED44    		NEG			; 3A59  ED 44		mD
1395:	3A4F  83      		ADD	A,E		; 3A5B  83		.
1396:	3A50  5F      		LD	E,A		; 3A5C  5F		_
1397:	3A51  1A      		LD	A,(DE)		; 3A5D  1A		.
1398:	3A52  D1      		POP	DE		; 3A5E  D1		Q
1399:	3A53  D9      		EXX			; 3A5F  D9		Y
1400:	3A54  77      		LD	(HL),A		; 3A60  77		w
1401:	3A55  1A      		LD	A,(DE)		; 3A61  1A		.
1402:	3A56  18C8    		JR	X3A2C		; 3A62  18 C8		.H
1403:			;
1404:	3A58  E5      	X3A64:	PUSH	HL		; 3A64  E5		e
1405:	3A59  21FC3E  		LD	HL,X3EFC	; 3A65  21 FC 3E	!|>
1406:	3A5C  35      		DEC	(HL)		; 3A68  35		5
1407:	3A5D  E1      		POP	HL		; 3A69  E1		a
1408:	3A5E  2004    		JR	NZ,X3A70	; 3A6A  20 04		 .
1409:	3A60  E1      		POP	HL		; 3A6C  E1		a
1410:	3A61  E1      		POP	HL		; 3A6D  E1		a
1411:	3A62  18CB    		JR	X3A3B		; 3A6E  18 CB		.K
1412:			;
1413:	3A64  C5      	X3A70:	PUSH	BC		; 3A70  C5		E
1414:	3A65  05      		DEC	B		; 3A71  05		.
1415:	3A66  D5      		PUSH	DE		; 3A72  D5		U
1416:	3A67  E5      		PUSH	HL		; 3A73  E5		e
1417:	3A68  280B    		JR	Z,X3A81		; 3A74  28 0B		(.
1418:	3A6A  54      		LD	D,H		; 3A76  54		T
1419:	3A6B  5D      		LD	E,L		; 3A77  5D		]
1420:	3A6C  48      		LD	C,B		; 3A78  48		H
1421:	3A6D  0600    		LD	B,$00		; 3A79  06 00		..
1422:	3A6F  23      		INC	HL		; 3A7B  23		#
1423:	3A70  EDB0    		LDIR			; 3A7C  ED B0		m0
1424:	3A72  E1      		POP	HL		; 3A7E  E1		a
1425:	3A73  D1      		POP	DE		; 3A7F  D1		Q
1426:	3A74  C1      		POP	BC		; 3A80  C1		A
1427:	3A75  D9      	X3A81:	EXX			; 3A81  D9		Y
1428:	3A76  E1      		POP	HL		; 3A82  E1		a
1429:	3A77  C1      		POP	BC		; 3A83  C1		A
1430:	3A78  05      		DEC	B		; 3A84  05		.
1431:	3A79  C5      		PUSH	BC		; 3A85  C5		E
1432:	3A7A  E5      		PUSH	HL		; 3A86  E5		e
1433:	3A7B  D9      		EXX			; 3A87  D9		Y
1434:	3A7C  1A      		LD	A,(DE)		; 3A88  1A		.
1435:	3A7D  18A2    		JR	X3A2D		; 3A89  18 A2		."
1436:			;
1437:	3A7F  E1      	X3A8B:	POP	HL		; 3A8B  E1		a
1438:	3A80  E1      		POP	HL		; 3A8C  E1		a
1439:	3A81  E1      		POP	HL		; 3A8D  E1		a
1440:	3A82  E1      		POP	HL		; 3A8E  E1		a
1441:	3A83  18B8    		JR	X3A49		; 3A8F  18 B8		.8
1442:			;
1443:	3A85  2A3E30  		LD	HL,(X303E)	; 3A91  2A 3E 30	*>0
1444:	3A88  F5      		PUSH	AF		; 3A94  F5		u
1445:	3A89  D7      		RST	10H		; 3A95  D7		W
1446:	3A8A  CDA339  		CALL	X39AF		; 3A96  CD AF 39	M/9
1447:	3A8D  2B      		DEC	HL		; 3A99  2B		+
1448:	3A8E  CD1B2B  		CALL	X2B1B		; 3A9A  CD 1B 2B	M.+
1449:	3A91  D9      		EXX			; 3A9D  D9		Y
1450:	3A92  3E03    		LD	A,$03		; 3A9E  3E 03		>.
1451:	3A94  32AF40  		LD	(X40AF),A	; 3AA0  32 AF 40	2/@
1452:	3A97  7E      		LD	A,(HL)		; 3AA3  7E		~
1453:	3A98  B7      		OR	A		; 3AA4  B7		7
1454:	3A99  D9      		EXX			; 3AA5  D9		Y
1455:	3A9A  E3      		EX	(SP),HL		; 3AA6  E3		c
1456:	3A9B  280A    		JR	Z,X3AB3		; 3AA7  28 0A		(.
1457:	3A9D  93      		SUB	E		; 3AA9  93		.
1458:	3A9E  389D    		JR	C,X3A49		; 3AAA  38 9D		8.
1459:	3AA0  289B    		JR	Z,X3A49		; 3AAC  28 9B		(.
1460:	3AA2  E5      		PUSH	HL		; 3AAE  E5		e
1461:	3AA3  D9      		EXX			; 3AAF  D9		Y
1462:	3AA4  0600    		LD	B,$00		; 3AB0  06 00		..
1463:	3AA6  4E      		LD	C,(HL)		; 3AB2  4E		N
1464:	3AA7  11FC3E  	X3AB3:	LD	DE,X3EFC	; 3AB3  11 FC 3E	.|>
1465:	3AAA  12      		LD	(DE),A		; 3AB6  12		.
1466:	3AAB  08      		EX	AF,AF'		; 3AB7  08		.
1467:	3AAC  23      		INC	HL		; 3AB8  23		#
1468:	3AAD  7E      		LD	A,(HL)		; 3AB9  7E		~
1469:	3AAE  23      		INC	HL		; 3ABA  23		#
1470:	3AAF  66      		LD	H,(HL)		; 3ABB  66		f
1471:	3AB0  6F      		LD	L,A		; 3ABC  6F		o
1472:	3AB1  13      		INC	DE		; 3ABD  13		.
1473:	3AB2  13      		INC	DE		; 3ABE  13		.
1474:	3AB3  13      		INC	DE		; 3ABF  13		.
1475:	3AB4  D5      		PUSH	DE		; 3AC0  D5		U
1476:	3AB5  EDB0    		LDIR			; 3AC1  ED B0		m0
1477:	3AB7  E1      		POP	HL		; 3AC3  E1		a
1478:	3AB8  F1      		POP	AF		; 3AC4  F1		q
1479:	3AB9  FE17    		CP	$17		; 3AC5  FE 17		~.
1480:	3ABB  CA2F3A  		JP	Z,X3A3B		; 3AC7  CA 3B 3A	J;:
1481:	3ABE  D9      		EXX			; 3ACA  D9		Y
1482:	3ABF  7B      		LD	A,E		; 3ACB  7B		{
1483:	3AC0  D9      		EXX			; 3ACC  D9		Y
1484:	3AC1  4F      		LD	C,A		; 3ACD  4F		O
1485:	3AC2  0600    		LD	B,$00		; 3ACE  06 00		..
1486:	3AC4  54      		LD	D,H		; 3AD0  54		T
1487:	3AC5  5D      		LD	E,L		; 3AD1  5D		]
1488:	3AC6  09      		ADD	HL,BC		; 3AD2  09		.
1489:	3AC7  08      		EX	AF,AF'		; 3AD3  08		.
1490:	3AC8  4F      		LD	C,A		; 3AD4  4F		O
1491:	3AC9  EDB0    		LDIR			; 3AD5  ED B0		m0
1492:	3ACB  C32F3A  		JP	X3A3B		; 3AD7  C3 3B 3A	C;:
1493:			;
1494:	3ACE  CD3644  		CALL	X4436		; 3ADA  CD 36 44	M6D
1495:	3AD1  2804    		JR	Z,X3AE3		; 3ADD  28 04		(.
1496:	3AD3  FE06    		CP	$06		; 3ADF  FE 06		~.
1497:	3AD5  2038    		JR	NZ,X3B1B	; 3AE1  20 38		 8
1498:	3AD7  D9      	X3AE3:	EXX			; 3AE3  D9		Y
1499:	3AD8  214F00  		LD	HL,X004F	; 3AE4  21 4F 00	!O.
1500:	3ADB  E5      		PUSH	HL		; 3AE7  E5		e
1501:	3ADC  CB46    		BIT	0,(HL)		; 3AE8  CB 46		KF
1502:	3ADE  C40F3B  		CALL	NZ,X3B1B	; 3AEA  C4 1B 3B	D.;
1503:	3AE1  E1      		POP	HL		; 3AED  E1		a
1504:	3AE2  D9      		EXX			; 3AEE  D9		Y
1505:	3AE3  B7      		OR	A		; 3AEF  B7		7
1506:	3AE4  C8      		RET	Z		; 3AF0  C8		H
1507:	3AE5  D9      		EXX			; 3AF1  D9		Y
1508:	3AE6  AF      		XOR	A		; 3AF2  AF		/
1509:	3AE7  3A0943  		LD	A,(X4309)	; 3AF3  3A 09 43	:.C
1510:	3AEA  1F      		RRA			; 3AF6  1F		.
1511:	3AEB  32343B  		LD	(X3B40),A	; 3AF7  32 40 3B	2@;
1512:	3AEE  3601    		LD	(HL),$01	; 3AFA  36 01		6.
1513:	3AF0  E5      		PUSH	HL		; 3AFC  E5		e
1514:	3AF1  212E3B  		LD	HL,X3B3A	; 3AFD  21 3A 3B	!:;
1515:	3AF4  019001  		LD	BC,X0190	; 3B00  01 90 01	...
1516:	3AF7  54      		LD	D,H		; 3B03  54		T
1517:	3AF8  5D      		LD	E,L		; 3B04  5D		]
1518:	3AF9  CD4244  		CALL	X4442		; 3B05  CD 42 44	MBD
1519:	3AFC  CD3644  		CALL	X4436		; 3B08  CD 36 44	M6D
1520:	3AFF  E1      		POP	HL		; 3B0B  E1		a
1521:	3B00  2021    		JR	NZ,X3B2F	; 3B0C  20 21		 !
1522:	3B02  D9      		EXX			; 3B0E  D9		Y
1523:	3B03  DDE5    		PUSH	IX		; 3B0F  DD E5		]e
1524:	3B05  D5      		PUSH	DE		; 3B11  D5		U
1525:	3B06  DDE1    		POP	IX		; 3B12  DD E1		]a
1526:	3B08  DD340A  		INC	(IX+$0A)	; 3B14  DD 34 0A	]4.
1527:	3B0B  DDE1    		POP	IX		; 3B17  DD E1		]a
1528:	3B0D  AF      		XOR	A		; 3B19  AF		/
1529:	3B0E  C9      		RET			; 3B1A  C9		I
1530:			;
1531:	3B0F  08      	X3B1B:	EX	AF,AF'		; 3B1B  08		.
1532:	3B10  3EC9    		LD	A,$C9		; 3B1C  3E C9		>I
1533:	3B12  32801B  		LD	(X1B80),A	; 3B1E  32 80 1B	2..
1534:	3B15  CD4D1B  		CALL	X1B4D		; 3B21  CD 4D 1B	MM.
1535:	3B18  3ECD    		LD	A,$CD		; 3B24  3E CD		>M
1536:	3B1A  32801B  		LD	(X1B80),A	; 3B26  32 80 1B	2..
1537:	3B1D  AF      		XOR	A		; 3B29  AF		/
1538:	3B1E  324F00  		LD	(X004F),A	; 3B2A  32 4F 00	2O.
1539:	3B21  08      		EX	AF,AF'		; 3B2D  08		.
1540:	3B22  C9      		RET			; 3B2E  C9		I
1541:			;
1542:	3B23  3600    	X3B2F:	LD	(HL),$00	; 3B2F  36 00		6.
1543:	3B25  E1      		POP	HL		; 3B31  E1		a
1544:	3B26  D9      		EXX			; 3B32  D9		Y
1545:	3B27  CD0F3B  		CALL	X3B1B		; 3B33  CD 1B 3B	M.;
1546:	3B2A  3E06    		LD	A,$06		; 3B36  3E 06		>.
1547:	3B2C  B7      		OR	A		; 3B38  B7		7
1548:	3B2D  C9      		RET			; 3B39  C9		I
1549:			;
1550:	3B2E  80      	X3B3A:	ADD	A,B		; 3B3A  80		.
1551:	3B2F  40      		LD	B,B		; 3B3B  40		@
1552:	3B30  00      		NOP			; 3B3C  00		.
1553:	3B31  FC3E00  		CALL	M,X003E		; 3B3D  FC 3E 00	|>.
1554:	3B34  00      	X3B40:	NOP			; 3B40  00		.
1555:	3B35  08      		EX	AF,AF'		; 3B41  08		.
1556:	3B36  00      		NOP			; 3B42  00		.
1557:	3B37  00      		NOP			; 3B43  00		.
1558:	3B38  90      		SUB	B		; 3B44  90		.
1559:	3B39  012003  		LD	BC,X0320	; 3B45  01 20 03	. .
1560:	3B3C  00      		NOP			; 3B48  00		.
1561:	3B3D  1F      		RRA			; 3B49  1F		.
1562:	3B3E  40      		LD	B,B		; 3B4A  40		@
1563:	3B3F  00      		NOP			; 3B4B  00		.
1564:	3B40          		JR	NZ,X3B6D	; 3B4C  20 1F		 .
V Value error
1565:	3B40  2000    		JR	NZ,X3B50	; 3B4E  20 00		 .
1566:	3B42          	X3B50:	DJNZ	X3B71		; 3B50  10 1F		..
V Value error
1567:	3B42  60      		LD	H,B		; 3B52  60		`
1568:	3B43  00      		NOP			; 3B53  00		.
1569:	3B44  3000    		JR	NC,X3B56	; 3B54  30 00		0.
1570:	3B46  00      	X3B56:	NOP			; 3B56  00		.
1571:	3B47  00      		NOP			; 3B57  00		.
1572:	3B48  00      		NOP			; 3B58  00		.
1573:	3B49  00      		NOP			; 3B59  00		.
1574:	3B4A  00      		NOP			; 3B5A  00		.
1575:	3B4B  00      		NOP			; 3B5B  00		.
1576:	3B4C  00      		NOP			; 3B5C  00		.
1577:	3B4D  00      		NOP			; 3B5D  00		.
1578:	3B4E  00      		NOP			; 3B5E  00		.
1579:	3B4F  00      		NOP			; 3B5F  00		.
1580:	3B50  00      		NOP			; 3B60  00		.
1581:	3B51  00      		NOP			; 3B61  00		.
1582:	3B52  00      		NOP			; 3B62  00		.
1583:	3B53  00      		NOP			; 3B63  00		.
1584:	3B54  00      		NOP			; 3B64  00		.
1585:	3B55  C1      		POP	BC		; 3B65  C1		A
1586:	3B56  212F25  		LD	HL,X252F	; 3B66  21 2F 25	!/%
1587:	3B59  ED42    		SBC	HL,BC		; 3B69  ED 42		mB
1588:	3B5B  C29719  		JP	NZ,X1997	; 3B6B  C2 97 19	B..
1589:	3B5E  AF      		XOR	A		; 3B6E  AF		/
1590:	3B5F  32983B  		LD	(X3B98),A	; 3B6F  32 98 3B	2.;
1591:	3B62  3C      		INC	A		; 3B72  3C		<
1592:	3B63  32823B  		LD	(X3B82),A	; 3B73  32 82 3B	2.;
1593:	3B66  2A3E30  		LD	HL,(X303E)	; 3B76  2A 3E 30	*>0
1594:	3B69  D7      		RST	10H		; 3B79  D7		W
1595:	3B6A  E5      		PUSH	HL		; 3B7A  E5		e
1596:	3B6B  11773B  	X3B7B:	LD	DE,X3B87	; 3B7B  11 87 3B	..;
1597:	3B6E  E1      		POP	HL		; 3B7E  E1		a
1598:	3B6F  E5      		PUSH	HL		; 3B7F  E5		e
1599:	3B70  D5      		PUSH	DE		; 3B80  D5		U
1600:	3B71  3E01    		LD	A,$01		; 3B81  3E 01		>.
1601:	3B73  F5      		PUSH	AF		; 3B83  F5		u
1602:	3B74  C34458  		JP	X5844		; 3B84  C3 44 58	CDX
1603:			;
1604:	3B77  3A2141  	X3B87:	LD	A,(X4121)	; 3B87  3A 21 41	:!A
1605:	3B7A  B7      		OR	A		; 3B8A  B7		7
1606:	3B7B  280A    		JR	Z,X3B97		; 3B8B  28 0A		(.
1607:	3B7D  3C      		INC	A		; 3B8D  3C		<
1608:	3B7E  32823B  		LD	(X3B82),A	; 3B8E  32 82 3B	2.;
1609:	3B81  21983B  		LD	HL,X3B98	; 3B91  21 98 3B	!.;
1610:	3B84  34      		INC	(HL)		; 3B94  34		4
1611:	3B85  18E4    		JR	X3B7B		; 3B95  18 E4		.d
1612:			;
1613:	3B87  3E00    	X3B97:	LD	A,$00		; 3B97  3E 00		>.
1614:	3B89  322141  		LD	(X4121),A	; 3B99  32 21 41	2!A
1615:	3B8C  E3      		EX	(SP),HL		; 3B9C  E3		c
1616:	3B8D  E1      		POP	HL		; 3B9D  E1		a
1617:	3B8E  C9      		RET			; 3B9E  C9		I
1618:			;
1619:	3B8F  2A3E30  		LD	HL,(X303E)	; 3B9F  2A 3E 30	*>0
1620:	3B92  23      		INC	HL		; 3BA2  23		#
1621:	3B93  223E30  		LD	(X303E),HL	; 3BA3  22 3E 30	">0
1622:	3B96  CF      		RST	8		; 3BA6  CF		O
1623:	3B97  D328    		OUT	($28),A		; 3BA7  D3 28		S(
1624:	3B99  1C      		INC	E		; 3BA9  1C		.
1625:	3B9A  CD052C  		CALL	X2C05		; 3BAA  CD 05 2C	M.,
1626:	3B9D  2F      		CPL			; 3BAD  2F		/
1627:	3B9E  C6D7    		ADD	A,$D7		; 3BAE  C6 D7		FW
1628:	3BA0  320000  	X3BB0:	LD	(X3BB8),A	; 3BB0  32 B8 3B	28;
U Undeclared error
1629:	3BA3  D9      		EXX			; 3BB3  D9		Y
1630:	3BA4  213B30  		LD	HL,X303B	; 3BB4  21 3B 30	!;0
1631:	3BA7  CB96    		RES	2,(HL)		; 3BB7  CB 96		K.
1632:	3BA9  7E      		LD	A,(HL)		; 3BB9  7E		~
1633:	3BAA  CB57    		BIT	2,A		; 3BBA  CB 57		KW
1634:	3BAC  F5      		PUSH	AF		; 3BBC  F5		u
1635:	3BAD  C48BF0  		CALL	NZ,XF08B	; 3BBD  C4 8B F0	D.p
1636:	3BB0  F1      		POP	AF		; 3BC0  F1		q
1637:	3BB1  CC7EF0  		CALL	Z,XF07E		; 3BC1  CC 7E F0	L~p
1638:	3BB4  D9      		EXX			; 3BC4  D9		Y
1639:	3BB5  C9      		RET			; 3BC5  C9		I
1640:			;
1641:	3BB6  3ED6    		LD	A,$D6		; 3BC6  3E D6		>V
1642:	3BB8  18E6    		JR	X3BB0		; 3BC8  18 E6		.f
1643:			;
1644:	3BBA  AF      	X3BCA:	XOR	A		; 3BCA  AF		/
1645:	3BBB  ED42    	X3BCB:	SBC	HL,BC		; 3BCB  ED 42		mB
1646:	3BBD  3C      		INC	A		; 3BCD  3C		<
1647:	3BBE  30FB    		JR	NC,X3BCB	; 3BCE  30 FB		0{
1648:	3BC0  3D      		DEC	A		; 3BD0  3D		=
1649:	3BC1  09      		ADD	HL,BC		; 3BD1  09		.
1650:	3BC2  C9      		RET			; 3BD2  C9		I
1651:			;
1652:	3BC3  7B      		LD	A,E		; 3BD3  7B		{
1653:	3BC4  328301  		LD	(X0183),A	; 3BD4  32 83 01	2..
1654:	3BC7  78      		LD	A,B		; 3BD7  78		x
1655:	3BC8  32203C  		LD	(X3C20),A	; 3BD8  32 20 3C	2 <
1656:	3BCB  79      		LD	A,C		; 3BDB  79		y
1657:	3BCC  32283C  		LD	(X3C28),A	; 3BDC  32 28 3C	2(<
1658:	3BCF  D9      		EXX			; 3BDF  D9		Y
1659:	3BD0  00      		NOP			; 3BE0  00		.
1660:	3BD1  00      		NOP			; 3BE1  00		.
1661:	3BD2  00      		NOP			; 3BE2  00		.
1662:	3BD3  00      		NOP			; 3BE3  00		.
1663:	3BD4  00      		NOP			; 3BE4  00		.
1664:	3BD5  08      		EX	AF,AF'		; 3BE5  08		.
1665:	3BD6  F3      		DI			; 3BE6  F3		s
1666:	3BD7  ED730E3C		LD	(X3C0E),SP	; 3BE7  ED 73 0E 3C	ms.<
1667:	3BDB  FEDD    		CP	$DD		; 3BEB  FE DD		~]
1668:	3BDD  CA103D  		JP	Z,X3D20		; 3BED  CA 20 3D	J =
1669:	3BE0  FE9C    		CP	$9C		; 3BF0  FE 9C		~.
1670:	3BE2  2821    		JR	Z,X3C15		; 3BF2  28 21		(!
1671:	3BE4  FE28    		CP	$28		; 3BF4  FE 28		~(
1672:	3BE6  CA083E  		JP	Z,X3E18		; 3BF6  CA 18 3E	J.>
1673:	3BE9  CD7D01  		CALL	X017D		; 3BF9  CD 7D 01	M}.
1674:	3BEC  ED43113D		LD	(X3D11),BC	; 3BFC  ED 43 11 3D	mC.=
1675:	3BF0  ED53FE3C		LD	(X3D0E),DE	; 3C00  ED 53 0E 3D	mS.=
1676:	3BF4  22113C  		LD	(X3C11),HL	; 3C04  22 11 3C	".<
1677:	3BF7  CD0D3C  		CALL	X3C1D		; 3C07  CD 1D 3C	M.<
1678:	3BFA  CDEE4C  	X3C0A:	CALL	X4CEE		; 3C0A  CD EE 4C	MnL
1679:	3BFD  31BFDF  	X3C0D:	LD	SP,XDFBF	; 3C0D  31 BF DF	1?_
1680:	3C00  210000  		LD	HL,X0000	; 3C10  21 00 00	!..
1681:	3C03  FB      		EI			; 3C13  FB		{
1682:	3C04  C9      		RET			; 3C14  C9		I
1683:			;
1684:	3C05  CDE73C  	X3C15:	CALL	X3CF7		; 3C15  CD F7 3C	Mw<
1685:	3C08  CD503D  	X3C18:	CALL	X3D60		; 3C18  CD 60 3D	M`=
1686:	3C0B  18ED    		JR	X3C0A		; 3C1B  18 ED		.m
1687:			;
1688:	3C0D  C5      	X3C1D:	PUSH	BC		; 3C1D  C5		E
1689:	3C0E  EB      		EX	DE,HL		; 3C1E  EB		k
1690:	3C0F  010200  		LD	BC,X0002	; 3C1F  01 02 00	...
1691:	3C12  CDBA3B  		CALL	X3BCA		; 3C22  CD CA 3B	MJ;
1692:	3C15  67      		LD	H,A		; 3C25  67		g
1693:	3C16  EB      		EX	DE,HL		; 3C26  EB		k
1694:	3C17  0E03    		LD	C,$03		; 3C27  0E 03		..
1695:	3C19  E1      		POP	HL		; 3C29  E1		a
1696:	3C1A  CDBA3B  		CALL	X3BCA		; 3C2A  CD CA 3B	MJ;
1697:	3C1D  4D      		LD	C,L		; 3C2D  4D		M
1698:	3C1E  47      		LD	B,A		; 3C2E  47		G
1699:	3C1F  6A      		LD	L,D		; 3C2F  6A		j
1700:	3C20  B7      		OR	A		; 3C30  B7		7
1701:	3C21  2808    		JR	Z,X3C3B		; 3C31  28 08		(.
1702:	3C23  D5      		PUSH	DE		; 3C33  D5		U
1703:	3C24  112800  		LD	DE,X0028	; 3C34  11 28 00	.(.
1704:	3C27  19      	X3C37:	ADD	HL,DE		; 3C37  19		.
1705:	3C28  10FD    		DJNZ	X3C37		; 3C38  10 FD		.}
1706:	3C2A  D1      		POP	DE		; 3C3A  D1		Q
1707:	3C2B  7B      	X3C3B:	LD	A,E		; 3C3B  7B		{
1708:	3C2C  CB41    		BIT	0,C		; 3C3C  CB 41		KA
1709:	3C2E  2802    		JR	Z,X3C42		; 3C3E  28 02		(.
1710:	3C30  C604    		ADD	A,$04		; 3C40  C6 04		F.
1711:	3C32  47      	X3C42:	LD	B,A		; 3C42  47		G
1712:	3C33  AF      		XOR	A		; 3C43  AF		/
1713:	3C34  B1      		OR	C		; 3C44  B1		1
1714:	3C35  1F      		RRA			; 3C45  1F		.
1715:	3C36  4F      		LD	C,A		; 3C46  4F		O
1716:	3C37  EB      		EX	DE,HL		; 3C47  EB		k
1717:	3C38  2A3232  		LD	HL,(X3232)	; 3C48  2A 32 32	*22
1718:	3C3B  19      		ADD	HL,DE		; 3C4B  19		.
1719:	3C3C  CD8931  		CALL	X3189		; 3C4C  CD 89 31	M.1
1720:	3C3F  214230  		LD	HL,X3042	; 3C4F  21 42 30	!B0
1721:	3C42  DB8C    	X3C52:	IN	A,($8C)		; 3C52  DB 8C		[.
1722:	3C44  CB7F    		BIT	7,A		; 3C54  CB 7F		K.
1723:	3C46  28FA    		JR	Z,X3C52		; 3C56  28 FA		(z
1724:	3C48  E3      		EX	(SP),HL		; 3C58  E3		c
1725:	3C49  E3      		EX	(SP),HL		; 3C59  E3		c
1726:	3C4A  DB8E    		IN	A,($8E)		; 3C5A  DB 8E		[.
1727:	3C4C  32723C  		LD	(X3C72),A	; 3C5C  32 72 3C	2r<
1728:	3C4F  DB88    		IN	A,($88)		; 3C5F  DB 88		[.
1729:	3C51  77      		LD	(HL),A		; 3C61  77		w
1730:	3C52  2B      		DEC	HL		; 3C62  2B		+
1731:	3C53  DB84    		IN	A,($84)		; 3C63  DB 84		[.
1732:	3C55  77      		LD	(HL),A		; 3C65  77		w
1733:	3C56  2B      		DEC	HL		; 3C66  2B		+
1734:	3C57  DB80    		IN	A,($80)		; 3C67  DB 80		[.
1735:	3C59  77      		LD	(HL),A		; 3C69  77		w
1736:	3C5A  3A283C  		LD	A,(X3C28)	; 3C6A  3A 28 3C	:(<
1737:	3C5D  FE03    		CP	$03		; 3C6D  FE 03		~.
1738:	3C5F  2833    		JR	Z,X3CA4		; 3C6F  28 33		(3
1739:	3C61  3E00    		LD	A,$00		; 3C71  3E 00		>.
1740:	3C63  CB67    		BIT	4,A		; 3C73  CB 67		Kg
1741:	3C65  2808    		JR	Z,X3C7F		; 3C75  28 08		(.
1742:	3C67  E5      		PUSH	HL		; 3C77  E5		e
1743:	3C68  AF      		XOR	A		; 3C78  AF		/
1744:	3C69  77      		LD	(HL),A		; 3C79  77		w
1745:	3C6A  23      		INC	HL		; 3C7A  23		#
1746:	3C6B  77      		LD	(HL),A		; 3C7B  77		w
1747:	3C6C  23      		INC	HL		; 3C7C  23		#
1748:	3C6D  77      		LD	(HL),A		; 3C7D  77		w
1749:	3C6E  E1      		POP	HL		; 3C7E  E1		a
1750:	3C6F  3ACB3C  	X3C7F:	LD	A,(X3CCB)	; 3C7F  3A CB 3C	:K<
1751:	3C72  C646    		ADD	A,$46		; 3C82  C6 46		FF
1752:	3C74  328F3C  		LD	(X3C8F),A	; 3C84  32 8F 3C	2.<
1753:	3C77  79      		LD	A,C		; 3C87  79		y
1754:	3C78  85      		ADD	A,L		; 3C88  85		.
1755:	3C79  6F      		LD	L,A		; 3C89  6F		o
1756:	3C7A  78      		LD	A,B		; 3C8A  78		x
1757:	3C7B  17      		RLA			; 3C8B  17		.
1758:	3C7C  17      		RLA			; 3C8C  17		.
1759:	3C7D  17      		RLA			; 3C8D  17		.
1760:	3C7E  F6C6    		OR	$C6		; 3C8E  F6 C6		vF
1761:	3C80  320000  		LD	(X3C94),A	; 3C90  32 94 3C	2.<
U Undeclared error
1762:	3C83  CBC6    		SET	0,(HL)		; 3C93  CB C6		KF
1763:	3C85  F5      		PUSH	AF		; 3C95  F5		u
1764:	3C86  3ACB3C  		LD	A,(X3CCB)	; 3C96  3A CB 3C	:K<
1765:	3C89  B7      		OR	A		; 3C99  B7		7
1766:	3C8A  2803    		JR	Z,X3C9F		; 3C9A  28 03		(.
1767:	3C8C  F1      		POP	AF		; 3C9C  F1		q
1768:	3C8D  1839    		JR	X3CD8		; 3C9D  18 39		.9
1769:			;
1770:	3C8F  F1      	X3C9F:	POP	AF		; 3C9F  F1		q
1771:	3C90  3E00    		LD	A,$00		; 3CA0  3E 00		>.
1772:	3C92  1842    		JR	X3CE6		; 3CA2  18 42		.B
1773:			;
1774:	3C94  CB41    	X3CA4:	BIT	0,C		; 3CA4  CB 41		KA
1775:	3C96  280A    		JR	Z,X3CB2		; 3CA6  28 0A		(.
1776:	3C98  3EA0    		LD	A,$A0		; 3CA8  3E A0		> 
1777:	3C9A  CB40    		BIT	0,B		; 3CAA  CB 40		K@
1778:	3C9C  2015    		JR	NZ,X3CC3	; 3CAC  20 15		 .
1779:	3C9E  3E90    		LD	A,$90		; 3CAE  3E 90		>.
1780:	3CA0  1811    		JR	X3CC3		; 3CB0  18 11		..
1781:			;
1782:	3CA2  CB50    	X3CB2:	BIT	2,B		; 3CB2  CB 50		KP
1783:	3CA4  280A    		JR	Z,X3CC0		; 3CB4  28 0A		(.
1784:	3CA6  3E84    		LD	A,$84		; 3CB6  3E 84		>.
1785:	3CA8  CB40    		BIT	0,B		; 3CB8  CB 40		K@
1786:	3CAA  2807    		JR	Z,X3CC3		; 3CBA  28 07		(.
1787:	3CAC  3E88    		LD	A,$88		; 3CBC  3E 88		>.
1788:	3CAE  1803    		JR	X3CC3		; 3CBE  18 03		..
1789:			;
1790:	3CB0  3E81    	X3CC0:	LD	A,$81		; 3CC0  3E 81		>.
1791:	3CB2  80      		ADD	A,B		; 3CC2  80		.
1792:	3CB3  F5      	X3CC3:	PUSH	AF		; 3CC3  F5		u
1793:	3CB4  3E80    		LD	A,$80		; 3CC4  3E 80		>.
1794:	3CB6  BE      		CP	(HL)		; 3CC6  BE		>
1795:	3CB7  3801    		JR	C,X3CCA		; 3CC7  38 01		8.
1796:	3CB9  77      		LD	(HL),A		; 3CC9  77		w
1797:	3CBA  3E00    	X3CCA:	LD	A,$00		; 3CCA  3E 00		>.
1798:	3CBC  B7      		OR	A		; 3CCC  B7		7
1799:	3CBD  2813    		JR	Z,X3CE2		; 3CCD  28 13		(.
1800:	3CBF  FE40    		CP	$40		; 3CCF  FE 40		~@
1801:	3CC1  2808    		JR	Z,X3CDB		; 3CD1  28 08		(.
1802:	3CC3  F1      		POP	AF		; 3CD3  F1		q
1803:	3CC4  B6      		OR	(HL)		; 3CD4  B6		6
1804:	3CC5  E6BF    	X3CD5:	AND	$BF		; 3CD5  E6 BF		f?
1805:	3CC7  77      		LD	(HL),A		; 3CD7  77		w
1806:	3CC8  C344F0  	X3CD8:	JP	XF044		; 3CD8  C3 44 F0	CDp
1807:			;
1808:	3CCB  F1      	X3CDB:	POP	AF		; 3CDB  F1		q
1809:	3CCC  D680    		SUB	$80		; 3CDC  D6 80		V.
1810:	3CCE  2F      		CPL			; 3CDE  2F		/
1811:	3CCF  A6      		AND	(HL)		; 3CDF  A6		&
1812:	3CD0  18F3    		JR	X3CD5		; 3CE0  18 F3		.s
1813:			;
1814:	3CD2  F1      	X3CE2:	POP	AF		; 3CE2  F1		q
1815:	3CD3  D680    		SUB	$80		; 3CE3  D6 80		V.
1816:	3CD5  A6      		AND	(HL)		; 3CE5  A6		&
1817:	3CD6  200A    	X3CE6:	JR	NZ,X3CF2	; 3CE6  20 0A		 .
1818:	3CD8  2A3232  		LD	HL,(X3232)	; 3CE8  2A 32 32	*22
1819:	3CDB  19      		ADD	HL,DE		; 3CEB  19		.
1820:	3CDC  CD60F0  		CALL	XF060		; 3CEC  CD 60 F0	M`p
1821:	3CDF  AF      		XOR	A		; 3CEF  AF		/
1822:	3CE0  1802    		JR	X3CF4		; 3CF0  18 02		..
1823:			;
1824:	3CE2  3EFF    	X3CF2:	LD	A,$FF		; 3CF2  3E FF		>.
1825:	3CE4  C38D09  	X3CF4:	JP	X098D		; 3CF4  C3 8D 09	C..
1826:			;
1827:	3CE7  7E      	X3CF7:	LD	A,(HL)		; 3CF7  7E		~
1828:	3CE8  FECE    		CP	$CE		; 3CF8  FE CE		~N
1829:	3CEA  280B    		JR	Z,X3D07		; 3CFA  28 0B		(.
1830:	3CEC  CD7D01  		CALL	X017D		; 3CFC  CD 7D 01	M}.
1831:	3CEF  ED43113D		LD	(X3D11),BC	; 3CFF  ED 43 11 3D	mC.=
1832:	3CF3  ED53FE3C		LD	(X3D0E),DE	; 3D03  ED 53 0E 3D	mS.=
1833:	3CF7  CF      	X3D07:	RST	8		; 3D07  CF		O
1834:	3CF8  CECD    		ADC	A,$CD		; 3D08  CE CD		NM
1835:	3CFA  7D      		LD	A,L		; 3D0A  7D		}
1836:	3CFB  01D911  		LD	BC,X11D9	; 3D0B  01 D9 11	.Y.
1837:	3CFE  00      	X3D0E:	NOP			; 3D0E  00		.
1838:	3CFF  00      		NOP			; 3D0F  00		.
1839:	3D00  010000  		LD	BC,X0000	; 3D10  01 00 00	...
1840:	3D03  D9      		EXX			; 3D13  D9		Y
1841:	3D04  ED43113D		LD	(X3D11),BC	; 3D14  ED 43 11 3D	mC.=
1842:	3D08  ED53FE3C		LD	(X3D0E),DE	; 3D18  ED 53 0E 3D	mS.=
1843:	3D0C  22113C  		LD	(X3C11),HL	; 3D1C  22 11 3C	".<
1844:	3D0F  C9      		RET			; 3D1F  C9		I
1845:			;
1846:	3D10  CDE73C  	X3D20:	CALL	X3CF7		; 3D20  CD F7 3C	Mw<
1847:	3D13  D5      		PUSH	DE		; 3D23  D5		U
1848:	3D14  C5      		PUSH	BC		; 3D24  C5		E
1849:	3D15  D9      		EXX			; 3D25  D9		Y
1850:	3D16  D5      		PUSH	DE		; 3D26  D5		U
1851:	3D17  C5      		PUSH	BC		; 3D27  C5		E
1852:	3D18  D9      		EXX			; 3D28  D9		Y
1853:	3D19  C1      		POP	BC		; 3D29  C1		A
1854:	3D1A  C5      		PUSH	BC		; 3D2A  C5		E
1855:	3D1B  CD503D  		CALL	X3D60		; 3D2B  CD 60 3D	M`=
1856:	3D1E  C1      		POP	BC		; 3D2E  C1		A
1857:	3D1F  F1      		POP	AF		; 3D2F  F1		q
1858:	3D20  E1      		POP	HL		; 3D30  E1		a
1859:	3D21  D1      		POP	DE		; 3D31  D1		Q
1860:	3D22  D5      		PUSH	DE		; 3D32  D5		U
1861:	3D23  E5      		PUSH	HL		; 3D33  E5		e
1862:	3D24  F5      		PUSH	AF		; 3D34  F5		u
1863:	3D25  C5      		PUSH	BC		; 3D35  C5		E
1864:	3D26  D9      		EXX			; 3D36  D9		Y
1865:	3D27  F1      		POP	AF		; 3D37  F1		q
1866:	3D28  E1      		POP	HL		; 3D38  E1		a
1867:	3D29  C1      		POP	BC		; 3D39  C1		A
1868:	3D2A  D1      		POP	DE		; 3D3A  D1		Q
1869:	3D2B  D5      		PUSH	DE		; 3D3B  D5		U
1870:	3D2C  C5      		PUSH	BC		; 3D3C  C5		E
1871:	3D2D  E5      		PUSH	HL		; 3D3D  E5		e
1872:	3D2E  F5      		PUSH	AF		; 3D3E  F5		u
1873:	3D2F  CD503D  		CALL	X3D60		; 3D3F  CD 60 3D	M`=
1874:	3D32  F1      		POP	AF		; 3D42  F1		q
1875:	3D33  E1      		POP	HL		; 3D43  E1		a
1876:	3D34  C1      		POP	BC		; 3D44  C1		A
1877:	3D35  D1      		POP	DE		; 3D45  D1		Q
1878:	3D36  D5      		PUSH	DE		; 3D46  D5		U
1879:	3D37  C5      		PUSH	BC		; 3D47  C5		E
1880:	3D38  E5      		PUSH	HL		; 3D48  E5		e
1881:	3D39  F5      		PUSH	AF		; 3D49  F5		u
1882:	3D3A  D9      		EXX			; 3D4A  D9		Y
1883:	3D3B  E1      		POP	HL		; 3D4B  E1		a
1884:	3D3C  D1      		POP	DE		; 3D4C  D1		Q
1885:	3D3D  C1      		POP	BC		; 3D4D  C1		A
1886:	3D3E  F1      		POP	AF		; 3D4E  F1		q
1887:	3D3F  C5      		PUSH	BC		; 3D4F  C5		E
1888:	3D40  D5      		PUSH	DE		; 3D50  D5		U
1889:	3D41  E5      		PUSH	HL		; 3D51  E5		e
1890:	3D42  CD503D  		CALL	X3D60		; 3D52  CD 60 3D	M`=
1891:	3D45  E1      		POP	HL		; 3D55  E1		a
1892:	3D46  D1      		POP	DE		; 3D56  D1		Q
1893:	3D47  C1      		POP	BC		; 3D57  C1		A
1894:	3D48  D5      		PUSH	DE		; 3D58  D5		U
1895:	3D49  E5      		PUSH	HL		; 3D59  E5		e
1896:	3D4A  D9      		EXX			; 3D5A  D9		Y
1897:	3D4B  C1      		POP	BC		; 3D5B  C1		A
1898:	3D4C  D1      		POP	DE		; 3D5C  D1		Q
1899:	3D4D  C3083C  		JP	X3C18		; 3D5D  C3 18 3C	C.<
1900:			;
1901:	3D50  3E02    	X3D60:	LD	A,$02		; 3D60  3E 02		>.
1902:	3D52  32EB3D  		LD	(X3DEB),A	; 3D62  32 EB 3D	2k=
1903:	3D55  D9      		EXX			; 3D65  D9		Y
1904:	3D56  C5      		PUSH	BC		; 3D66  C5		E
1905:	3D57  D5      		PUSH	DE		; 3D67  D5		U
1906:	3D58  D9      		EXX			; 3D68  D9		Y
1907:	3D59  E1      		POP	HL		; 3D69  E1		a
1908:	3D5A  C5      		PUSH	BC		; 3D6A  C5		E
1909:	3D5B  CDC70B  		CALL	X0BC7		; 3D6B  CD C7 0B	MG.
1910:	3D5E  D1      		POP	DE		; 3D6E  D1		Q
1911:	3D5F  E3      		EX	(SP),HL		; 3D6F  E3		c
1912:	3D60  CDC70B  		CALL	X0BC7		; 3D70  CD C7 0B	MG.
1913:	3D63  D1      		POP	DE		; 3D73  D1		Q
1914:	3D64  EB      		EX	DE,HL		; 3D74  EB		k
1915:	3D65  7C      		LD	A,H		; 3D75  7C		|
1916:	3D66  E6F0    		AND	$F0		; 3D76  E6 F0		fp
1917:	3D68  F5      		PUSH	AF		; 3D78  F5		u
1918:	3D69  08      		EX	AF,AF'		; 3D79  08		.
1919:	3D6A  F1      		POP	AF		; 3D7A  F1		q
1920:	3D6B  3E20    		LD	A,$20		; 3D7B  3E 20		> 
1921:	3D6D  2002    		JR	NZ,X3D81	; 3D7D  20 02		 .
1922:	3D6F  3E28    		LD	A,$28		; 3D7F  3E 28		>(
1923:	3D71  32DA3D  	X3D81:	LD	(X3DEA),A	; 3D81  32 EA 3D	2j=
1924:	3D74  7C      		LD	A,H		; 3D84  7C		|
1925:	3D75  B5      		OR	L		; 3D85  B5		5
1926:	3D76  201A    		JR	NZ,X3DA2	; 3D86  20 1A		 .
1927:	3D78  7A      		LD	A,D		; 3D88  7A		z
1928:	3D79  B3      		OR	E		; 3D89  B3		3
1929:	3D7A  2815    		JR	Z,X3DA1		; 3D8A  28 15		(.
1930:	3D7C  D5      		PUSH	DE		; 3D8C  D5		U
1931:	3D7D  7A      		LD	A,D		; 3D8D  7A		z
1932:	3D7E  211803  		LD	HL,X0318	; 3D8E  21 18 03	!..
1933:	3D81  22DA3D  		LD	(X3DEA),HL	; 3D91  22 EA 3D	"j=
1934:	3D84  210100  		LD	HL,X0001	; 3D94  21 01 00	!..
1935:	3D87  54      		LD	D,H		; 3D97  54		T
1936:	3D88  5D      		LD	E,L		; 3D98  5D		]
1937:	3D89  E6F0    		AND	$F0		; 3D99  E6 F0		fp
1938:	3D8B  2806    		JR	Z,X3DA3		; 3D9B  28 06		(.
1939:	3D8D  B7      		OR	A		; 3D9D  B7		7
1940:	3D8E  08      		EX	AF,AF'		; 3D9E  08		.
1941:	3D8F  1802    		JR	X3DA3		; 3D9F  18 02		..
1942:			;
1943:	3D91  23      	X3DA1:	INC	HL		; 3DA1  23		#
1944:	3D92  E5      	X3DA2:	PUSH	HL		; 3DA2  E5		e
1945:	3D93  CD9024  	X3DA3:	CALL	X2490		; 3DA3  CD 90 24	M.$
1946:	3D96  08      		EX	AF,AF'		; 3DA6  08		.
1947:	3D97  C48209  		CALL	NZ,X0982	; 3DA7  C4 82 09	D..
1948:	3D9A  CDDB0A  		CALL	X0ADB		; 3DAA  CD DB 0A	M[.
1949:	3D9D  CDBF09  		CALL	X09BF		; 3DAD  CD BF 09	M?.
1950:	3DA0  ED43003E		LD	(X3E00),BC	; 3DB0  ED 43 00 3E	mC.>
1951:	3DA4  ED53033E		LD	(X3E03),DE	; 3DB4  ED 53 03 3E	mS.>
1952:	3DA8  D9      		EXX			; 3DB8  D9		Y
1953:	3DA9  C5      		PUSH	BC		; 3DB9  C5		E
1954:	3DAA  D5      		PUSH	DE		; 3DBA  D5		U
1955:	3DAB  60      		LD	H,B		; 3DBB  60		`
1956:	3DAC  69      		LD	L,C		; 3DBC  69		i
1957:	3DAD  CD9A0A  		CALL	X0A9A		; 3DBD  CD 9A 0A	M..
1958:	3DB0  CDDB0A  		CALL	X0ADB		; 3DC0  CD DB 0A	M[.
1959:	3DB3  CD0807  		CALL	X0708		; 3DC3  CD 08 07	M..
1960:	3DB6  CDBF09  		CALL	X09BF		; 3DC6  CD BF 09	M?.
1961:	3DB9  D9      		EXX			; 3DC9  D9		Y
1962:	3DBA  D1      		POP	DE		; 3DCA  D1		Q
1963:	3DBB  C1      		POP	BC		; 3DCB  C1		A
1964:	3DBC  E1      		POP	HL		; 3DCC  E1		a
1965:	3DBD  7C      		LD	A,H		; 3DCD  7C		|
1966:	3DBE  E6F0    		AND	$F0		; 3DCE  E6 F0		fp
1967:	3DC0  2802    		JR	Z,X3DD4		; 3DD0  28 02		(.
1968:	3DC2  2B      		DEC	HL		; 3DD2  2B		+
1969:	3DC3  2B      		DEC	HL		; 3DD3  2B		+
1970:	3DC4  23      	X3DD4:	INC	HL		; 3DD4  23		#
1971:	3DC5  E5      		PUSH	HL		; 3DD5  E5		e
1972:	3DC6  D5      	X3DD6:	PUSH	DE		; 3DD6  D5		U
1973:	3DC7  CD0D3C  		CALL	X3C1D		; 3DD7  CD 1D 3C	M.<
1974:	3DCA  D1      		POP	DE		; 3DDA  D1		Q
1975:	3DCB  E1      		POP	HL		; 3DDB  E1		a
1976:	3DCC  2009    		JR	NZ,X3DE7	; 3DDC  20 09		 .
1977:	3DCE  3ACB3C  		LD	A,(X3CCB)	; 3DDE  3A CB 3C	:K<
1978:	3DD1  B7      		OR	A		; 3DE1  B7		7
1979:	3DD2  C1      		POP	BC		; 3DE2  C1		A
1980:	3DD3  CAFA3B  		JP	Z,X3C0A		; 3DE3  CA 0A 3C	J.<
1981:	3DD6  C5      		PUSH	BC		; 3DE6  C5		E
1982:	3DD7  7A      	X3DE7:	LD	A,D		; 3DE7  7A		z
1983:	3DD8  E6F0    		AND	$F0		; 3DE8  E6 F0		fp
1984:	3DDA  2802    	X3DEA:	JR	Z,X3DEE		; 3DEA  28 02		(.
1985:	3DDC  1B      		DEC	DE		; 3DEC  1B		.
1986:	3DDD  1B      		DEC	DE		; 3DED  1B		.
1987:	3DDE  13      	X3DEE:	INC	DE		; 3DEE  13		.
1988:	3DDF  7C      		LD	A,H		; 3DEF  7C		|
1989:	3DE0  E6F0    		AND	$F0		; 3DF0  E6 F0		fp
1990:	3DE2  2802    		JR	Z,X3DF6		; 3DF2  28 02		(.
1991:	3DE4  23      		INC	HL		; 3DF4  23		#
1992:	3DE5  23      		INC	HL		; 3DF5  23		#
1993:	3DE6  2B      	X3DF6:	DEC	HL		; 3DF6  2B		+
1994:	3DE7  7C      		LD	A,H		; 3DF7  7C		|
1995:	3DE8  B5      		OR	L		; 3DF8  B5		5
1996:	3DE9  C8      		RET	Z		; 3DF9  C8		H
1997:	3DEA  E5      		PUSH	HL		; 3DFA  E5		e
1998:	3DEB  D5      		PUSH	DE		; 3DFB  D5		U
1999:	3DEC  CDEC0A  		CALL	X0AEC		; 3DFC  CD EC 0A	Ml.
2000:	3DEF  010000  		LD	BC,X0000	; 3DFF  01 00 00	...
2001:	3DF2  110000  		LD	DE,X0000	; 3E02  11 00 00	...
2002:	3DF5  CDB409  		CALL	X09B4		; 3E05  CD B4 09	M4.
2003:	3DF8  D9      		EXX			; 3E08  D9		Y
2004:	3DF9  CD1607  		CALL	X0716		; 3E09  CD 16 07	M..
2005:	3DFC  CDBF09  		CALL	X09BF		; 3E0C  CD BF 09	M?.
2006:	3DFF  D9      		EXX			; 3E0F  D9		Y
2007:	3E00  CD7F0A  		CALL	X0A7F		; 3E10  CD 7F 0A	M..
2008:	3E03  D1      		POP	DE		; 3E13  D1		Q
2009:	3E04  44      		LD	B,H		; 3E14  44		D
2010:	3E05  4D      		LD	C,L		; 3E15  4D		M
2011:	3E06  18BE    		JR	X3DD6		; 3E16  18 BE		.>
2012:			;
2013:	3E08  CD7F01  	X3E18:	CALL	X017F		; 3E18  CD 7F 01	M..
2014:	3E0B  CF      		RST	8		; 3E1B  CF		O
2015:	3E0C  CEE5    		ADC	A,$E5		; 3E1C  CE E5		Ne
2016:	3E0E  D9      		EXX			; 3E1E  D9		Y
2017:	3E0F  E1      		POP	HL		; 3E1F  E1		a
2018:	3E10  CD3723  		CALL	X2337		; 3E20  CD 37 23	M7#
2019:	3E13  22113C  		LD	(X3C11),HL	; 3E23  22 11 3C	".<
2020:	3E16  CD7F0A  		CALL	X0A7F		; 3E26  CD 7F 0A	M..
2021:	3E19  E5      		PUSH	HL		; 3E29  E5		e
2022:	3E1A  CDDB0A  		CALL	X0ADB		; 3E2A  CD DB 0A	M[.
2023:	3E1D  CDA409  		CALL	X09A4		; 3E2D  CD A4 09	M$.
2024:	3E20  013581  		LD	BC,X8135	; 3E30  01 35 81	.5.
2025:	3E23  110000  		LD	DE,X0000	; 3E33  11 00 00	...
2026:	3E26  CDB409  		CALL	X09B4		; 3E36  CD B4 09	M4.
2027:	3E29  C1      		POP	BC		; 3E39  C1		A
2028:	3E2A  D1      		POP	DE		; 3E3A  D1		Q
2029:	3E2B  CDA208  		CALL	X08A2		; 3E3B  CD A2 08	M".
2030:	3E2E  CD7F0A  		CALL	X0A7F		; 3E3E  CD 7F 0A	M..
2031:	3E31  E5      	X3E41:	PUSH	HL		; 3E41  E5		e
2032:	3E32  D9      		EXX			; 3E42  D9		Y
2033:	3E33  E1      		POP	HL		; 3E43  E1		a
2034:	3E34  D9      		EXX			; 3E44  D9		Y
2035:	3E35  E5      		PUSH	HL		; 3E45  E5		e
2036:	3E36  CDD53E  		CALL	X3EE5		; 3E46  CD E5 3E	Me>
2037:	3E39  CDFC09  		CALL	X09FC		; 3E49  CD FC 09	M|.
2038:	3E3C  D1      		POP	DE		; 3E4C  D1		Q
2039:	3E3D  E1      		POP	HL		; 3E4D  E1		a
2040:	3E3E  E5      		PUSH	HL		; 3E4E  E5		e
2041:	3E3F  D5      		PUSH	DE		; 3E4F  D5		U
2042:	3E40  CDD53E  		CALL	X3EE5		; 3E50  CD E5 3E	Me>
2043:	3E43  CD700C  		CALL	X0C70		; 3E53  CD 70 0C	Mp.
2044:	3E46  CDE713  		CALL	X13E7		; 3E56  CD E7 13	Mg.
2045:	3E49  CD7F0A  		CALL	X0A7F		; 3E59  CD 7F 0A	M..
2046:	3E4C  E5      		PUSH	HL		; 3E5C  E5		e
2047:	3E4D  CD603E  		CALL	X3E70		; 3E5D  CD 70 3E	Mp>
2048:	3E50  D9      		EXX			; 3E60  D9		Y
2049:	3E51  E3      		EX	(SP),HL		; 3E61  E3		c
2050:	3E52  D9      		EXX			; 3E62  D9		Y
2051:	3E53  E1      		POP	HL		; 3E63  E1		a
2052:	3E54  CD603E  		CALL	X3E70		; 3E64  CD 70 3E	Mp>
2053:	3E57  E1      		POP	HL		; 3E67  E1		a
2054:	3E58  7C      		LD	A,H		; 3E68  7C		|
2055:	3E59  B5      		OR	L		; 3E69  B5		5
2056:	3E5A  CAFD3B  		JP	Z,X3C0D		; 3E6A  CA 0D 3C	J.<
2057:	3E5D  2B      		DEC	HL		; 3E6D  2B		+
2058:	3E5E  18D1    		JR	X3E41		; 3E6E  18 D1		.Q
2059:			;
2060:	3E60  CD9A0A  	X3E70:	CALL	X0A9A		; 3E70  CD 9A 0A	M..
2061:	3E63  CDDB0A  		CALL	X0ADB		; 3E73  CD DB 0A	M[.
2062:	3E66  CDFC09  		CALL	X09FC		; 3E76  CD FC 09	M|.
2063:	3E69  CD8E06  		CALL	X068E		; 3E79  CD 8E 06	M..
2064:	3E6C  D9      		EXX			; 3E7C  D9		Y
2065:	3E6D  C5      		PUSH	BC		; 3E7D  C5		E
2066:	3E6E  D9      		EXX			; 3E7E  D9		Y
2067:	3E6F  D1      		POP	DE		; 3E7F  D1		Q
2068:	3E70  E5      		PUSH	HL		; 3E80  E5		e
2069:	3E71  CDD20B  		CALL	X0BD2		; 3E81  CD D2 0B	MR.
2070:	3E74  E5      		PUSH	HL		; 3E84  E5		e
2071:	3E75  D9      		EXX			; 3E85  D9		Y
2072:	3E76  D5      		PUSH	DE		; 3E86  D5		U
2073:	3E77  E5      		PUSH	HL		; 3E87  E5		e
2074:	3E78  D9      		EXX			; 3E88  D9		Y
2075:	3E79  E1      		POP	HL		; 3E89  E1		a
2076:	3E7A  D1      		POP	DE		; 3E8A  D1		Q
2077:	3E7B  CDC70B  		CALL	X0BC7		; 3E8B  CD C7 0B	MG.
2078:	3E7E  EB      		EX	DE,HL		; 3E8E  EB		k
2079:	3E7F  C1      		POP	BC		; 3E8F  C1		A
2080:	3E80  E1      		POP	HL		; 3E90  E1		a
2081:	3E81  D5      		PUSH	DE		; 3E91  D5		U
2082:	3E82  E5      		PUSH	HL		; 3E92  E5		e
2083:	3E83  C5      		PUSH	BC		; 3E93  C5		E
2084:	3E84  CDA93E  		CALL	X3EB9		; 3E94  CD B9 3E	M9>
2085:	3E87  D9      		EXX			; 3E97  D9		Y
2086:	3E88  D5      		PUSH	DE		; 3E98  D5		U
2087:	3E89  E5      		PUSH	HL		; 3E99  E5		e
2088:	3E8A  D9      		EXX			; 3E9A  D9		Y
2089:	3E8B  D1      		POP	DE		; 3E9B  D1		Q
2090:	3E8C  E1      		POP	HL		; 3E9C  E1		a
2091:	3E8D  CDD20B  		CALL	X0BD2		; 3E9D  CD D2 0B	MR.
2092:	3E90  C1      		POP	BC		; 3EA0  C1		A
2093:	3E91  EB      		EX	DE,HL		; 3EA1  EB		k
2094:	3E92  D5      		PUSH	DE		; 3EA2  D5		U
2095:	3E93  CDA93E  		CALL	X3EB9		; 3EA3  CD B9 3E	M9>
2096:	3E96  D9      		EXX			; 3EA6  D9		Y
2097:	3E97  C5      		PUSH	BC		; 3EA7  C5		E
2098:	3E98  D9      		EXX			; 3EA8  D9		Y
2099:	3E99  D1      		POP	DE		; 3EA9  D1		Q
2100:	3E9A  C1      		POP	BC		; 3EAA  C1		A
2101:	3E9B  E1      		POP	HL		; 3EAB  E1		a
2102:	3E9C  C5      		PUSH	BC		; 3EAC  C5		E
2103:	3E9D  CDC70B  		CALL	X0BC7		; 3EAD  CD C7 0B	MG.
2104:	3EA0  D1      		POP	DE		; 3EB0  D1		Q
2105:	3EA1  44      		LD	B,H		; 3EB1  44		D
2106:	3EA2  4D      		LD	C,L		; 3EB2  4D		M
2107:	3EA3  C5      		PUSH	BC		; 3EB3  C5		E
2108:	3EA4  CDA93E  		CALL	X3EB9		; 3EB4  CD B9 3E	M9>
2109:	3EA7  C1      		POP	BC		; 3EB7  C1		A
2110:	3EA8  D1      		POP	DE		; 3EB8  D1		Q
2111:	3EA9  210000  	X3EB9:	LD	HL,X0000	; 3EB9  21 00 00	!..
2112:	3EAC  B7      		OR	A		; 3EBC  B7		7
2113:	3EAD  ED52    		SBC	HL,DE		; 3EBD  ED 52		mR
2114:	3EAF  D0      		RET	NC		; 3EBF  D0		P
2115:	3EB0  B7      		OR	A		; 3EC0  B7		7
2116:	3EB1  210000  		LD	HL,X0000	; 3EC1  21 00 00	!..
2117:	3EB4  ED42    		SBC	HL,BC		; 3EC4  ED 42		mB
2118:	3EB6  D0      		RET	NC		; 3EC6  D0		P
2119:	3EB7  2A8E01  		LD	HL,(X018E)	; 3EC7  2A 8E 01	*..
2120:	3EBA  2B      		DEC	HL		; 3ECA  2B		+
2121:	3EBB  B7      		OR	A		; 3ECB  B7		7
2122:	3EBC  ED52    		SBC	HL,DE		; 3ECC  ED 52		mR
2123:	3EBE  D8      		RET	C		; 3ECE  D8		X
2124:	3EBF  2A8301  		LD	HL,(X0183)	; 3ECF  2A 83 01	*..
2125:	3EC2  2600    		LD	H,$00		; 3ED2  26 00		&.
2126:	3EC4  2B      		DEC	HL		; 3ED4  2B		+
2127:	3EC5  B7      		OR	A		; 3ED5  B7		7
2128:	3EC6  ED42    		SBC	HL,BC		; 3ED6  ED 42		mB
2129:	3EC8  D8      		RET	C		; 3ED8  D8		X
2130:	3EC9  CD0D3C  		CALL	X3C1D		; 3ED9  CD 1D 3C	M.<
2131:	3ECC  C0      		RET	NZ		; 3EDC  C0		@
2132:	3ECD  3ACB3C  		LD	A,(X3CCB)	; 3EDD  3A CB 3C	:K<
2133:	3ED0  B7      		OR	A		; 3EE0  B7		7
2134:	3ED1  C0      		RET	NZ		; 3EE1  C0		@
2135:	3ED2  C3FA3B  		JP	X3C0A		; 3EE2  C3 0A 3C	C.<
2136:			;
2137:	3ED5  54      	X3EE5:	LD	D,H		; 3EE5  54		T
2138:	3ED6  5D      		LD	E,L		; 3EE6  5D		]
2139:	3ED7  CDF20B  		CALL	X0BF2		; 3EE7  CD F2 0B	Mr.
2140:	3EDA  C3DB0A  		JP	X0ADB		; 3EEA  C3 DB 0A	C[.
2141:			;
2142:	3EDD  0000    		DEFB	$00,$00					; 3EED ..
2143:			;
2144:	3EFC          		ORG	$3EFC
2145:			;
2146:	3EFC  00      	X3EFC:	NOP			; 3EFC  00		.
2147:			;
2148:			;	Miscellaneous equates
2149:			;
2150:			;  These are addresses referenced in the code but
2151:			;  which are in the middle of a multibyte instruction
2152:			;  or are addresses outside the initialized space
2153:			;
2154:	0000          	X0000	EQU	$00
2155:	0001          	X0001	EQU	$01
2156:	0002          	X0002	EQU	$02
2157:	0028          	X0028	EQU	$28
2158:	002B          	X002B	EQU	$2B
2159:	0033          	X0033	EQU	$33
2160:	003B          	X003B	EQU	$3B
2161:	003E          	X003E	EQU	$3E
2162:	0040          	X0040	EQU	$40
2163:	004F          	X004F	EQU	$4F
2164:	0060          	X0060	EQU	$60
2165:	017D          	X017D	EQU	$017D
2166:	017F          	X017F	EQU	$017F
2167:	0183          	X0183	EQU	$0183
2168:	018E          	X018E	EQU	$018E
2169:	0190          	X0190	EQU	$0190
2170:	01AB          	X01AB	EQU	$01AB
2171:	01FF          	X01FF	EQU	$01FF
2172:	0204          	X0204	EQU	$0204
2173:	0218          	X0218	EQU	$0218
2174:	0232          	X0232	EQU	$0232
2175:	0318          	X0318	EQU	$0318
2176:	0320          	X0320	EQU	$0320
2177:	0325          	X0325	EQU	$0325
2178:	0370          	X0370	EQU	$0370
2179:	0384          	X0384	EQU	$0384
2180:	03E3          	X03E3	EQU	$03E3
2181:	03F1          	X03F1	EQU	$03F1
2182:	03FF          	X03FF	EQU	$03FF
2183:	04A9          	X04A9	EQU	$04A9
2184:	04F5          	X04F5	EQU	$04F5
2185:	0500          	X0500	EQU	$0500
2186:	068E          	X068E	EQU	$068E
2187:	0708          	X0708	EQU	$0708
2188:	0716          	X0716	EQU	$0716
2189:	0780          	X0780	EQU	$0780
2190:	08A2          	X08A2	EQU	$08A2
2191:	0982          	X0982	EQU	$0982
2192:	098D          	X098D	EQU	$098D
2193:	09A4          	X09A4	EQU	$09A4
2194:	09B4          	X09B4	EQU	$09B4
2195:	09BF          	X09BF	EQU	$09BF
2196:	09D2          	X09D2	EQU	$09D2
2197:	09FC          	X09FC	EQU	$09FC
2198:	0A7F          	X0A7F	EQU	$0A7F
2199:	0A9A          	X0A9A	EQU	$0A9A
2200:	0ADB          	X0ADB	EQU	$0ADB
2201:	0AEC          	X0AEC	EQU	$0AEC
2202:	0BC7          	X0BC7	EQU	$0BC7
2203:	0BD2          	X0BD2	EQU	$0BD2
2204:	0BF2          	X0BF2	EQU	$0BF2
2205:	0C70          	X0C70	EQU	$0C70
2206:	11D9          	X11D9	EQU	$11D9
2207:	13E7          	X13E7	EQU	$13E7
2208:	1997          	X1997	EQU	$1997
2209:	1B4D          	X1B4D	EQU	$1B4D
2210:	1B80          	X1B80	EQU	$1B80
2211:	1BB3          	X1BB3	EQU	$1BB3
2212:	1D1E          	X1D1E	EQU	$1D1E
2213:	1D78          	X1D78	EQU	$1D78
2214:	1D9B          	X1D9B	EQU	$1D9B
2215:	1DBE          	X1DBE	EQU	$1DBE
2216:	1E4A          	X1E4A	EQU	$1E4A
2217:	1F04          	X1F04	EQU	$1F04
2218:	1F26          	X1F26	EQU	$1F26
2219:	21B3          	X21B3	EQU	$21B3
2220:	21D0          	X21D0	EQU	$21D0
2221:	21F5          	X21F5	EQU	$21F5
2222:	2237          	X2237	EQU	$2237
2223:	223C          	X223C	EQU	$223C
2224:	223E          	X223E	EQU	$223E
2225:	22FE          	X22FE	EQU	$22FE
2226:	2328          	X2328	EQU	$2328
2227:	2337          	X2337	EQU	$2337
2228:	2338          	X2338	EQU	$2338
2229:	2490          	X2490	EQU	$2490
2230:	252F          	X252F	EQU	$252F
2231:	260D          	X260D	EQU	$260D
2232:	27F8          	X27F8	EQU	$27F8
2233:	2819          	X2819	EQU	$2819
2234:	2828          	X2828	EQU	$2828
2235:	28A7          	X28A7	EQU	$28A7
2236:	29D7          	X29D7	EQU	$29D7
2237:	29DA          	X29DA	EQU	$29DA
2238:	2A0F          	X2A0F	EQU	$2A0F
2239:	2B17          	X2B17	EQU	$2B17
2240:	2B1B          	X2B1B	EQU	$2B1B
2241:	2B1C          	X2B1C	EQU	$2B1C
2242:	2C05          	X2C05	EQU	$2C05
2243:	2C2F          	X2C2F	EQU	$2C2F
2244:	2C6B          	X2C6B	EQU	$2C6B
2245:	3000          	X3000	EQU	$3000
2246:	3039          	X3039	EQU	$3039
2247:	303A          	X303A	EQU	$303A
2248:	303B          	X303B	EQU	$303B
2249:	303D          	X303D	EQU	$303D
2250:	303E          	X303E	EQU	$303E
2251:	3042          	X3042	EQU	$3042
2252:	3043          	X3043	EQU	$3043
2253:	3139          	X3139	EQU	$3139
2254:	3155          	X3155	EQU	$3155
2255:	317A          	X317A	EQU	$317A
2256:	3186          	X3186	EQU	$3186
2257:	3189          	X3189	EQU	$3189
2258:	3232          	X3232	EQU	$3232
2259:	35AB          	X35AB	EQU	$35AB
2260:	35C9          	X35C9	EQU	$35C9
2261:	360B          	X360B	EQU	$360B
2262:	3610          	X3610	EQU	$3610
2263:	3641          	X3641	EQU	$3641
2264:	36D3          	X36D3	EQU	$36D3
2265:	3839          	X3839	EQU	$3839
2266:	3B6D          	X3B6D	EQU	$3B6D
2267:	3B71          	X3B71	EQU	$3B71
2268:	3B82          	X3B82	EQU	$3B82
2269:	3B98          	X3B98	EQU	$3B98
2270:	3C0E          	X3C0E	EQU	$3C0E
2271:	3C11          	X3C11	EQU	$3C11
2272:	3C20          	X3C20	EQU	$3C20
2273:	3C28          	X3C28	EQU	$3C28
2274:	3C72          	X3C72	EQU	$3C72
2275:	3C8F          	X3C8F	EQU	$3C8F
2276:	3CCB          	X3CCB	EQU	$3CCB
2277:	3D11          	X3D11	EQU	$3D11
2278:	3DEB          	X3DEB	EQU	$3DEB
2279:	3E00          	X3E00	EQU	$3E00
2280:	3E03          	X3E03	EQU	$3E03
2281:	4020          	X4020	EQU	$4020
2282:	4028          	X4028	EQU	$4028
2283:	4036          	X4036	EQU	$4036
2284:	409F          	X409F	EQU	$409F
2285:	40AF          	X40AF	EQU	$40AF
2286:	40F3          	X40F3	EQU	$40F3
2287:	411D          	X411D	EQU	$411D
2288:	4121          	X4121	EQU	$4121
2289:	4130          	X4130	EQU	$4130
2290:	4148          	X4148	EQU	$4148
2291:	4152          	X4152	EQU	$4152
2292:	429E          	X429E	EQU	$429E
2293:	4309          	X4309	EQU	$4309
2294:	4315          	X4315	EQU	$4315
2295:	43C0          	X43C0	EQU	$43C0
2296:	43DA          	X43DA	EQU	$43DA
2297:	4436          	X4436	EQU	$4436
2298:	4439          	X4439	EQU	$4439
2299:	4442          	X4442	EQU	$4442
2300:	44EF          	X44EF	EQU	$44EF
2301:	4545          	X4545	EQU	$4545
2302:	46A7          	X46A7	EQU	$46A7
2303:	46A9          	X46A9	EQU	$46A9
2304:	490F          	X490F	EQU	$490F
2305:	494C          	X494C	EQU	$494C
2306:	4B41          	X4B41	EQU	$4B41
2307:	4C41          	X4C41	EQU	$4C41
2308:	4CEE          	X4CEE	EQU	$4CEE
2309:	4D36          	X4D36	EQU	$4D36
2310:	4E99          	X4E99	EQU	$4E99
2311:	4ECF          	X4ECF	EQU	$4ECF
2312:	4F43          	X4F43	EQU	$4F43
2313:	5000          	X5000	EQU	$5000
2314:	507E          	X507E	EQU	$507E
2315:	5125          	X5125	EQU	$5125
2316:	5140          	X5140	EQU	$5140
2317:	5244          	X5244	EQU	$5244
2318:	548D          	X548D	EQU	$548D
2319:	554F          	X554F	EQU	$554F
2320:	5844          	X5844	EQU	$5844
2321:	6431          	X6431	EQU	$6431
2322:	65CD          	X65CD	EQU	$65CD
2323:	666A          	X666A	EQU	$666A
2324:	8135          	X8135	EQU	$8135
2325:	D30A          	XD30A	EQU	$D30A
2326:	D7DB          	XD7DB	EQU	$D7DB
2327:	DFBF          	XDFBF	EQU	$DFBF
2328:	EC00          	XEC00	EQU	$EC00
2329:	EC01          	XEC01	EQU	$EC01
2330:	F044          	XF044	EQU	$F044
2331:	F05A          	XF05A	EQU	$F05A
2332:	F060          	XF060	EQU	$F060
2333:	F07E          	XF07E	EQU	$F07E
2334:	F08B          	XF08B	EQU	$F08B
2335:			;
2336:	3EFD          		END



Error + Warning report:

    11 errors
     0 warnings
     3 U -- Undeclared error
     8 V -- Value error

     6	passes
     0	jr promotions
   346	symbols
     0	bytes



Symbol Table:

x0000          =   0+    x3335           3335     x3b98          =3b98+    
x0001          =   1+    x3338           3338     x3bb0           3ba0     
x0002          =   2+    x3343           3343     x3bca           3bba     
x0028          =  28+    x334e           334e     x3bcb           3bbb     
x002b          =  2b+    x3354           3354     x3c0a           3bfa     
x0033          =  33+    x3362           3362     x3c0d           3bfd     
x003b          =  3b+    x3376           3376     x3c0e          =3c0e+    
x003e          =  3e+    x3383           3383     x3c11          =3c11+    
x0040          =  40+    x3385           3385     x3c15           3c05     
x004f          =  4f+    x3399           3399     x3c18           3c08     
x0060          =  60+    x33a3           33a3     x3c1d           3c0d     
x017d          = 17d+    x33c4           33c4     x3c20          =3c20+    
x017f          = 17f+    x33ef           33ef     x3c28          =3c28+    
x0183          = 183+    x33f3           33f3     x3c37           3c27     
x018e          = 18e+    x33fa           33fa     x3c3b           3c2b     
x0190          = 190+    x341a           341a     x3c42           3c32     
x01ab          = 1ab+    x3424           3424     x3c52           3c42     
x01ff          = 1ff+    x342b           342b     x3c72          =3c72+    
x0204          = 204+    x344f           344f     x3c7f           3c6f     
x0218          = 218+    x3468           3468     x3c8f          =3c8f+    
x0232          = 232+    x346e           346e     x3c9f           3c8f     
x0318          = 318+    x3474           3474     x3ca4           3c94     
x0320          = 320+    x347a           347a     x3cb2           3ca2     
x0325          = 325+    x3480           3480     x3cc0           3cb0     
x0370          = 370+    x3490           3490     x3cc3           3cb3     
x0384          = 384+    x34be           34be     x3cca           3cba     
x03e3          = 3e3+    x34bf           34bf     x3ccb          =3ccb+    
x03f1          = 3f1+    x34c2           34c2     x3cd5           3cc5     
x03ff          = 3ff+    x34d5           34d5     x3cd8           3cc8     
x04a9          = 4a9+    x34f0           34f0     x3cdb           3ccb     
x04f5          = 4f5+    x34f3           34f3     x3ce2           3cd2     
x0500          = 500+    x3535           3535     x3ce6           3cd6     
x068e          = 68e+    x3539           3539     x3cf2           3ce2     
x0708          = 708+    x3566           3566     x3cf4           3ce4     
x0716          = 716+    x357a           357a     x3cf7           3ce7     
x0780          = 780+    x3597           3597     x3d07           3cf7     
x08a2          = 8a2+    x359f           359f     x3d0e           3cfe     
x0982          = 982+    x35a3           35a3     x3d11          =3d11+    
x098d          = 98d+    x35ab          =35ab+    x3d20           3d10     
x09a4          = 9a4+    x35bc           35bc     x3d60           3d50     
x09b4          = 9b4+    x35c9          =35c9+    x3d81           3d71     
x09bf          = 9bf+    x35e1           35e1     x3da1           3d91     
x09d2          = 9d2+    x35e6           35e6     x3da2           3d92     
x09fc          = 9fc+    x35ed           35eb     x3da3           3d93     
x0a7f          = a7f+    x35f4           35f2     x3dd4           3dc4     
x0a9a          = a9a+    x3609           3605     x3dd6           3dc6     
x0adb          = adb+    x360b          =360b+    x3de7           3dd7     
x0aec          = aec+    x360e           360a     x3dea           3dda     
x0bc7          = bc7+    x3610          =3610+    x3deb          =3deb+    
x0bd2          = bd2+    x3615           3611     x3dee           3dde     
x0bf2          = bf2+    x3627           3623     x3df6           3de6     
x0c70          = c70+    x362f           362b     x3e00          =3e00+    
x11d9          =11d9+    x3641          =3641+    x3e03          =3e03+    
x13e7          =13e7+    x3686           367e     x3e18           3e08     
x1997          =1997+    x36b7           36ab     x3e41           3e31     
x1b4d          =1b4d+    x36d3          =36d3+    x3e70           3e60     
x1b80          =1b80+    x36d9           36cd     x3eb9           3ea9     
x1bb3          =1bb3+    x36f7           36eb     x3ee5           3ed5     
x1d1e          =1d1e+    x36f8           36ec     x3efc           3efc     
x1d78          =1d78+    x3720           3714     x4020          =4020+    
x1d9b          =1d9b+    x3735           3729     x4028          =4028+    
x1dbe          =1dbe+    x3744           3738     x4036          =4036+    
x1e4a          =1e4a+    x3753           3747     x409f          =409f+    
x1f04          =1f04+    x376a           375e     x40af          =40af+    
x1f26          =1f26+    x3773           3767     x40f3          =40f3+    
x21b3          =21b3+    x3778           376c     x411d          =411d+    
x21d0          =21d0+    x377c           3770     x4121          =4121+    
x21f5          =21f5+    x37c1           37b5     x4130          =4130+    
x2237          =2237+    x37c6           37ba     x4148          =4148+    
x223c          =223c+    x3827           381b     x4152          =4152+    
x223e          =223e+    x3839          =3839+    x429e          =429e+    
x22fe          =22fe+    x3865           3859     x4309          =4309+    
x2328          =2328+    x387d           3871     x4315          =4315+    
x2337          =2337+    x38b6           38aa     x43c0          =43c0+    
x2338          =2338+    x38ba           38ae     x43da          =43da+    
x2490          =2490+    x38df           38d3     x4436          =4436+    
x252f          =252f+    x3902           38f6     x4439          =4439+    
x260d          =260d+    x3915           3909     x4442          =4442+    
x27f8          =27f8+    x393b           392f     x44ef          =44ef+    
x2819          =2819+    x394c           3940     x4545          =4545+    
x2828          =2828+    x3952           3946     x46a7          =46a7+    
x28a7          =28a7+    x3980           3974     x46a9          =46a9+    
x29d7          =29d7+    x3990           3984     x490f          =490f+    
x29da          =29da+    x3991           3985     x494c          =494c+    
x2a0f          =2a0f+    x399f           3993     x4b41          =4b41+    
x2b17          =2b17+    x39ac           39a0     x4c41          =4c41+    
x2b1b          =2b1b+    x39af           39a3     x4cee          =4cee+    
x2b1c          =2b1c+    x39b4           39a8     x4d36          =4d36+    
x2c05          =2c05+    x3a26           3a1a     x4e99          =4e99+    
x2c2f          =2c2f+    x3a29           3a1d     x4ecf          =4ecf+    
x2c6b          =2c6b+    x3a2c           3a20     x4f43          =4f43+    
x3000          =3000+    x3a2d           3a21     x5000          =5000+    
x3039          =3039+    x3a37           3a2b     x507e          =507e+    
x303a          =303a+    x3a3b           3a2f     x5125          =5125+    
x303b          =303b+    x3a3e           3a32     x5140          =5140+    
x303d          =303d+    x3a49           3a3d     x5244          =5244+    
x303e          =303e+    x3a50           3a44     x548d          =548d+    
x3042          =3042+    x3a64           3a58     x554f          =554f+    
x3043          =3043+    x3a70           3a64     x5844          =5844+    
x3139          =3139+    x3a81           3a75     x6431          =6431+    
x3155          =3155+    x3a8b           3a7f     x65cd          =65cd+    
x317a          =317a+    x3ab3           3aa7     x666a          =666a+    
x3186          =3186+    x3ae3           3ad7     x8135          =8135+    
x3189          =3189+    x3b1b           3b0f     xd30a          =d30a+    
x3232          =3232+    x3b2f           3b23     xd7db          =d7db+    
x3248           3248     x3b3a           3b2e     xdfbf          =dfbf+    
x3249           3249     x3b40           3b34     xec00          =ec00+    
x3261           3261     x3b50           3b42     xec01          =ec01+    
x326b           326b     x3b56           3b46     xf044          =f044+    
x32a7           32a7     x3b6d          =3b6d+    xf05a          =f05a+    
x32ae           32ae     x3b71          =3b71+    xf060          =f060+    
x32b7           32b7     x3b7b           3b6b     xf07e          =f07e+    
x32bf           32bf     x3b82          =3b82+    xf08b          =f08b+    
x32d0           32d0     x3b87           3b77     
x3328           3328     x3b97           3b87     
