   1:				include	common.inc
**** common.inc ****
   1:			;
   2:			;=======================================================================
   3:			;
   4:			; CP/M 3 Z80 DarkStar (NE Z80) Porting
   5:			;
   6:			;=======================================================================
   7:			;;---------------------------------------------------------------------
   8:			;; Version      : 1.0 - 20140904
   9:			;; Assemble     : m80
  10:			;; Revisions:
  11:			;; 20140904	- Code start
  12:			;;---------------------------------------------------------------------
  13:			;
  14:			; Here just some common symbol...
  15:			;
  16:				; SYSBIOS equates
  17:				include	darkstar.equ
**** darkstar.equ ****
   1:			;****** Equ's file autogenerated by genequs ver: 1.0
   2:			;****** Input files:
   3:			;****** SysCommon.lst
   4:	FDC4          	FIN            	EQU	0FDC4H
   5:	FD89          	DLY1           	EQU	0FD89H
   6:	FD87          	DLY2           	EQU	0FD87H
   7:	FDE1          	FOUT           	EQU	0FDE1H
   8:	FE70          	U1NUL          	EQU	0FE70H
   9:	FE25          	U0ISR          	EQU	0FE25H
  10:	FE59          	U1ISR          	EQU	0FE59H
  11:	FD85          	DELAY          	EQU	0FD85H
  12:	FE4E          	UISRE          	EQU	0FE4EH
  13:	FDB5          	FSTAT          	EQU	0FDB5H
  14:	FE32          	UISRI          	EQU	0FE32H
  15:	FC4B          	BBU1ST         	EQU	0FC4BH
  16:	FC45          	BBU1RX         	EQU	0FC45H
  17:	FC3F          	BBU1TX         	EQU	0FC3FH
  18:	FD29          	BBEXEC         	EQU	0FD29H
  19:	FCFF          	BBHDRD         	EQU	0FCFFH
  20:	FD6A          	BBVOID         	EQU	0FD6AH
  21:	FE86          	UASTKB         	EQU	0FE86H
  22:	FD6B          	MMPMAP         	EQU	0FD6BH
  23:	FE0F          	INTRDI         	EQU	0FE0FH
  24:	FC2D          	SCONIN         	EQU	0FC2DH
  25:	FC15          	VCONIN         	EQU	0FC15H
  26:	FCDB          	BBDIV16        	EQU	0FCDBH
  27:	FCF9          	BBHDWR         	EQU	0FCF9H
  28:	FD78          	MMGETP         	EQU	0FD78H
  29:	FDFE          	INTREN         	EQU	0FDFEH
  30:	FE79          	RLDROM         	EQU	0FE79H
  31:	FCE1          	BBMUL16        	EQU	0FCE1H
  32:	FC00          	SYSCOM         	EQU	0FC00H
  33:	FE84          	UASTAV         	EQU	0FE84H
  34:	FE19          	SYTIMR         	EQU	0FE19H
  35:	FC33          	SCONST         	EQU	0FC33H
  36:	FC1B          	VCONST         	EQU	0FC1BH
  37:	FC39          	BBU0INI        	EQU	0FC39H
  38:	FC51          	BBU1INI        	EQU	0FC51H
  39:	FC87          	BBFREAD        	EQU	0FC87H
  40:	FD23          	BBEIDCK        	EQU	0FD23H
  41:	FD05          	BBHDGEO        	EQU	0FD05H
  42:	FEB4          	BBSTACK        	EQU	0FEB4H
  43:	FC81          	BBFHOME        	EQU	0FC81H
  44:	FD94          	BBCONIN        	EQU	0FD94H
  45:	FC27          	CRDUREG        	EQU	0FC27H
  46:	FFF0          	SINTVEC        	EQU	0FFF0H
  47:	FEB4          	SYSCMLO        	EQU	0FEB4H
  48:	FE22          	VOIDISR        	EQU	0FE22H
  49:	FC9F          	BBSTTIM        	EQU	0FC9FH
  50:	FDAA          	BBCONST        	EQU	0FDAAH
  51:	FC27          	SCONOUT        	EQU	0FC27H
  52:	FC0F          	VCONOUT        	EQU	0FC0FH
  53:	FCE7          	BBOFFCAL       	EQU	0FCE7H
  54:	FC57          	BBINICTC       	EQU	0FC57H
  55:	FE90          	BBSTBASE       	EQU	0FE90H
  56:	FC5D          	BBRESCTC       	EQU	0FC5DH
  57:	FCA5          	BBRDTIME       	EQU	0FCA5H
  58:	FD5A          	BBCALRET       	EQU	0FD5AH
  59:	FCB7          	BBDMASET       	EQU	0FCB7H
  60:	FC00          	BBJTOBNK       	EQU	0FC00H
  61:	FCBD          	BBDSKSEL       	EQU	0FCBDH
  62:	FCED          	BBHDINIT       	EQU	0FCEDH
  63:	FCB1          	BBSECSET       	EQU	0FCB1H
  64:	FD0B          	BBHDBOOT       	EQU	0FD0BH
  65:	FC69          	BBUPLCHR       	EQU	0FC69H
  66:	FC99          	BBPRNCHR       	EQU	0FC99H
  67:	FCC9          	BBVCPMBT       	EQU	0FCC9H
  68:	FC93          	BBFLOPIO       	EQU	0FC93H
  69:	FD1D          	BBEPMNGR       	EQU	0FD1DH
  70:	FCCF          	BBSIDSET       	EQU	0FCCFH
  71:	FD11          	BBLDPART       	EQU	0FD11H
  72:	FC75          	BBRDVDSK       	EQU	0FC75H
  73:	FC8D          	BBFWRITE       	EQU	0FC8DH
  74:	FCC3          	BBCPBOOT       	EQU	0FCC3H
  75:	FC21          	BBCURSET       	EQU	0FC21H
  76:	FCAB          	BBTRKSET       	EQU	0FCABH
  77:	FC7B          	BBWRVDSK       	EQU	0FC7BH
  78:	FD9F          	BBCONOUT       	EQU	0FD9FH
  79:	FCF3          	BBDRIVEID      	EQU	0FCF3H
  80:	FC63          	BBPSNDBLK      	EQU	0FC63H
  81:	FC03          	BBCRTCINI      	EQU	0FC03H
  82:	FC6F          	BBPRCVBLK      	EQU	0FC6FH
  83:	FC09          	BBCRTFILL      	EQU	0FC09H
  84:	FCD5          	BBFDRVSEL      	EQU	0FCD5H
  85:	FD17          	BBDPRMSET      	EQU	0FD17H
  86:			;****** EOF ***
  87:			
**** common.inc ****
  18:			
  19:	FFFF          	TRUE	EQU	-1
  20:	0000          	FALSE	EQU	0
  21:			
  22:			
  23:				; determine if for bank select or not:
  24:	FFFF          	BANKED	EQU	TRUE		;< ... BANKED VERSION
  25:	FFFF          	ZPM3	EQU	TRUE		; ZPM3 build ?
  26:			
  27:				;
  28:				; some other equs...
  29:				;
  30:	000D          	CR	EQU     0DH		; CARRIAGE RETURN
  31:	000A          	LF	EQU     0AH		; LINE FEED;
  32:	000C          	FF	EQU	0CH		; FORM FEED (clear screen)
  33:			
  34:			
  35:			;
  36:			; COMMON.ASM [EOF]
  37:			
**** zccp.com.z80 ****
   2:				include syshw.inc
**** syshw.inc ****
   1:			;
   2:			;=======================================================================
   3:			;
   4:			; Modular Z80 DarkStar (NE Z80) SysBios
   5:			;
   6:			;=======================================================================
   7:			;
   8:			; Original code:
   9:			; Z80 Nuova Elettronica Monitor 390 su eprom 2532 (4k)
  10:			;
  11:			; Disassembled and reconstructed by
  12:			; Piergiorgio Betti <pbetti@lpconsul.net> on 2005 01 26
  13:			;
  14:			; Latest non modular BIOS is DARKSTAR-MONITOR-0.9.0.asm
  15:			; dated 20140531
  16:			; - Following addition of MultiF-Board doing complete rewrite of the
  17:			;   monitor/BIOS has been started.
  18:			;   Major goals:
  19:			;   o Modularization: Now monitor can grow up to 256kb instead of 4kb
  20:			;     :-)
  21:			;   o Specialized images fitted in memory page (4kb) or multiples
  22:			;   o Full support for new hardware
  23:			;   o I/O rewrite for MODE 2 interrupts
  24:			;   Minor goals:
  25:			;   o Full code clean-up & reoarganization
  26:			; ---------------------------------------------------------------------
  27:			; Revisions:
  28:			; 20140905 - Modified hexadecimal constants to 0xxH format to widely
  29:			;            accepeted by different assemblers
  30:			; ---------------------------------------------------------------------
  31:			
  32:			
  33:			; ---------------------------------------------------------------------
  34:			; SYSBIOS
  35:			;
  36:			; This is the BIOS non-resident portion of the new (banked)
  37:			; BIOS/Monitor for the NE Z80 (aka DarkStar)
  38:			;
  39:			; ---------------------------------------------------------------------
  40:			;
  41:			; Full BIOS memory scheme:
  42:			;
  43:			;	+-----------------+
  44:			;	+    SysCommon    +   <-- Resident portion. Common to all images
  45:			;	+   FC00 - FFFF   +
  46:			;	+-----------------+
  47:			;	+-----------------+   +-----------------+   +-----------------+
  48:			;	+     SysBios     +   +   BootMonitor   +   +     [Other]     +
  49:			;	+   F000 - FBFF   +   +   F000 - FBFF   +   +   F000 - FBFF   +
  50:			;	+-----------------+   +-----------------+   +-----------------+
  51:			;
  52:			;	         ^                     ^                     ^
  53:			;	         |                     |                     |
  54:			;	         ---------------------------------------------
  55:			;	                      Variable section
  56:			;
  57:			; The above are always assembled at ORG F000 and linked and allocated
  58:			; in the EEPROM in this way:
  59:			;
  60:			;	+-----------------+
  61:			;	+    SysCommon    +
  62:			;	+   FC00 - FFFF   +
  63:			;	+     SysBios     +     <-- EEPROM page 1 ($C1000)
  64:			;	+   F000 - FBFF   +
  65:			;	+-----------------+
  66:			;	+-----------------+
  67:			;	+    SysCommon    +
  68:			;	+   FC00 - FFFF   +
  69:			;	+   BootMonitor   +     <-- EEPROM page 0 ($C0000)
  70:			;	+   F000 - FBFF   +
  71:			;	+-----------------+
  72:			;
  73:			; ---------------------------------------------------------------------
  74:			;
  75:			; Define which assembler we are using
  76:			;
  77:			
  78:			; PASMO	EQU	1
  79:	0001          	MZMAC	EQU	1
  80:			; ZMAC	EQU	1			; ZMAC Z80 assembler, not Linux/Unix version
  81:			
  82:			; ... only one at a time can be active (1) ...
  83:			
  84:			;
  85:			; Monitor version numbers (major.minor)
  86:			;
  87:	0033          	MONMAJ		EQU	'3'
  88:	0032          	MONMIN		EQU	'2'
  89:			
  90:			;
  91:			; Buffers addresses labels
  92:			;
  93:			
  94:			; -- Global --
  95:	0003          	IOBYTE		EQU	0003H		; byte: Intel IOBYTE (CP/M 2.2 only)
  96:	0004          	CDISK		EQU	0004H		; byte: Last logged drive
  97:	0006          	BTPASIZ		EQU	0006H		; word: size of tpa + 1
  98:			;
  99:			; -- Private --
 100:	000B          	HMEMPAG		EQU	000BH		; byte: highest ram page
 101:	000C          	BBCBANK		EQU	000CH		; byte: current bank
 102:	000D          	BBCSTCK		EQU	000DH		; word: current stack
 103:					;
 104:	004F          	PRVTOP		EQU	004FH		; top of private area storage
 105:	004F          	COLBUF		EQU	PRVTOP		; byte:
 106:	004E          	DSELBF		EQU	COLBUF-1	; byte: floppy drive select status
 107:								; - bits: 0 = drive 0
 108:								; - bits: 1 = drive 1
 109:								; - bits: 2 = drive 2
 110:								; - bits: 3 = drive 3
 111:								; - bits: 4 = unused
 112:								; - bits: 5 = head select
 113:								; - bits: 6 = motor on (disabled by jumper)
 114:								; - bits: 7 = unused
 115:	004D          	KBDBYTE		EQU	DSELBF-1	; byte: store keyboard input
 116:	004C          	MIOBYTE		EQU	KBDBYTE-1	; byte:
 117:								; - bits: 0: 0 = floppy write		1 = floppy read
 118:								;         1: 0 = no ctrl on keypress	1 = ctrl on keypress
 119:								;         2: 0 = scroll			1 = no scroll
 120:								;         3: 0 = accept lowercase	1 = convert to uppercase
 121:								;         4: 0 = destr. bkspace		1 = non destr. bkspace
 122:								;         5: 0 = console out		1 = serial out
 123:								;         6: 0 = disp. all chars	1 = obscure non punct.
 124:								;         7: 0 = ctrl chr set 1		1 = ctrl chr set 2
 125:	004B          	TMPBYTE		EQU	MIOBYTE-1	; byte: transients flags
 126:								; - bits: 0: 0 = high in cursor addressing
 127:								;         1: 0 = ESC catched by ANSI driver
 128:								;         2: 0 = CSI catched by ANSI driver
 129:								;         3: 0 = Two byte code ESC seq. from serial
 130:								;         4: 0 = Plain serial i/o (disable ANSI driver)
 131:								;         5: 0 = store interrupt status (on/off)
 132:								;         6: 0 = floppy home on err	1 = no home on err
 133:								;         7: 0 = unlock LBA free addressing (unpartitioned)
 134:	004A          	CURSSHP		EQU	TMPBYTE-1	; cursor shape
 135:	0048          	CURPBUF		EQU	CURSSHP-2	; word: cursor position
 136:	0046          	FTRKBUF		EQU	CURPBUF-2	; word: track # for i/o (0 - 65535)
 137:	0045          	FDRVBUF		EQU	FTRKBUF-1	; byte: drive number for i/0 (0 - 15)
 138:	0043          	FSECBUF		EQU	FDRVBUF-2	; word: sector # for i/o (1 .. 65535)
 139:	0041          	FRDPBUF		EQU	FSECBUF-2	; word: dma address for i/o
 140:	003F          	FSEKBUF		EQU	FRDPBUF-2	; word: current track number for drive A/B
 141:	003E          	RAM3BUF		EQU	FSEKBUF-1	; byte:
 142:	003D          	RAM2BUF		EQU	RAM3BUF-1	; byte:
 143:	003C          	RAM1BUF		EQU	RAM2BUF-1	; byte:
 144:	003B          	RAM0BUF		EQU	RAM1BUF-1	; byte:
 145:	003A          	RST7SP3		EQU	003AH		; keep clear area of RST38 (RST7)
 146:	0039          	RST7SP2		EQU	0039H
 147:	0038          	RST7SP1		EQU	0038H
 148:	002F          	VDSKBUF		EQU	RST7SP1-9	; table: 9 bytes command structure buffer
 149:	002D          	APPBUF		EQU	VDSKBUF-2	; word: generic buffer
 150:	002C          	COPSYS		EQU	APPBUF-1	; Op system type for partition selection
 151:	002B          	UART0BR		EQU	COPSYS-1	; UART 0 baudrate
 152:	002A          	UART1BR		EQU	UART0BR-1	; UART 1 baudrate
 153:	0029          	CTC0TC		EQU	UART1BR-1	; CTC channel 0 time constant
 154:	0028          	CTC1TC		EQU	CTC0TC-1	; CTC channel 1 time constant
 155:	0027          	TIMRCON		EQU	CTC1TC-1	; timer buf
 156:	0026          	CNFBYTE		EQU	TIMRCON-1	; config byte
 157:								; - bits: 0: 0 = UART1 intr disabled	1 = RST8 redir UART1
 158:								;         1: 0 = unused/reserved
 159:								;         2: 0 = unused/reserved
 160:								;         3: 0 = unused/reserved
 161:								;         4: 0 = unused/reserved
 162:								;         5: 0 = unused/reserved
 163:								;         6: 0 = unused/reserved
 164:								;         7: 0 = unused/reserved
 165:	000F          	FIFOSTO		EQU	000FH		; fifo queues storage start
 166:	0008          	FIFSIZE		EQU	8		; fifo queue lenght
 167:	000B          	FIFBLOK		EQU	11		; fifo queue size
 168:	000F          	FIFOU0		EQU	FIFOSTO		; uart 0 queue (alternate console)
 169:	001A          	FIFOKB		EQU	FIFOU0+FIFBLOK	; keyboard queue
 170:	0025          	FIFOEND		EQU	FIFOKB+FIFBLOK	; fifo blocks end
 171:			;
 172:	3000          	BLDOFFS		EQU	3000H		; place for disk bootloader
 173:			
 174:			;
 175:			; Some commodity equs
 176:			;
 177:	000D          	CR		EQU	0DH		; ascii CR & LF
 178:	000A          	LF		EQU	0AH
 179:	000C          	FF		EQU	0CH		; FORM FEED (clear screen)
 180:	001B          	ESC		EQU	1BH		; ESCape
 181:	FFFF          	TRUE		EQU	-1
 182:	0000          	FALSE		EQU	0
 183:	0100          	TPA		EQU	0100H		; TPA base address (for CP/M)
 184:			
 185:			;
 186:			; Modules equs
 187:			;
 188:				; delay
 189:	00F6          	MSCNT		EQU	246
 190:				; mmu
 191:	000D          	MMUTSTPAGE	EQU	0DH		; logical page used for sizing
 192:	D000          	MMUTSTADDR	EQU	MMUTSTPAGE<<12	; logical page used for sizing
 193:			
 194:			; Conventionally all bios/monitor images start at $F000.
 195:			; Except for special cases all code is copied to ram @ $F000.
 196:			; In this case eeprom page 0 is directly mapped into logical space
 197:			; by hardware so we can initialize the system at cold boot.
 198:			;
 199:			; We assume to initialize MMU as follow:
 200:			;
 201:			; +--------+
 202:			; |  F000  |	-> $C0000  eeprom page 0
 203:			; +--------+
 204:			; +--------+
 205:			; |  EFFF  |
 206:			; +--------+
 207:			;     ...       -> $00000 to $0EFFF ram
 208:			; +--------+
 209:			; |  0000  |
 210:			; +--------+
 211:			;
 212:			
 213:			
 214:			; include	modules/hwequs.inc.asm
 215:			; Hardware equates
 216:			; ---------------------------------------------------------------------
 217:			
 218:			; ---------------------------------------------------------------------
 219:			; LX529 VIDEO BOARD:
 220:			; ---------------------------------------------------------------------
 221:	0080          	CRTBASE		EQU	80H
 222:				; RAM0 for ascii chars & semi6. Combined with RAM1 and RAM2 for graphics
 223:	0080          	CRTRAM0DAT	EQU	CRTBASE		; RAM0 access: PIO0 port A data register
 224:	0082          	CRTRAM0CNT	EQU	CRTBASE+2	; RAM0 access: PIO0 port A control register
 225:				; Printer port
 226:	0081          	CRTPRNTDAT	EQU	CRTBASE+1	; PRINTER (output): PIO0 port B data register
 227:	0083          	CRTPRNTCNT	EQU	CRTBASE+3	; PRINTER (output): PIO0 port B control register
 228:								; STROBE is generated by hardware
 229:				; RAM1 for graphics. (pixel index by RAM0+RAM1+RAM2)
 230:	0084          	CRTRAM1DAT	EQU	CRTBASE+4	; RAM1 access: PIO1 port A data register
 231:	0086          	CRTRAM1CNT	EQU	CRTBASE+6	; RAM1 access: PIO1 port A control register
 232:				; Keyboard port (negated). Bit 7 is for strobe
 233:	0085          	CRTKEYBDAT	EQU	CRTBASE+5	; KEYBOARD (input): PIO1 port B data register
 234:	0087          	CRTKEYBCNT	EQU	CRTBASE+7	; KEYBOARD (input): PIO1 port B control register
 235:	0007          	KEYBSTRBBIT	EQU	7		; Strobe bit
 236:				; RAM2 for graphics. (pixel index by RAM0+RAM1+RAM2)
 237:	0088          	CRTRAM2DAT	EQU	CRTBASE+8	; RAM2 access: PIO2 port A data register
 238:	008A          	CRTRAM2CNT	EQU	CRTBASE+10	; RAM2 access: PIO2 port A control register
 239:				; Service/User port
 240:	0089          	CRTSERVDAT	EQU	CRTBASE+9	; Service (i/o): PIO2 port B data register
 241:	008B          	CRTSERVCNT	EQU	CRTBASE+11	; Service (i/o): PIO2 port B control register
 242:	0000          	PRNTBUSYBIT	EQU	0		; Printer BUSY bit		(in)	1
 243:	0001          	CRTWIDTHBIT	EQU	1		; Set 40/80 chars per line	(out)	0
 244:	0002          	PIO2BIT2	EQU	2		; user 1 (input)		(in)	1
 245:	0003          	PIO2BIT3	EQU	3		; user 2 (input)		(in)	1
 246:	0004          	PIO2BIT4	EQU	4		; user 3 (input)		(in)	1
 247:	0005          	CLKSCLK		EQU	5		; DS1320 clock line		(out)	0
 248:	0006          	CLKIO		EQU	6		; DS1320 I/O line		(i/o)	1
 249:	0007          	CLKRST		EQU	7		; DS1320 RST line		(out)	0
 250:				; normal set for PIO2 (msb) 01011101 (lsb) that is hex $5D
 251:								; Other bits available to user
 252:				; RAM3 control chars/graphics attributes
 253:	008E          	CRTRAM3PORT	EQU	CRTBASE+14	; RAM3 port
 254:	0000          	CRTBLINKBIT	EQU	0		; Blink
 255:	0001          	CRTREVRSBIT	EQU	1		; Reverse
 256:	0002          	CRTUNDERBIT	EQU	2		; Underline
 257:	0003          	CRTHILITBIT	EQU	3		; Highlight
 258:	0004          	CRTMODEBIT	EQU	4		; ASCII/GRAPHIC mode
 259:				; Beeper port
 260:	008F          	CRTBEEPPORT	EQU	CRTBASE+15	; Beeper port
 261:				; 6545 CRT controller ports
 262:	008C          	CRT6545ADST	EQU	CRTBASE+12	; Address & Status register
 263:	008D          	CRT6545DATA	EQU	CRTBASE+13	; Data register
 264:				; Cursor modes
 265:	0040          	BLISLOWBLOK	EQU	40H		; Blink, slow, block
 266:	004A          	BLISLOWLINE	EQU	4AH		; Blink, slow, line
 267:	0060          	BLIFASTBLOK	EQU	60H		; Blink, fast, block
 268:	006A          	BLIFASTLINE	EQU	6AH		; Blink, fast, line
 269:	0020          	CURSOROFF	EQU	20H		; Off
 270:	0000          	FIXBLOCK	EQU	00H		; Fixed, block
 271:	000A          	CURSORON	EQU	0AH		; On
 272:			
 273:			; ---------------------------------------------------------------------
 274:			; LX390 FDC CONTROLLER:
 275:			; ---------------------------------------------------------------------
 276:	00D0          	FDCBASE		EQU	0D0H
 277:	00D0          	FDCCMDSTATR	EQU	FDCBASE		; Command and status register
 278:	00D1          	FDCTRAKREG	EQU	FDCBASE+1	; Track register
 279:	00D2          	FDCSECTREG	EQU	FDCBASE+2	; Sector register
 280:	00D7          	FDCDATAREG	EQU	FDCBASE+7	; Data register *** Verificare che sia $d7
 281:	00D6          	FDCDRVRCNT	EQU	FDCBASE+6	; Driver select/control register
 282:			;
 283:	0007          	FDCRESTC	EQU	007H		; 1771 restore (seek to trak 0) cmd
 284:	0017          	FDCSEEKC	EQU	017H		; seek cmd
 285:	0088          	FDCREADC	EQU	088H		; read cmd
 286:	00A8          	FDCWRITC	EQU	0A8H		; write cmd
 287:			;
 288:			; ---------------------------------------------------------------------
 289:			; LX389: PARALLEL INTERFACE
 290:			; ---------------------------------------------------------------------
 291:			; alternate printer port
 292:	0003          	ALTPRNPRT	EQU	03H
 293:			;
 294:			; parallel port PC link
 295:	0003          	PPDATAP		EQU	03H		; Data port
 296:	0002          	PPCNTRP		EQU	02H		; Control port
 297:	0000          	PPSTROB		EQU	0		; Strobe bit
 298:	0001          	PPAKSTB		EQU	1		; Acknowledge/Stop bit
 299:			;
 300:	0000          	PPDINI		EQU	00H		; 00000000 Dnl Init byte
 301:	0004          	PPDRDY		EQU	04H		; 00000100 Dnl Ready
 302:	0006          	PPDSTP		EQU	06H		; 00000110 Dnl Stop
 303:	0002          	PPDOKG		EQU	02H		; 00000010 Dnl Ok Go
 304:	0001          	PPUINI		EQU	01H		; 00000001 Upl Init byte
 305:	0005          	PPURDY		EQU	05H		; 00000101 Upl Ready
 306:	0007          	PPUACK		EQU	07H		; 00000111 Upl Acknowledge
 307:	0003          	PPUOKG		EQU	03H		; 00000011 Upl Ok Go
 308:			;
 309:			; virtual disks (PC-linked over parallel port)
 310:	0000          	VDRDSEC		EQU	0		; read sector command
 311:	0001          	VDWRSEC		EQU	1		; write sector command
 312:	000A          	VDBUFSZ		EQU	10		; 9 bytes block
 313:			; ---------------------------------------------------------------------
 314:			; MULTF-BOARD: MMU, IDE, SERIAL, CTC
 315:			; ---------------------------------------------------------------------
 316:			; -- I/O --
 317:	0020          	MMUPORT		EQU	20H
 318:	0021          	MENAPRT		EQU	21H
 319:			; -- Map --
 320:	00C0          	EEPAGE0		EQU	0C0H		; page 0 of eeprom
 321:	F000          	EEPSTA		EQU	0F000H		; eeprom location after MMU reset
 322:	00EF          	MMTPAPAG	EQU	(EEPSTA>>8)-1	; TPA top page (256 bytes pages)
 323:	00FF          	IMTPAG		EQU	0FFH		; eeprom page with image table
 324:	0400          	IMTSIZ		EQU	1024		; size
 325:	E000          	RAMTBL		EQU	0E000H		; ram table location
 326:	0030          	TBLBLK		EQU	48		; block size
 327:	0014          	MAXBLK		EQU	20		; max images
 328:	03C0          	RTBSIZ		EQU	TBLBLK * MAXBLK	; real table size
 329:								; A table block is:
 330:	0008          	TNAMELEN	EQU	8		;	name		: 8 bytes
 331:	0002          	TPAGELEN	EQU	2		;	page offset	: 2 bytes
 332:	0004          	TIADDRLEN	EQU	4		;	image address	: 4 bytes
 333:	0004          	TSIZELEN	EQU	4		;	image size	: 4 bytes
 334:	0014          	TDESCLEN	EQU	20		;	description	: 20 bytes
 335:			; -- IDE --
 336:	00E0          	IDEPORTA	EQU	0E0H		;lower 8 bits of IDE interface
 337:	00E1          	IDEPORTB	EQU	0E1H		;upper 8 bits of IDE interface
 338:	00E2          	IDEPORTC	EQU	0E2H		;control lines for IDE interface
 339:	00E3          	IDEPORTCTRL	EQU	0E3H		;8255 configuration port
 340:			
 341:	0092          	READCFG8255	EQU	10010010b	;Set 8255 IDEportC to output, IDEportA/B input
 342:	0080          	WRITECFG8255	EQU	10000000b	;Set all three 8255 ports to output mode
 343:			;IDE control lines for use with IDEportC.
 344:	0001          	IDEA0LINE	EQU	01H		;direct from 8255 to IDE interface
 345:	0002          	IDEA1LINE	EQU	02H		;direct from 8255 to IDE interface
 346:	0004          	IDEA2LINE	EQU	04H		;direct from 8255 to IDE interface
 347:	0008          	IDECS0LINE	EQU	08H		;inverter between 8255 and IDE interface
 348:	0010          	IDECS1LINE	EQU	10H		;inverter between 8255 and IDE interface
 349:	0020          	IDEWRLINE	EQU	20H		;inverter between 8255 and IDE interface
 350:	0040          	IDERDLINE	EQU	40H		;inverter between 8255 and IDE interface
 351:	0080          	IDERSTLINE	EQU	80H		;inverter between 8255 and IDE interface
 352:			;Symbolic constants for the IDE Drive registers
 353:	0008          	REGDATA		EQU	IDECS0LINE
 354:	0009          	REGERR		EQU	IDECS0LINE + IDEA0LINE
 355:	000A          	REGSECCNT	EQU	IDECS0LINE + IDEA1LINE
 356:	000B          	REGSECTOR	EQU	IDECS0LINE + IDEA1LINE + IDEA0LINE
 357:	000C          	REGCYLLSB	EQU	IDECS0LINE + IDEA2LINE
 358:	000D          	REGCYLMSB	EQU	IDECS0LINE + IDEA2LINE + IDEA0LINE
 359:	000E          	REGSHD		EQU	IDECS0LINE + IDEA2LINE + IDEA1LINE		;(0EH)
 360:	000F          	REGCOMMAND	EQU	IDECS0LINE + IDEA2LINE + IDEA1LINE + IDEA0LINE	;(0FH)
 361:	000F          	REGSTATUS	EQU	IDECS0LINE + IDEA2LINE + IDEA1LINE + IDEA0LINE
 362:	0016          	REGCONTROL	EQU	IDECS1LINE + IDEA2LINE + IDEA1LINE
 363:	0016          	REGASTATUS	EQU	IDECS1LINE + IDEA2LINE + IDEA1LINE
 364:			;IDE Command Constants.
 365:	0010          	CMDRECAL	EQU	010H
 366:	0020          	CMDREAD		EQU	020H
 367:	0030          	CMDWRITE	EQU	030H
 368:	0091          	CMDINIT		EQU	091H
 369:	00EC          	CMDID		EQU	0ECH
 370:	00E0          	CMDSPINDOWN	EQU	0E0H
 371:	00E1          	CMDSPINUP	EQU	0E1H
 372:			; -- 16C550 UARTS --
 373:	00C0          	UART0BASE	EQU	0C0H		; Port base address for 0
 374:	00C8          	UART1BASE	EQU	0C8H		; Port base address for 1
 375:	00C0          	UART0		EQU	UART0BASE	; Select UART 0
 376:	00C8          	UART1		EQU	UART1BASE	; Select UART 1
 377:	0000          	R0RXTX		EQU	0		; (r/w) RXD/TXD Transmit/Receive Buffer
 378:	0000          	R0BRDL		EQU	0		; (r/w) DLL  if bit 7 of LCR is set: Baud Rate Divisor LSB
 379:	0001          	R1IER		EQU	1		; (r/w) IER - Interrupt Enable Register
 380:	0001          	R1BRDM		EQU	1		; (r/w) DLM if bit 7 of LCR is set: Baud Rate Divisor MSB
 381:	0002          	R2IIR		EQU	2		; (r)   IIR - Interrupt Identification Register
 382:	0002          	R2FCR		EQU	2		; (w)   FCR - FIFO Control Register
 383:	0003          	R3LCR		EQU	3		; (r/w) LCR - Line Control Register
 384:	0004          	R4MCR		EQU	4		; (r/w) MCR - Modem Control Register
 385:	0005          	R5LSR		EQU	5		; (r)   LSR - Line Status Register
 386:	0006          	R6MSR		EQU	6		; (r)   MSR - Modem Status Register
 387:	0007          	R7SPR		EQU	7		; (r/w) SPR - Scratch Pad Register
 388:				; speeds:
 389:	0060          	UART1200	EQU	96		; = 1,843,200 / ( 16 x 1200 )
 390:	0030          	UART2400	EQU	48		; = 1,843,200 / ( 16 x 2400 )
 391:	0018          	UART4800	EQU	24		; = 1,843,200 / ( 16 x 4800 )
 392:	000C          	UART9600	EQU	12		; = 1,843,200 / ( 16 x 9600 )
 393:	0006          	UART19K2	EQU	06		; = 1,843,200 / ( 16 x 19,200 )
 394:	0003          	UART38K4	EQU	03		; = 1,843,200 / ( 16 x 38,400 )
 395:	0002          	UART57K6	EQU	02		; = 1,843,200 / ( 16 x 57,600 )
 396:	0001          	UART115K2	EQU	01		; = 1,843,200 / ( 16 x 115,200 )
 397:			
 398:	0006          	U0DEFSPEED	EQU	UART19K2	; UART 0 default speed
 399:	000C          	U1DEFSPEED	EQU	UART9600	; UART 1 default speed
 400:			; -- Z80CTC --
 401:	00E8          	CTCBASE		EQU	0E8H
 402:	00E8          	CTCCHAN0	EQU	CTCBASE+0	; Channel 1 - Free
 403:	00E9          	CTCCHAN1	EQU	CTCBASE+1	; Channel 2 - System Timer
 404:	00EA          	CTCCHAN2	EQU	CTCBASE+2	; Channel 3 - UART 1 Interrupt
 405:	00EB          	CTCCHAN3	EQU	CTCBASE+3	; Channel 4 - UART 0 Interrupt
 406:	0020          	CTC0TCHI	EQU	32		; hi speed chan. 0 tc: 4Mhz / 256 / 32 = 488.28 Hz
 407:	0005          	CTC1TC100HZ	EQU	5		; lo speed chan. 1 tc: 488.28 Hz / 5 = ~ 97.6 Hz
 408:	000A          	CTC1TC50HZ	EQU	10		; lo speed chan. 1 tc: 488.28 Hz / 10 = ~ 48.8 Hz
 409:	0013          	CTC1TC25HZ	EQU	19		; lo speed chan. 1 tc: 488.28 Hz / 19 = ~ 25 Hz
 410:	0030          	CTC1TC10HZ	EQU	48		; lo speed chan. 1 tc: 488.28 Hz / 48 = ~ 10 Hz
 411:	00F4          	CTC1TC2HZ	EQU	244		; lo speed chan. 1 tc: 488.28 Hz / 244 = ~ 2 Hz
 412:	0013          	SYSHERTZ	EQU	CTC1TC25HZ	; System timer hertz
 413:			; -- EEPROM --
 414:	0001          	EEP29EE		EQU	01H		; type 29EE020
 415:	0002          	EEP29XE		EQU	02H		; type 29LE020 or 29VE020
 416:	0004          	EEP29C		EQU	04H		; type 29C020
 417:	0008          	EEPUNSUPP	EQU	08H		; unsupported
 418:	0010          	EEPROGLOCK	EQU	10H		; programming locked
 419:				;
 420:	0080          	EERINEPROM	EQU	80H		; tried to program eeprom running inside it
 421:			
 422:			;
 423:			; MMU organization
 424:			;
 425:			; MMU manage 16 4kb pages in Z80 address space (logical)
 426:			; It can assign any of 256 4k pages (physical) from its
 427:			; 1Mb address space.
 428:			;
 429:			; To load phisycal page XXh to logical page (in CPU address space) Y,
 430:			; you should consider that MMU is at a fixed address 20h and that
 431:			; logical 4K page Y is derived in the MMU by the usage of A12,A13,A14
 432:			; and A15 address lines during an I/O instruction.
 433:			;
 434:			; So to address phys. ram page 00h at the top of logical space page Fh
 435:			; you need to have Fh * on top address lines * because this address
 436:			; is the index to MMU page.
 437:			;
 438:			; So:
 439:			;
 440:			; 	LD	A,00h		<--- phis. page number	00xxxh (4k page)
 441:			; 	LD	B,F0h		<--- log. page number 	 Fxxxh (cpu page)
 442:			; 	LD	C,20h		<--- MMU I/O address
 443:			; 	OUT	(C),A
 444:			; 	RET
 445:			;
 446:			; The OUT instruction place:
 447:			; A on data lines D0-D7
 448:			; Fh (from B register) on A12-A15
 449:			; on port 20h (C register)
 450:			;
 451:			;
 452:			; Memory is organized as follow:
 453:			;
 454:			;	Slot 1	-> RAM	  -> 512k from 00000h to 7ffffh (mandatory)
 455:			;	Slot 2	-> RAM	  -> 128k from 80000h to 9ffffh (option 1)
 456:			;	Slot 2	-> RAM    -> 256k from 80000h to bffffh (option 2)
 457:			;	Slot 3	-> EEPROM -> 256k from c0000h to fffffh (mandatory)
 458:			;
 459:			
 460:			
 461:			;-------------------------------------
 462:			; Production / Testing
 463:			
 464:	0000          	BBDEBUG	EQU	FALSE
 465:			
 466:			
 467:			;-------------------------------------
 468:			; Segments, pages locations
 469:			
 470:	0000          	IF	BBDEBUG
 476:			ELSE
 477:			
 478:	00C0          	BBIMGP	EQU	EEPAGE0		; Image location
 479:	000E          	BBAPPP	EQU	0EH
 480:	000F          	BBPAG	EQU	0FH		; Base page location
 481:			
 482:			ENDIF
 483:			
 484:	000D          	TRNPAG	EQU	0DH		; Page used for transient MMU ops
 485:	F000          	BBBASE	EQU	BBPAG << 12	; non resident base address
 486:	FC00          	BBCOMN	EQU	BBBASE + 0C00H	; resident portion address
 487:			
 488:	F000          	SYSBASE EQU	BBBASE		; use this to have 60K TPA
 489:			; SYSBASE EQU	BBCOMN		; use this to have 63K TPA
 490:			
 491:			;-------------------------------------
**** zccp.com.z80 ****
   3:			;
   4:			;  MDZ80 V0.9.0 Z80 Disassembly of zccp.com
   5:			;  2014/10/07 12:25
   6:			;
   7:	0100          		ORG	$0100
   8:			;
   9:			; X0100:	JP	X03E3		; 0100  C3 E3 03	Cc.
  10:	0100  C3800D  	X0100:	JP	ZIDRV		; 0100  C3 E3 03	Cc.
  11:			;
  12:	0103  019002  	X0103:	LD	BC,X0290	; 0103  01 90 02	...
  13:	0106  C33901  		JP	X0139		; 0106  C3 39 01	C9.
  14:			;
  15:	0109  C30600  	X0109:	JP	X0006		; 0109  C3 06 00	C..
  16:			;
  17:	010C  07      		DEFB	$07					; 010C .
  18:	010D  0000    	X010D:	DEFB	$00,$00					; 010D ..
  19:			;
  20:	010F  00      		NOP			; 010F  00		.
  21:			;
  22:	0110  4C4F4144		DEFB	'LOADER  ',$FF				; 0110
	      45522020
	      FF
  23:			;
  24:	011B          		ORG	$011B
  25:			;
  26:	011B  00      	X011B:	NOP			; 011B  00		.
  27:			;
  28:	011D          		ORG	$011D
  29:			;
  30:	011D  C33802  	X011D:	JP	X0238		; 011D  C3 38 02	C8.
  31:			;
  32:	0120  C3FB02  	X0120:	JP	X02FB		; 0120  C3 FB 02	C{.
  33:			;
  34:	0123  C33C03  	X0123:	JP	X033C		; 0123  C3 3C 03	C<.
  35:			;
  36:	0126  C32702  	X0126:	JP	X0227		; 0126  C3 27 02	C'.
  37:			;
  38:	0129  C30C02  		JP	X020C		; 0129  C3 0C 02	C..
  39:			;
  40:	012C  DDE5    	X012C:	PUSH	IX		; 012C  DD E5		]e
  41:	012E  FDE5    		PUSH	IY		; 012E  FD E5		}e
  42:	0130  CD0500  		CALL	X0005		; 0130  CD 05 00	M..
  43:	0133  B7      		OR	A		; 0133  B7		7
  44:	0134  FDE1    		POP	IY		; 0134  FD E1		}a
  45:	0136  DDE1    		POP	IX		; 0136  DD E1		]a
  46:	0138  C9      		RET			; 0138  C9		I
  47:			;
  48:	0139  79      	X0139:	LD	A,C		; 0139  79		y
  49:	013A  FE3B    		CP	$3B		; 013A  FE 3B		~;
  50:	013C  20CB    		JR	NZ,X0109	; 013C  20 CB		 K
  51:	013E  ED73CC01		LD	(X01CC),SP	; 013E  ED 73 CC 01	msL.
  52:	0142  31B203  		LD	SP,X03B2	; 0142  31 B2 03	12.
  53:	0145  DD2A1B01		LD	IX,(X011B)	; 0145  DD 2A 1B 01	]*..
  54:	0149  ED53B501		LD	(X01B5),DE	; 0149  ED 53 B5 01	mS5.
  55:	014D  7A      		LD	A,D		; 014D  7A		z
  56:	014E  B3      		OR	E		; 014E  B3		3
  57:	014F  285B    		JR	Z,X01AC		; 014F  28 5B		([
  58:	0151  212100  		LD	HL,X0021	; 0151  21 21 00	!!.
  59:	0154  19      		ADD	HL,DE		; 0154  19		.
  60:	0155  5E      		LD	E,(HL)		; 0155  5E		^
  61:	0156  23      		INC	HL		; 0156  23		#
  62:	0157  56      		LD	D,(HL)		; 0157  56		V
  63:	0158  EB      		EX	DE,HL		; 0158  EB		k
  64:	0159  226D01  		LD	(X016D),HL	; 0159  22 6D 01	"m.
  65:	015C  110900  		LD	DE,X0009	; 015C  11 09 00	...
  66:	015F  19      		ADD	HL,DE		; 015F  19		.
  67:	0160  22C501  		LD	(X01C5),HL	; 0160  22 C5 01	"E.
  68:	0163  CD6B02  		CALL	X026B		; 0163  CD 6B 02	Mk.
  69:	0166  DDCB347E		BIT	7,(IX+$34)	; 0166  DD CB 34 7E	]K4~
  70:	016A  2843    		JR	Z,X01AF		; 016A  28 43		(C
  71:	016C  210000  		LD	HL,X0000	; 016C  21 00 00	!..
  72:	016F  7E      		LD	A,(HL)		; 016F  7E		~
  73:	0170  FEC9    		CP	$C9		; 0170  FE C9		~I
  74:	0172  286F    		JR	Z,X01E3		; 0172  28 6F		(o
  75:	0174  3A0D01  		LD	A,(X010D)	; 0174  3A 0D 01	:..
  76:	0177  B7      		OR	A		; 0177  B7		7
  77:	0178  2013    		JR	NZ,X018D	; 0178  20 13		 .
  78:	017A  2A0A01  		LD	HL,(X010A)	; 017A  2A 0A 01	*..
  79:	017D  CD2E02  		CALL	X022E		; 017D  CD 2E 02	M..
  80:	0180  DD7E19  		LD	A,(IX+$19)	; 0180  DD 7E 19	]~.
  81:	0183  BC      		CP	H		; 0183  BC		<
  82:	0184  2829    		JR	Z,X01AF		; 0184  28 29		()
  83:	0186  2E0C    		LD	L,$0C		; 0186  2E 0C		..
  84:	0188  3607    		LD	(HL),$07	; 0188  36 07		6.
  85:	018A  23      		INC	HL		; 018A  23		#
  86:	018B  3600    		LD	(HL),$00	; 018B  36 00		6.
  87:	018D  DD6E03  	X018D:	LD	L,(IX+$03)	; 018D  DD 6E 03	]n.
  88:	0190  DD6604  		LD	H,(IX+$04)	; 0190  DD 66 04	]f.
  89:	0193  23      		INC	HL		; 0193  23		#
  90:	0194  23      		INC	HL		; 0194  23		#
  91:	0195  23      		INC	HL		; 0195  23		#
  92:	0196  E5      		PUSH	HL		; 0196  E5		e
  93:	0197  ED5B6D01		LD	DE,(X016D)	; 0197  ED 5B 6D 01	m[m.
  94:	019B  13      		INC	DE		; 019B  13		.
  95:	019C  13      		INC	DE		; 019C  13		.
  96:	019D  010600  		LD	BC,X0006	; 019D  01 06 00	...
  97:	01A0  13      	X01A0:	INC	DE		; 01A0  13		.
  98:	01A1  1A      		LD	A,(DE)		; 01A1  1A		.
  99:	01A2  EDA1    		CPI			; 01A2  ED A1		m!
 100:	01A4  E2B401  		JP	PO,X01B4	; 01A4  E2 B4 01	b4.
 101:	01A7  28F7    		JR	Z,X01A0		; 01A7  28 F7		(w
 102:	01A9  E1      		POP	HL		; 01A9  E1		a
 103:	01AA  181B    		JR	X01C7		; 01AA  18 1B		..
 104:			;
 105:	01AC  CD3802  	X01AC:	CALL	X0238		; 01AC  CD 38 02	M8.
 106:	01AF  AF      	X01AF:	XOR	A		; 01AF  AF		/
 107:	01B0  6F      		LD	L,A		; 01B0  6F		o
 108:	01B1  67      		LD	H,A		; 01B1  67		g
 109:	01B2  1813    		JR	X01C7		; 01B2  18 13		..
 110:			;
 111:	01B4  110000  	X01B4:	LD	DE,X0000	; 01B4  11 00 00	...
 112:	01B7  1A      		LD	A,(DE)		; 01B7  1A		.
 113:	01B8  210E00  		LD	HL,X000E	; 01B8  21 0E 00	!..
 114:	01BB  19      		ADD	HL,DE		; 01BB  19		.
 115:	01BC  77      		LD	(HL),A		; 01BC  77		w
 116:	01BD  2B      		DEC	HL		; 01BD  2B		+
 117:	01BE  3E00    		LD	A,$00		; 01BE  3E 00		>.
 118:	01C0  77      		LD	(HL),A		; 01C0  77		w
 119:	01C1  E1      		POP	HL		; 01C1  E1		a
 120:	01C2  AF      		XOR	A		; 01C2  AF		/
 121:	01C3  6F      		LD	L,A		; 01C3  6F		o
 122:	01C4  220901  		LD	(X0109),HL	; 01C4  22 09 01	"..
 123:	01C7  DDCB34BE	X01C7:	RES	7,(IX+$34)	; 01C7  DD CB 34 BE	]K4>
 124:	01CB  310000  		LD	SP,X0000	; 01CB  31 00 00	1..
 125:	01CE  C9      		RET			; 01CE  C9		I
 126:			;
 127:	01CF  23      	X01CF:	INC	HL		; 01CF  23		#
 128:	01D0  4E      		LD	C,(HL)		; 01D0  4E		N
 129:	01D1  23      		INC	HL		; 01D1  23		#
 130:	01D2  46      		LD	B,(HL)		; 01D2  46		F
 131:	01D3  23      		INC	HL		; 01D3  23		#
 132:	01D4  34      		INC	(HL)		; 01D4  34		4
 133:	01D5  280B    		JR	Z,X01E2		; 01D5  28 0B		(.
 134:	01D7  D5      		PUSH	DE		; 01D7  D5		U
 135:	01D8  CD3C03  		CALL	X033C		; 01D8  CD 3C 03	M<.
 136:	01DB  E1      		POP	HL		; 01DB  E1		a
 137:	01DC  CDFB02  		CALL	X02FB		; 01DC  CD FB 02	M{.
 138:	01DF  CD0C02  		CALL	X020C		; 01DF  CD 0C 02	M..
 139:	01E2  E1      	X01E2:	POP	HL		; 01E2  E1		a
 140:	01E3  111000  	X01E3:	LD	DE,X0010	; 01E3  11 10 00	...
 141:	01E6  19      		ADD	HL,DE		; 01E6  19		.
 142:	01E7  E5      		PUSH	HL		; 01E7  E5		e
 143:	01E8  5E      		LD	E,(HL)		; 01E8  5E		^
 144:	01E9  23      		INC	HL		; 01E9  23		#
 145:	01EA  56      		LD	D,(HL)		; 01EA  56		V
 146:	01EB  7B      		LD	A,E		; 01EB  7B		{
 147:	01EC  B2      		OR	D		; 01EC  B2		2
 148:	01ED  20E0    		JR	NZ,X01CF	; 01ED  20 E0		 `
 149:	01EF  CD0301  		CALL	X0103		; 01EF  CD 03 01	M..
 150:	01F2  3A0002  		LD	A,($0200)	; 01F2  3A 00 02	:..
 151:	01F5  FEC9    		CP	$C9		; 01F5  FE C9		~I
 152:	01F7  2004    		JR	NZ,X01FD	; 01F7  20 04		 .
 153:	01F9  DDCB33CE		SET	1,(IX+$33)	; 01F9  DD CB 33 CE	]K3N
 154:	01FD  ED4B0101	X01FD:	LD	BC,(X0101)	; 01FD  ED 4B 01 01	mK..
 155:	0201  210002  		LD	HL,$0200	; 0201  21 00 02	!..
 156:	0204  110001  		LD	DE,X0100	; 0204  11 00 01	...
 157:	0207  EDB0    		LDIR			; 0207  ED B0		m0
 158:	0209  C38D01  		JP	X018D		; 0209  C3 8D 01	C..
 159:			;
 160:	020C  2A0600  	X020C:	LD	HL,(X0006)	; 020C  2A 06 00	*..
 161:	020F  2E00    		LD	L,$00		; 020F  2E 00		..
 162:	0211  010600  		LD	BC,X0006	; 0211  01 06 00	...
 163:	0214  EDB0    		LDIR			; 0214  ED B0		m0
 164:	0216  AF      		XOR	A		; 0216  AF		/
 165:	0217  1E18    		LD	E,$18		; 0217  1E 18		..
 166:	0219  12      		LD	(DE),A		; 0219  12		.
 167:	021A  1E0D    		LD	E,$0D		; 021A  1E 0D		..
 168:	021C  12      		LD	(DE),A		; 021C  12		.
 169:	021D  1B      		DEC	DE		; 021D  1B		.
 170:	021E  3E07    		LD	A,$07		; 021E  3E 07		>.
 171:	0220  12      	X0220:	LD	(DE),A		; 0220  12		.
 172:	0221  6B      		LD	L,E		; 0221  6B		k
 173:	0222  1E0B    		LD	E,$0B		; 0222  1E 0B		..
 174:	0224  73      		LD	(HL),E		; 0224  73		s
 175:	0225  23      		INC	HL		; 0225  23		#
 176:	0226  72      		LD	(HL),D		; 0226  72		r
 177:	0227  EB      	X0227:	EX	DE,HL		; 0227  EB		k
 178:	0228  72      		LD	(HL),D		; 0228  72		r
 179:	0229  2B      		DEC	HL		; 0229  2B		+
 180:	022A  3606    		LD	(HL),$06	; 022A  36 06		6.
 181:	022C  2E06    	X022C:	LD	L,$06		; 022C  2E 06		..
 182:	022E  220600  	X022E:	LD	(X0006),HL	; 022E  22 06 00	"..
 183:	0231  DD757E  		LD	(IX+$7E),L	; 0231  DD 75 7E	]u~
 184:	0234  DD747F  		LD	(IX+$7F),H	; 0234  DD 74 7F	]t.
 185:	0237  C9      		RET			; 0237  C9		I
 186:			;
 187:	0238  2A0600  	X0238:	LD	HL,(X0006)	; 0238  2A 06 00	*..
 188:	023B  44      		LD	B,H		; 023B  44		D
 189:	023C  60      	X023C:	LD	H,B		; 023C  60		`
 190:	023D  DD7E19  		LD	A,(IX+$19)	; 023D  DD 7E 19	]~.
 191:	0240  BC      		CP	H		; 0240  BC		<
 192:	0241  C8      		RET	Z		; 0241  C8		H
 193:	0242  2E0B    		LD	L,$0B		; 0242  2E 0B		..
 194:	0244  46      		LD	B,(HL)		; 0244  46		F
 195:	0245  2E0E    		LD	L,$0E		; 0245  2E 0E		..
 196:	0247  7E      		LD	A,(HL)		; 0247  7E		~
 197:	0248  B7      		OR	A		; 0248  B7		7
 198:	0249  28F1    		JR	Z,X023C		; 0249  28 F1		(q
 199:	024B  2E0C    		LD	L,$0C		; 024B  2E 0C		..
 200:	024D  5E      		LD	E,(HL)		; 024D  5E		^
 201:	024E  23      		INC	HL		; 024E  23		#
 202:	024F  56      		LD	D,(HL)		; 024F  56		V
 203:	0250  78      		LD	A,B		; 0250  78		x
 204:	0251  60      		LD	H,B		; 0251  60		`
 205:	0252  12      		LD	(DE),A		; 0252  12		.
 206:	0253  1B      		DEC	DE		; 0253  1B		.
 207:	0254  3E06    		LD	A,$06		; 0254  3E 06		>.
 208:	0256  12      		LD	(DE),A		; 0256  12		.
 209:	0257  C5      		PUSH	BC		; 0257  C5		E
 210:	0258  7A      		LD	A,D		; 0258  7A		z
 211:	0259  B7      		OR	A		; 0259  B7		7
 212:	025A  CC2C02  		CALL	Z,X022C		; 025A  CC 2C 02	L,.
 213:	025D  C1      		POP	BC		; 025D  C1		A
 214:	025E  13      		INC	DE		; 025E  13		.
 215:	025F  DD7E19  		LD	A,(IX+$19)	; 025F  DD 7E 19	]~.
 216:	0262  B8      		CP	B		; 0262  B8		8
 217:	0263  C8      		RET	Z		; 0263  C8		H
 218:	0264  2E0C    		LD	L,$0C		; 0264  2E 0C		..
 219:	0266  73      		LD	(HL),E		; 0266  73		s
 220:	0267  23      		INC	HL		; 0267  23		#
 221:	0268  72      		LD	(HL),D		; 0268  72		r
 222:	0269  18D1    		JR	X023C		; 0269  18 D1		.Q
 223:			;
 224:	026B  D5      	X026B:	PUSH	DE		; 026B  D5		U
 225:	026C  DD5E58  		LD	E,(IX+$58)	; 026C  DD 5E 58	]^X
 226:	026F  DD5659  		LD	D,(IX+$59)	; 026F  DD 56 59	]VY
 227:	0272  FDE3    		EX	(SP),IY		; 0272  FD E3		}c
 228:	0274  FD362000		LD	(IY+$20),$00	; 0274  FD 36 20 00	}6 .
 229:	0278  2A6D01  		LD	HL,(X016D)	; 0278  2A 6D 01	*m.
 230:	027B  FDE3    		EX	(SP),IY		; 027B  FD E3		}c
 231:	027D  25      		DEC	H		; 027D  25		%
 232:	027E  24      		INC	H		; 027E  24		$
 233:	027F  CA2503  		JP	Z,X0325		; 027F  CA 25 03	J%.
 234:	0282  E5      		PUSH	HL		; 0282  E5		e
 235:	0283  D5      		PUSH	DE		; 0283  D5		U
 236:	0284  E5      		PUSH	HL		; 0284  E5		e
 237:	0285  CD6303  		CALL	X0363		; 0285  CD 63 03	Mc.
 238:	0288  E1      		POP	HL		; 0288  E1		a
 239:	0289  F5      		PUSH	AF		; 0289  F5		u
 240:	028A  3A0700  	X028A:	LD	A,(X0007)	; 028A  3A 07 00	:..
 241:	028D  D602    		SUB	$02		; 028D  D6 02		V.
 242:	028F  94      		SUB	H		; 028F  94		.
 243:	0290  3015    	X0290:	JR	NC,X02A7	; 0290  30 15		0.
 244:	0292  3E01    		LD	A,$01		; 0292  3E 01		>.
 245:	0294  DD7766  		LD	(IX+$66),A	; 0294  DD 77 66	]wf
 246:	0297  118000  		LD	DE,X0080	; 0297  11 80 00	...
 247:	029A  CD5103  		CALL	X0351		; 029A  CD 51 03	MQ.
 248:	029D  2034    		JR	NZ,X02D3	; 029D  20 34		 4
 249:	029F  21FE00  		LD	HL,X00FE	; 029F  21 FE 00	!~.
 250:	02A2  22E902  		LD	(X02E9),HL	; 02A2  22 E9 02	"i.
 251:	02A5  182C    		JR	X02D3		; 02A5  18 2C		.,
 252:			;
 253:	02A7  224803  	X02A7:	LD	(X0348),HL	; 02A7  22 48 03	"H.
 254:	02AA  E5      		PUSH	HL		; 02AA  E5		e
 255:	02AB  3C      		INC	A		; 02AB  3C		<
 256:	02AC  FE40    		CP	$40		; 02AC  FE 40		~@
 257:	02AE  3802    		JR	C,X02B2		; 02AE  38 02		8.
 258:	02B0  3E40    		LD	A,$40		; 02B0  3E 40		>@
 259:	02B2  87      	X02B2:	ADD	A,A		; 02B2  87		.
 260:	02B3  2AB501  		LD	HL,(X01B5)	; 02B3  2A B5 01	*5.
 261:	02B6  23      		INC	HL		; 02B6  23		#
 262:	02B7  CB7E    		BIT	7,(HL)		; 02B7  CB 7E		K~
 263:	02B9  2802    		JR	Z,X02BD		; 02B9  28 02		(.
 264:	02BB  3E01    		LD	A,$01		; 02BB  3E 01		>.
 265:	02BD  1E00    	X02BD:	LD	E,$00		; 02BD  1E 00		..
 266:	02BF  1F      		RRA			; 02BF  1F		.
 267:	02C0  57      		LD	D,A		; 02C0  57		W
 268:	02C1  CB1B    		RR	E		; 02C1  CB 1B		K.
 269:	02C3  17      		RLA			; 02C3  17		.
 270:	02C4  DD7766  		LD	(IX+$66),A	; 02C4  DD 77 66	]wf
 271:	02C7  E1      		POP	HL		; 02C7  E1		a
 272:	02C8  E5      		PUSH	HL		; 02C8  E5		e
 273:	02C9  D5      		PUSH	DE		; 02C9  D5		U
 274:	02CA  EB      		EX	DE,HL		; 02CA  EB		k
 275:	02CB  CD5103  		CALL	X0351		; 02CB  CD 51 03	MQ.
 276:	02CE  D1      		POP	DE		; 02CE  D1		Q
 277:	02CF  E1      		POP	HL		; 02CF  E1		a
 278:	02D0  19      		ADD	HL,DE		; 02D0  19		.
 279:	02D1  28B7    		JR	Z,X028A		; 02D1  28 B7		(7
 280:	02D3  C1      	X02D3:	POP	BC		; 02D3  C1		A
 281:	02D4  DD7066  		LD	(IX+$66),B	; 02D4  DD 70 66	]pf
 282:	02D7  3D      		DEC	A		; 02D7  3D		=
 283:	02D8  D1      		POP	DE		; 02D8  D1		Q
 284:	02D9  F5      		PUSH	AF		; 02D9  F5		u
 285:	02DA  DD366000		LD	(IX+$60),$00	; 02DA  DD 36 60 00	]6`.
 286:	02DE  DD360200		LD	(IX+$02),$00	; 02DE  DD 36 02 00	]6..
 287:	02E2  0E1A    		LD	C,$1A		; 02E2  0E 1A		..
 288:	02E4  CD2C01  		CALL	X012C		; 02E4  CD 2C 01	M,.
 289:	02E7  F1      		POP	AF		; 02E7  F1		q
 290:	02E8  110000  		LD	DE,X0000	; 02E8  11 00 00	...
 291:	02EB  203B    		JR	NZ,X0328	; 02EB  20 3B		 ;
 292:	02ED  D1      		POP	DE		; 02ED  D1		Q
 293:	02EE  E1      		POP	HL		; 02EE  E1		a
 294:	02EF  DDCB0276		BIT	6,(IX+$02)	; 02EF  DD CB 02 76	]K.v
 295:	02F3  C8      		RET	Z		; 02F3  C8		H
 296:	02F4  62      		LD	H,D		; 02F4  62		b
 297:	02F5  6B      		LD	L,E		; 02F5  6B		k
 298:	02F6  23      		INC	HL		; 02F6  23		#
 299:	02F7  4E      		LD	C,(HL)		; 02F7  4E		N
 300:	02F8  23      		INC	HL		; 02F8  23		#
 301:	02F9  46      		LD	B,(HL)		; 02F9  46		F
 302:	02FA  6B      		LD	L,E		; 02FA  6B		k
 303:	02FB  7B      	X02FB:	LD	A,E		; 02FB  7B		{
 304:	02FC  B7      		OR	A		; 02FC  B7		7
 305:	02FD  2026    		JR	NZ,X0325	; 02FD  20 26		 &
 306:	02FF  24      		INC	H		; 02FF  24		$
 307:	0300  D5      		PUSH	DE		; 0300  D5		U
 308:	0301  C5      		PUSH	BC		; 0301  C5		E
 309:	0302  EDB0    		LDIR			; 0302  ED B0		m0
 310:	0304  C1      		POP	BC		; 0304  C1		A
 311:	0305  D1      		POP	DE		; 0305  D1		Q
 312:	0306  D5      		PUSH	DE		; 0306  D5		U
 313:	0307  E5      		PUSH	HL		; 0307  E5		e
 314:	0308  62      		LD	H,D		; 0308  62		b
 315:	0309  25      		DEC	H		; 0309  25		%
 316:	030A  EB      		EX	DE,HL		; 030A  EB		k
 317:	030B  2E00    		LD	L,$00		; 030B  2E 00		..
 318:	030D  7D      	X030D:	LD	A,L		; 030D  7D		}
 319:	030E  E607    		AND	$07		; 030E  E6 07		f.
 320:	0310  2004    		JR	NZ,X0316	; 0310  20 04		 .
 321:	0312  E3      		EX	(SP),HL		; 0312  E3		c
 322:	0313  5E      		LD	E,(HL)		; 0313  5E		^
 323:	0314  23      		INC	HL		; 0314  23		#
 324:	0315  E3      		EX	(SP),HL		; 0315  E3		c
 325:	0316  CB13    	X0316:	RL	E		; 0316  CB 13		K.
 326:	0318  3003    		JR	NC,X031D	; 0318  30 03		0.
 327:	031A  7E      		LD	A,(HL)		; 031A  7E		~
 328:	031B  82      		ADD	A,D		; 031B  82		.
 329:	031C  77      		LD	(HL),A		; 031C  77		w
 330:	031D  EDA1    	X031D:	CPI			; 031D  ED A1		m!
 331:	031F  EA0D03  		JP	PE,X030D	; 031F  EA 0D 03	j..
 332:	0322  D1      		POP	DE		; 0322  D1		Q
 333:	0323  D1      		POP	DE		; 0323  D1		Q
 334:	0324  C9      		RET			; 0324  C9		I
 335:			;
 336:	0325  21FE00  	X0325:	LD	HL,X00FE	; 0325  21 FE 00	!~.
 337:	0328  ED7BCC01	X0328:	LD	SP,(X01CC)	; 0328  ED 7B CC 01	m{L.
 338:	032C  7D      		LD	A,L		; 032C  7D		}
 339:	032D  44      		LD	B,H		; 032D  44		D
 340:	032E  DDCB347E		BIT	7,(IX+$34)	; 032E  DD CB 34 7E	]K4~
 341:	0332  C8      		RET	Z		; 0332  C8		H
 342:	0333  0E09    	X0333:	LD	C,$09		; 0333  0E 09		..
 343:	0335  118403  		LD	DE,X0384	; 0335  11 84 03	...
 344:	0338  CD2C01  		CALL	X012C		; 0338  CD 2C 01	M,.
 345:	033B  C7      		RST	0		; 033B  C7		G
 346:	033C  3A0700  	X033C:	LD	A,(X0007)	; 033C  3A 07 00	:..
 347:	033F  3D      		DEC	A		; 033F  3D		=
 348:	0340  0B      		DEC	BC		; 0340  0B		.
 349:	0341  90      		SUB	B		; 0341  90		.
 350:	0342  03      		INC	BC		; 0342  03		.
 351:	0343  FE0F    		CP	$0F		; 0343  FE 0F		~.
 352:	0345  38EC    		JR	C,X0333		; 0345  38 EC		8l
 353:	0347  210000  		LD	HL,X0000	; 0347  21 00 00	!..
 354:	034A  BC      		CP	H		; 034A  BC		<
 355:	034B  38E6    		JR	C,X0333		; 034B  38 E6		8f
 356:	034D  57      		LD	D,A		; 034D  57		W
 357:	034E  1E00    		LD	E,$00		; 034E  1E 00		..
 358:	0350  C9      		RET			; 0350  C9		I
 359:			;
 360:	0351  0E1A    	X0351:	LD	C,$1A		; 0351  0E 1A		..
 361:	0353  CD2C01  		CALL	X012C		; 0353  CD 2C 01	M,.
 362:	0356  0E14    		LD	C,$14		; 0356  0E 14		..
 363:	0358  ED5BB501		LD	DE,(X01B5)	; 0358  ED 5B B5 01	m[5.
 364:	035C  CD2C01  		CALL	X012C		; 035C  CD 2C 01	M,.
 365:	035F  22E902  		LD	(X02E9),HL	; 035F  22 E9 02	"i.
 366:	0362  C9      		RET			; 0362  C9		I
 367:			;
 368:	0363  DD7E02  	X0363:	LD	A,(IX+$02)	; 0363  DD 7E 02	]~.
 369:	0366  E61F    		AND	$1F		; 0366  E6 1F		f.
 370:	0368  5F      		LD	E,A		; 0368  5F		_
 371:	0369  DD7E60  		LD	A,(IX+$60)	; 0369  DD 7E 60	]~`
 372:	036C  32DD02  		LD	($02DD),A	; 036C  32 DD 02	2].
 373:	036F  2804    		JR	Z,X0375		; 036F  28 04		(.
 374:	0371  1D      		DEC	E		; 0371  1D		.
 375:	0372  DD7360  		LD	(IX+$60),E	; 0372  DD 73 60	]s`
 376:	0375  DD7E60  	X0375:	LD	A,(IX+$60)	; 0375  DD 7E 60	]~`
 377:	0378  32BF01  		LD	(X01BF),A	; 0378  32 BF 01	2?.
 378:	037B  1E01    		LD	E,$01		; 037B  1E 01		..
 379:	037D  DD7E66  		LD	A,(IX+$66)	; 037D  DD 7E 66	]~f
 380:	0380  DD7366  		LD	(IX+$66),E	; 0380  DD 73 66	]sf
 381:	0383  C9      		RET			; 0383  C9		I
 382:			;
 383:	0384  0D      	X0384:	DEFB	$0D					; 0384 .
 384:	0385  4C6F6164		DEFB	'Load Error$'				; 0385
	      20457272
	      6F7224
 385:	0390  00800001		DEFB	$00,$80,$00,$01,$24,$90			; 0390 ....$.
	      2490
 386:			;
 387:	0398          		ORG	$0398
 388:			;
 389:	0398  48880010		DEFB	$48,$88,$00,$10,$24			; 0398 H...$
	      24
 390:	039D  0002    		DEFW	$0200		; 039D   00 02      ..
 391:			;
 392:	039F  0900    		DEFB	$09,$00					; 039F ..
 393:			;
 394:	03A3          		ORG	$03A3
 395:			;
 396:	03A3  2002    		DEFW	X0220		; 03A3   20 02       .
 397:			;
 398:	03A5  0200    		DEFB	$02,$00					; 03A5 ..
 399:			;
 400:	03AB          		ORG	$03AB
 401:			;
 402:	03AB  224000  		DEFB	$22,$40,$00				; 03AB "@.
 403:			;
 404:	03B1          		ORG	$03B1
 405:			;
 406:	03B1  10      		DEFB	$10					; 03B1 .
 407:			;
 408:	03B2  00      	X03B2:	NOP			; 03B2  00		.
 409:			;
 410:	03BB          		ORG	$03BB
 411:			;
 412:	03BB  08      		DEFB	$08					; 03BB .
 413:			;
 414:	03BF          		ORG	$03BF
 415:			;
 416:	03BF  204100  		DEFB	$20,$41,$00				; 03BF  A.
 417:	03C2  0008    		DEFW	X0800		; 03C2   00 08      ..
 418:	03C4  08      		DEFB	$08					; 03C4 .
 419:	03C5  4004    		DEFW	X0440		; 03C5   40 04      @.
 420:	03C7  00      		DEFB	$00					; 03C7 .
 421:	03C8  0004    		DEFW	$0400		; 03C8   00 04      ..
 422:			;
 423:			;
 424:	03CC          		ORG	$03CC
 425:			;
 426:	03CC  02      		DEFB	$02					; 03CC .
 427:			;
 428:	03D4          		ORG	$03D4
 429:			;
 430:	03D4  401001  		DEFB	$40,$10,$01				; 03D4 @..
 431:			;
 432:	03D7  2000    		JR	NZ,X03D9	; 03D7  20 00		 .
 433:	03D9  00      	X03D9:	NOP			; 03D9  00		.
 434:	03DA  04      		INC	B		; 03DA  04		.
 435:	03DB  12      		LD	(DE),A		; 03DB  12		.
 436:	03DC  40      		LD	B,B		; 03DC  40		@
 437:	03DD  02      		LD	(BC),A		; 03DD  02		.
 438:	03DE  00      		NOP			; 03DE  00		.
 439:	03DF  2000    		JR	NZ,X03E1	; 03DF  20 00		 .
 440:	03E1  00      	X03E1:	NOP			; 03E1  00		.
 441:	03E2  1A      		LD	A,(DE)		; 03E2  1A		.
 442:	03E3          	X03E3:
 443:	03E3  317C0E  		LD	SP,X0E7C	; 03E3  31 7C 0E	1|.
 444:	03E6  CDD50C  		CALL	X0CD5		; 03E6  CD D5 0C	MU.
 445:	03E9  3EC3    		LD	A,$C3		; 03E9  3E C3		>C
 446:	03EB  320000  		LD	(X0000),A	; 03EB  32 00 00	2..
 447:	03EE  320500  		LD	(X0005),A	; 03EE  32 05 00	2..
 448:	03F1  11710D  		LD	DE,X0D71	; 03F1  11 71 0D	.q.
 449:	03F4  0E31    		LD	C,$31		; 03F4  0E 31		.1
 450:	03F6  CD0500  		CALL	X0005		; 03F6  CD 05 00	M..
 451:	03F9  2E80    		LD	L,$80		; 03F9  2E 80		..
 452:	03FB  221B01  		LD	(X011B),HL	; 03FB  22 1B 01	"..
 453:	03FE  E5      		PUSH	HL		; 03FE  E5		e
 454:	03FF  DDE1    		POP	IX		; 03FF  DD E1		]a
 455:	0401  010001  		LD	BC,X0100	; 0401  01 00 01	...
 456:	0404  DD365324		LD	(IX+$53),$24	; 0404  DD 36 53 24	]6S$
 457:	0408  2EE6    		LD	L,$E6		; 0408  2E E6		.f
 458:	040A  70      		LD	(HL),B		; 040A  70		p
 459:	040B  23      		INC	HL		; 040B  23		#
 460:	040C  71      		LD	(HL),C		; 040C  71		q
 461:	040D  2ECF    		LD	L,$CF		; 040D  2E CF		.O
 462:	040F  3603    		LD	(HL),$03	; 040F  36 03		6.
 463:	0411  23      		INC	HL		; 0411  23		#
 464:	0412  71      		LD	(HL),C		; 0412  71		q
 465:	0413  DDCB34FE		SET	7,(IX+$34)	; 0413  DD CB 34 FE	]K4~
 466:	0417  2E83    		LD	L,$83		; 0417  2E 83		..
 467:	0419  5E      		LD	E,(HL)		; 0419  5E		^
 468:	041A  23      		INC	HL		; 041A  23		#
 469:	041B  56      		LD	D,(HL)		; 041B  56		V
 470:	041C  217E0E  		LD	HL,X0E7E	; 041C  21 7E 0E	!~.
 471:	041F  EB      		EX	DE,HL		; 041F  EB		k
 472:	0420  EDB0    		LDIR			; 0420  ED B0		m0
 473:	0422  FD2AA00E		LD	IY,(X0EA0)	; 0422  FD 2A A0 0E	}* .
 474:	0426  2AA70E  		LD	HL,(X0EA7)	; 0426  2A A7 0E	*'.
 475:	0429  7E      		LD	A,(HL)		; 0429  7E		~
 476:	042A  32E30C  		LD	(X0CE3),A	; 042A  32 E3 0C	2c.
 477:	042D  FD7E03  		LD	A,(IY+$03)	; 042D  FD 7E 03	}~.
 478:	0430  B7      		OR	A		; 0430  B7		7
 479:	0431  200B    		JR	NZ,X043E	; 0431  20 0B		 .
 480:	0433  DDCB334E		BIT	1,(IX+$33)	; 0433  DD CB 33 4E	]K3N
 481:	0437  CC1D01  		CALL	Z,X011D		; 0437  CC 1D 01	L..
 482:	043A  DDCB338E		RES	1,(IX+$33)	; 043A  DD CB 33 8E	]K3.
 483:	043E  2A0600  	X043E:	LD	HL,(X0006)	; 043E  2A 06 00	*..
 484:	0441  DD7E19  	X0441:	LD	A,(IX+$19)	; 0441  DD 7E 19	]~.
 485:	0444  BC      		CP	H		; 0444  BC		<
 486:	0445  280B    		JR	Z,X0452		; 0445  28 0B		(.
 487:	0447  2E18    		LD	L,$18		; 0447  2E 18		..
 488:	0449  7E      		LD	A,(HL)		; 0449  7E		~
 489:	044A  B7      		OR	A		; 044A  B7		7
 490:	044B  2031    		JR	NZ,X047E	; 044B  20 31		 1
 491:	044D  2E0B    		LD	L,$0B		; 044D  2E 0B		..
 492:	044F  66      		LD	H,(HL)		; 044F  66		f
 493:	0450  18EF    		JR	X0441		; 0450  18 EF		.o
 494:			;
 495:	0452  ED4B0401	X0452:	LD	BC,(X0104)	; 0452  ED 4B 04 01	mK..
 496:	0456  CD2301  		CALL	X0123		; 0456  CD 23 01	M#.
 497:	0459  63      		LD	H,E		; 0459  63		c
 498:	045A  6B      		LD	L,E		; 045A  6B		k
 499:	045B  CD2001  		CALL	X0120		; 045B  CD 20 01	M .
 500:	045E  2A0600  		LD	HL,(X0006)	; 045E  2A 06 00	*..
 501:	0461  6B      		LD	L,E		; 0461  6B		k
 502:	0462  0E06    		LD	C,$06		; 0462  0E 06		..
 503:	0464  CDFD06  		CALL	X06FD		; 0464  CD FD 06	M}.
 504:	0467  1E0B    		LD	E,$0B		; 0467  1E 0B		..
 505:	0469  CD2601  		CALL	X0126		; 0469  CD 26 01	M&.
 506:	046C  DDCB354E		BIT	1,(IX+$35)	; 046C  DD CB 35 4E	]K5N
 507:	0470  CAE007  		JP	Z,X07E0		; 0470  CA E0 07	J`.
 508:	0473  2E0B    		LD	L,$0B		; 0473  2E 0B		..
 509:	0475  56      		LD	D,(HL)		; 0475  56		V
 510:	0476  EB      		EX	DE,HL		; 0476  EB		k
 511:	0477  1E0B    		LD	E,$0B		; 0477  1E 0B		..
 512:	0479  2E0C    		LD	L,$0C		; 0479  2E 0C		..
 513:	047B  73      		LD	(HL),E		; 047B  73		s
 514:	047C  23      		INC	HL		; 047C  23		#
 515:	047D  72      		LD	(HL),D		; 047D  72		r
 516:	047E  0E62    	X047E:	LD	C,$62		; 047E  0E 62		.b
 517:	0480  CD2C01  		CALL	X012C		; 0480  CD 2C 01	M,.
 518:	0483  CD8F0C  		CALL	X0C8F		; 0483  CD 8F 0C	M..
 519:	0486  DDCB346E		BIT	5,(IX+$34)	; 0486  DD CB 34 6E	]K4n
 520:	048A  C47C08  		CALL	NZ,X087C	; 048A  C4 7C 08	D|.
 521:	048D  DDCB337E		BIT	7,(IX+$33)	; 048D  DD CB 33 7E	]K3~
 522:	0491  2810    		JR	Z,X04A3		; 0491  28 10		(.
 523:	0493  218000  		LD	HL,X0080	; 0493  21 80 00	!..
 524:	0496  54      		LD	D,H		; 0496  54		T
 525:	0497  5D      		LD	E,L		; 0497  5D		]
 526:	0498  E5      		PUSH	HL		; 0498  E5		e
 527:	0499  CD420D  		CALL	X0D42		; 0499  CD 42 0D	MB.
 528:	049C  41      		LD	B,C		; 049C  41		A
 529:	049D  E1      		POP	HL		; 049D  E1		a
 530:	049E  CD1F0D  		CALL	X0D1F		; 049E  CD 1F 0D	M..
 531:	04A1  181C    		JR	X04BF		; 04A1  18 1C		..
 532:			;
 533:	04A3  2AA00E  	X04A3:	LD	HL,(X0EA0)	; 04A3  2A A0 0E	* .
 534:	04A6  23      		INC	HL		; 04A6  23		#
 535:	04A7  23      		INC	HL		; 04A7  23		#
 536:	04A8  23      		INC	HL		; 04A8  23		#
 537:	04A9  7E      		LD	A,(HL)		; 04A9  7E		~
 538:	04AA  CB8E    		RES	1,(HL)		; 04AA  CB 8E		K.
 539:	04AC  CB96    		RES	2,(HL)		; 04AC  CB 96		K.
 540:	04AE  FE0E    		CP	$0E		; 04AE  FE 0E		~.
 541:	04B0  CAEF05  		JP	Z,X05EF		; 04B0  CA EF 05	Jo.
 542:	04B3  E606    		AND	$06		; 04B3  E6 06		f.
 543:	04B5  FE06    		CP	$06		; 04B5  FE 06		~.
 544:	04B7  CAEC05  		JP	Z,X05EC		; 04B7  CA EC 05	Jl.
 545:	04BA  AF      		XOR	A		; 04BA  AF		/
 546:	04BB  77      		LD	(HL),A		; 04BB  77		w
 547:	04BC  FD7700  		LD	(IY+$00),A	; 04BC  FD 77 00	}w.
 548:	04BF  AF      	X04BF:	XOR	A		; 04BF  AF		/
 549:	04C0  32A605  		LD	(X05A6),A	; 04C0  32 A6 05	2&.
 550:	04C3  FD7703  		LD	(IY+$03),A	; 04C3  FD 77 03	}w.
 551:	04C6  CDD50C  		CALL	X0CD5		; 04C6  CD D5 0C	MU.
 552:	04C9  DDCB34EE		SET	5,(IX+$34)	; 04C9  DD CB 34 EE	]K4n
 553:	04CD  CDDE09  		CALL	X09DE		; 04CD  CD DE 09	M^.
 554:	04D0  11B40D  	X04D0:	LD	DE,X0DB4	; 04D0  11 B4 0D	.4.
 555:	04D3  2A870E  		LD	HL,(X0E87)	; 04D3  2A 87 0E	*..
 556:	04D6  7E      	X04D6:	LD	A,(HL)		; 04D6  7E		~
 557:	04D7  B7      		OR	A		; 04D7  B7		7
 558:	04D8  281E    		JR	Z,X04F8		; 04D8  28 1E		(.
 559:	04DA  47      		LD	B,A		; 04DA  47		G
 560:	04DB  23      		INC	HL		; 04DB  23		#
 561:	04DC  4E      		LD	C,(HL)		; 04DC  4E		N
 562:	04DD  E5      		PUSH	HL		; 04DD  E5		e
 563:	04DE  D5      		PUSH	DE		; 04DE  D5		U
 564:	04DF  FE24    		CP	$24		; 04DF  FE 24		~$
 565:	04E1  2003    		JR	NZ,X04E6	; 04E1  20 03		 .
 566:	04E3  0600    		LD	B,$00		; 04E3  06 00		..
 567:	04E5  04      		INC	B		; 04E5  04		.
 568:	04E6  79      	X04E6:	LD	A,C		; 04E6  79		y
 569:	04E7  FE24    		CP	$24		; 04E7  FE 24		~$
 570:	04E9  2002    		JR	NZ,X04ED	; 04E9  20 02		 .
 571:	04EB  0EFF    		LD	C,$FF		; 04EB  0E FF		..
 572:	04ED  0C      	X04ED:	INC	C		; 04ED  0C		.
 573:	04EE  E1      		POP	HL		; 04EE  E1		a
 574:	04EF  70      		LD	(HL),B		; 04EF  70		p
 575:	04F0  23      		INC	HL		; 04F0  23		#
 576:	04F1  71      		LD	(HL),C		; 04F1  71		q
 577:	04F2  23      		INC	HL		; 04F2  23		#
 578:	04F3  EB      		EX	DE,HL		; 04F3  EB		k
 579:	04F4  E1      		POP	HL		; 04F4  E1		a
 580:	04F5  23      		INC	HL		; 04F5  23		#
 581:	04F6  18DE    		JR	X04D6		; 04F6  18 DE		.^
 582:			;
 583:	04F8  3D      	X04F8:	DEC	A		; 04F8  3D		=
 584:	04F9  12      		LD	(DE),A		; 04F9  12		.
 585:	04FA  CD660C  		CALL	X0C66		; 04FA  CD 66 0C	Mf.
 586:	04FD  3A7E0F  		LD	A,(X0F7E)	; 04FD  3A 7E 0F	:~.
 587:	0500  B7      		OR	A		; 0500  B7		7
 588:	0501  28BC    		JR	Z,X04BF		; 0501  28 BC		(<
 589:	0503  AF      		XOR	A		; 0503  AF		/
 590:	0504  DD7702  		LD	(IX+$02),A	; 0504  DD 77 02	]w.
 591:	0507  DDCB3476		BIT	6,(IX+$34)	; 0507  DD CB 34 76	]K4v
 592:	050B  2006    		JR	NZ,X0513	; 050B  20 06		 .
 593:	050D  DD7E49  		LD	A,(IX+$49)	; 050D  DD 7E 49	]~I
 594:	0510  DD7748  		LD	(IX+$48),A	; 0510  DD 77 48	]wH
 595:	0513  AF      	X0513:	XOR	A		; 0513  AF		/
 596:	0514  328F0D  		LD	(X0D8F),A	; 0514  32 8F 0D	2..
 597:	0517  CD0E0D  		CALL	X0D0E		; 0517  CD 0E 0D	M..
 598:	051A  2ABD0E  		LD	HL,(X0EBD)	; 051A  2A BD 0E	*=.
 599:	051D  111600  		LD	DE,X0016	; 051D  11 16 00	...
 600:	0520  19      		ADD	HL,DE		; 0520  19		.
 601:	0521  222B05  		LD	(X052B),HL	; 0521  22 2B 05	"+.
 602:	0524  217F0F  		LD	HL,X0F7F	; 0524  21 7F 0F	!..
 603:	0527  11900D  		LD	DE,X0D90	; 0527  11 90 0D	...
 604:	052A  CD0000  		CALL	X0000		; 052A  CD 00 00	M..
 605:	052D  226807  		LD	(X0768),HL	; 052D  22 68 07	"h.
 606:	0530  CD1B0D  		CALL	X0D1B		; 0530  CD 1B 0D	M..
 607:	0533  3A7F0F  		LD	A,(X0F7F)	; 0533  3A 7F 0F	:..
 608:	0536  2ABD0E  		LD	HL,(X0EBD)	; 0536  2A BD 0E	*=.
 609:	0539  110B00  		LD	DE,X000B	; 0539  11 0B 00	...
 610:	053C  19      		ADD	HL,DE		; 053C  19		.
 611:	053D  CB7E    		BIT	7,(HL)		; 053D  CB 7E		K~
 612:	053F  2004    		JR	NZ,X0545	; 053F  20 04		 .
 613:	0541  FE20    		CP	$20		; 0541  FE 20		~
 614:	0543  2803    		JR	Z,X0548		; 0543  28 03		(.
 615:	0545  E67F    	X0545:	AND	$7F		; 0545  E6 7F		f.
 616:	0547  BE      		CP	(HL)		; 0547  BE		>
 617:	0548  CA3F06  	X0548:	JP	Z,X063F		; 0548  CA 3F 06	J?.
 618:	054B  3A9F0D  		LD	A,(X0D9F)	; 054B  3A 9F 0D	:..
 619:	054E  3C      		INC	A		; 054E  3C		<
 620:	054F  200B    		JR	NZ,X055C	; 054F  20 0B		 .
 621:	0551  DD7E05  		LD	A,(IX+$05)	; 0551  DD 7E 05	]~.
 622:	0554  E608    		AND	$08		; 0554  E6 08		f.
 623:	0556  C2EA05  		JP	NZ,X05EA	; 0556  C2 EA 05	Bj.
 624:	0559  C34406  		JP	X0644		; 0559  C3 44 06	CD.
 625:			;
 626:	055C  DDCB056E	X055C:	BIT	5,(IX+$05)	; 055C  DD CB 05 6E	]K.n
 627:	0560  2006    		JR	NZ,X0568	; 0560  20 06		 .
 628:	0562  3A900D  		LD	A,(X0D90)	; 0562  3A 90 0D	:..
 629:	0565  B7      		OR	A		; 0565  B7		7
 630:	0566  2818    		JR	Z,X0580		; 0566  28 18		(.
 631:	0568  3A9D0D  	X0568:	LD	A,(X0D9D)	; 0568  3A 9D 0D	:..
 632:	056B  3C      		INC	A		; 056B  3C		<
 633:	056C  328F0D  		LD	(X0D8F),A	; 056C  32 8F 0D	2..
 634:	056F  32A605  		LD	(X05A6),A	; 056F  32 A6 05	2&.
 635:	0572  DDCB055E		BIT	3,(IX+$05)	; 0572  DD CB 05 5E	]K.^
 636:	0576  2008    		JR	NZ,X0580	; 0576  20 08		 .
 637:	0578  3AAC0E  		LD	A,(X0EAC)	; 0578  3A AC 0E	:,.
 638:	057B  3D      		DEC	A		; 057B  3D		=
 639:	057C  3E02    		LD	A,$02		; 057C  3E 02		>.
 640:	057E  206C    		JR	NZ,X05EC	; 057E  20 6C		 l
 641:	0580  21320C  	X0580:	LD	HL,X0C32	; 0580  21 32 0C	!2.
 642:	0583  CD220C  		CALL	X0C22		; 0583  CD 22 0C	M".
 643:	0586  FDCB0346		BIT	0,(IY+$03)	; 0586  FD CB 03 46	}K.F
 644:	058A  200C    		JR	NZ,X0598	; 058A  20 0C		 .
 645:	058C  FD7E01  		LD	A,(IY+$01)	; 058C  FD 7E 01	}~.
 646:	058F  B7      		OR	A		; 058F  B7		7
 647:	0590  2806    		JR	Z,X0598		; 0590  28 06		(.
 648:	0592  FDA602  		AND	(IY+$02)	; 0592  FD A6 02	}&.
 649:	0595  CABF04  		JP	Z,X04BF		; 0595  CA BF 04	J?.
 650:	0598  21550C  	X0598:	LD	HL,X0C55	; 0598  21 55 0C	!U.
 651:	059B  CD220C  		CALL	X0C22		; 059B  CD 22 0C	M".
 652:	059E  CD7C06  		CALL	X067C		; 059E  CD 7C 06	M|.
 653:	05A1  FD360007		LD	(IY+$00),$07	; 05A1  FD 36 00 07	}6..
 654:	05A5  3E00    		LD	A,$00		; 05A5  3E 00		>.
 655:	05A7  B7      		OR	A		; 05A7  B7		7
 656:	05A8  200A    		JR	NZ,X05B4	; 05A8  20 0A		 .
 657:	05AA  32410B  		LD	(X0B41),A	; 05AA  32 41 0B	2A.
 658:	05AD  FDCB0356		BIT	2,(IY+$03)	; 05AD  FD CB 03 56	}K.V
 659:	05B1  CA4406  		JP	Z,X0644		; 05B1  CA 44 06	JD.
 660:	05B4  3E00    	X05B4:	LD	A,$00		; 05B4  3E 00		>.
 661:	05B6  B7      		OR	A		; 05B6  B7		7
 662:	05B7  2833    		JR	Z,X05EC		; 05B7  28 33		(3
 663:	05B9  CDE60C  		CALL	X0CE6		; 05B9  CD E6 0C	Mf.
 664:	05BC  AF      	X05BC:	XOR	A		; 05BC  AF		/
 665:	05BD  32B505  		LD	(X05B5),A	; 05BD  32 B5 05	25.
 666:	05C0  CD440B  		CALL	X0B44		; 05C0  CD 44 0B	MD.
 667:	05C3  FD6E04  		LD	L,(IY+$04)	; 05C3  FD 6E 04	}n.
 668:	05C6  FD6605  		LD	H,(IY+$05)	; 05C6  FD 66 05	}f.
 669:	05C9  012014  		LD	BC,X1420	; 05C9  01 20 14	. .
 670:	05CC  CD340B  		CALL	X0B34		; 05CC  CD 34 0B	M4.
 671:	05CF  117E09  		LD	DE,X097E	; 05CF  11 7E 09	.~.
 672:	05D2  CD1009  		CALL	X0910		; 05D2  CD 10 09	M..
 673:	05D5  13      		INC	DE		; 05D5  13		.
 674:	05D6  0608    		LD	B,$08		; 05D6  06 08		..
 675:	05D8  CDE005  		CALL	X05E0		; 05D8  CD E0 05	M`.
 676:	05DB  CD540B  		CALL	X0B54		; 05DB  CD 54 0B	MT.
 677:	05DE  0603    		LD	B,$03		; 05DE  06 03		..
 678:	05E0  1A      	X05E0:	LD	A,(DE)		; 05E0  1A		.
 679:	05E1  E67F    		AND	$7F		; 05E1  E6 7F		f.
 680:	05E3  CD560B  		CALL	X0B56		; 05E3  CD 56 0B	MV.
 681:	05E6  13      		INC	DE		; 05E6  13		.
 682:	05E7  10F7    		DJNZ	X05E0		; 05E7  10 F7		.w
 683:	05E9  C9      		RET			; 05E9  C9		I
 684:			;
 685:	05EA  3E03    	X05EA:	LD	A,$03		; 05EA  3E 03		>.
 686:	05EC  FD7700  	X05EC:	LD	(IY+$00),A	; 05EC  FD 77 00	}w.
 687:	05EF  CDE60C  	X05EF:	CALL	X0CE6		; 05EF  CD E6 0C	Mf.
 688:	05F2  2AA70E  		LD	HL,(X0EA7)	; 05F2  2A A7 0E	*'.
 689:	05F5  36FF    		LD	(HL),$FF	; 05F5  36 FF		6.
 690:	05F7  2AA00E  		LD	HL,(X0EA0)	; 05F7  2A A0 0E	* .
 691:	05FA  111000  		LD	DE,X0010	; 05FA  11 10 00	...
 692:	05FD  19      		ADD	HL,DE		; 05FD  19		.
 693:	05FE  7E      		LD	A,(HL)		; 05FE  7E		~
 694:	05FF  B7      		OR	A		; 05FF  B7		7
 695:	0600  28BA    		JR	Z,X05BC		; 0600  28 BA		(:
 696:	0602  FDCB03CE		SET	1,(IY+$03)	; 0602  FD CB 03 CE	}K.N
 697:	0606  3EFF    		LD	A,$FF		; 0606  3E FF		>.
 698:	0608  32B505  		LD	(X05B5),A	; 0608  32 B5 05	25.
 699:	060B  3E01    		LD	A,$01		; 060B  3E 01		>.
 700:	060D  32AC0E  		LD	(X0EAC),A	; 060D  32 AC 0E	2,.
 701:	0610  117F0F  		LD	DE,X0F7F	; 0610  11 7F 0F	...
 702:	0613  CD420D  		CALL	X0D42		; 0613  CD 42 0D	MB.
 703:	0616  12      		LD	(DE),A		; 0616  12		.
 704:	0617  79      		LD	A,C		; 0617  79		y
 705:	0618  327E0F  		LD	(X0F7E),A	; 0618  32 7E 0F	2~.
 706:	061B  C3D004  		JP	X04D0		; 061B  C3 D0 04	CP.
 707:			;
 708:	061E  21      		DEFB	$21					; 061E !
 709:	061F  BF04    		DEFW	X04BF		; 061F   BF 04      ?.
 710:			;
 711:	0621  E5218F0D		DEFB	$E5,$21,$8F,$0D,$7E,$3D,$FE,$10		; 0621 e!..~=~.
	      7E3DFE10
 712:	0629  D0DD    		DEFB	$D0,$DD					; 0629 P]
 713:	062B  7760237E		DEFB	'w`#~='					; 062B
	      3D
 714:	0630  FA      		DEFB	$FA					; 0630 z
 715:	0631  B80C    		DEFW	X0CB8		; 0631   B8 0C      8.
 716:			;
 717:	0633  32      		DEFB	$32					; 0633 2
 718:			;
 719:	0634  E404DD  		CALL	PO,XDD04	; 0634  E4 04 DD	d.]
 720:	0637  96      		SUB	(HL)		; 0637  96		.
 721:	0638  5A      		LD	E,D		; 0638  5A		Z
 722:	0639  327E0D  		LD	(X0D7E),A	; 0639  32 7E 0D	2~.
 723:	063C  C3B80C  		JP	X0CB8		; 063C  C3 B8 0C	C8.
 724:			;
 725:	063F  3E01    	X063F:	LD	A,$01		; 063F  3E 01		>.
 726:	0641  326E06  		LD	(X066E),A	; 0641  32 6E 06	2n.
 727:	0644  CDD50C  	X0644:	CALL	X0CD5		; 0644  CD D5 0C	MU.
 728:	0647  FDCB03D6		SET	2,(IY+$03)	; 0647  FD CB 03 D6	}K.V
 729:	064B  2ABD0E  		LD	HL,(X0EBD)	; 064B  2A BD 0E	*=.
 730:	064E  111900  		LD	DE,X0019	; 064E  11 19 00	...
 731:	0651  19      		ADD	HL,DE		; 0651  19		.
 732:	0652  7E      		LD	A,(HL)		; 0652  7E		~
 733:	0653  C602    		ADD	A,$02		; 0653  C6 02		F.
 734:	0655  5F      		LD	E,A		; 0655  5F		_
 735:	0656  23      		INC	HL		; 0656  23		#
 736:	0657  19      	X0657:	ADD	HL,DE		; 0657  19		.
 737:	0658  7E      		LD	A,(HL)		; 0658  7E		~
 738:	0659  B7      		OR	A		; 0659  B7		7
 739:	065A  20FB    		JR	NZ,X0657	; 065A  20 FB		 {
 740:	065C  32410B  		LD	(X0B41),A	; 065C  32 41 0B	2A.
 741:	065F  118F0D  		LD	DE,X0D8F	; 065F  11 8F 0D	...
 742:	0662  010D00  		LD	BC,X000D	; 0662  01 0D 00	...
 743:	0665  EDB0    		LDIR			; 0665  ED B0		m0
 744:	0667  FD6E04  		LD	L,(IY+$04)	; 0667  FD 6E 04	}n.
 745:	066A  FD6605  		LD	H,(IY+$05)	; 066A  FD 66 05	}f.
 746:	066D  3E00    		LD	A,$00		; 066D  3E 00		>.
 747:	066F  3D      		DEC	A		; 066F  3D		=
 748:	0670  2004    		JR	NZ,X0676	; 0670  20 04		 .
 749:	0672  326E06  		LD	(X066E),A	; 0672  32 6E 06	2n.
 750:	0675  23      		INC	HL		; 0675  23		#
 751:	0676  226807  	X0676:	LD	(X0768),HL	; 0676  22 68 07	"h.
 752:	0679  C38005  		JP	X0580		; 0679  C3 80 05	C..
 753:			;
 754:	067C  11990D  	X067C:	LD	DE,X0D99	; 067C  11 99 0D	...
 755:	067F  21F606  		LD	HL,X06F6	; 067F  21 F6 06	!v.
 756:	0682  CD600B  		CALL	X0B60		; 0682  CD 60 0B	M`.
 757:	0685  C0      		RET	NZ		; 0685  C0		@
 758:	0686  118F0D  		LD	DE,X0D8F	; 0686  11 8F 0D	...
 759:	0689  CD9108  		CALL	X0891		; 0689  CD 91 08	M..
 760:	068C  1A      		LD	A,(DE)		; 068C  1A		.
 761:	068D  4F      		LD	C,A		; 068D  4F		O
 762:	068E  C5      		PUSH	BC		; 068E  C5		E
 763:	068F  0E00    		LD	C,$00		; 068F  0E 00		..
 764:	0691  B7      		OR	A		; 0691  B7		7
 765:	0692  2024    		JR	NZ,X06B8	; 0692  20 24		 $
 766:	0694  1B      		DEC	DE		; 0694  1B		.
 767:	0695  1A      		LD	A,(DE)		; 0695  1A		.
 768:	0696  13      		INC	DE		; 0696  13		.
 769:	0697  B7      		OR	A		; 0697  B7		7
 770:	0698  201E    		JR	NZ,X06B8	; 0698  20 1E		 .
 771:	069A  3D      		DEC	A		; 069A  3D		=
 772:	069B  32D106  		LD	(X06D1),A	; 069B  32 D1 06	2Q.
 773:	069E  21B40D  		LD	HL,X0DB4	; 069E  21 B4 0D	!4.
 774:	06A1  7E      	X06A1:	LD	A,(HL)		; 06A1  7E		~
 775:	06A2  3C      		INC	A		; 06A2  3C		<
 776:	06A3  2830    		JR	Z,X06D5		; 06A3  28 30		(0
 777:	06A5  3D      		DEC	A		; 06A5  3D		=
 778:	06A6  2004    		JR	NZ,X06AC	; 06A6  20 04		 .
 779:	06A8  23      		INC	HL		; 06A8  23		#
 780:	06A9  23      		INC	HL		; 06A9  23		#
 781:	06AA  18F5    		JR	X06A1		; 06AA  18 F5		.u
 782:			;
 783:	06AC  32900D  	X06AC:	LD	(X0D90),A	; 06AC  32 90 0D	2..
 784:	06AF  23      		INC	HL		; 06AF  23		#
 785:	06B0  7E      		LD	A,(HL)		; 06B0  7E		~
 786:	06B1  328F0D  		LD	(X0D8F),A	; 06B1  32 8F 0D	2..
 787:	06B4  23      		INC	HL		; 06B4  23		#
 788:	06B5  11900D  		LD	DE,X0D90	; 06B5  11 90 0D	...
 789:	06B8  C5      	X06B8:	PUSH	BC		; 06B8  C5		E
 790:	06B9  E5      		PUSH	HL		; 06B9  E5		e
 791:	06BA  1B      		DEC	DE		; 06BA  1B		.
 792:	06BB  1A      		LD	A,(DE)		; 06BB  1A		.
 793:	06BC  B7      		OR	A		; 06BC  B7		7
 794:	06BD  2804    		JR	Z,X06C3		; 06BD  28 04		(.
 795:	06BF  3D      		DEC	A		; 06BF  3D		=
 796:	06C0  DD7760  		LD	(IX+$60),A	; 06C0  DD 77 60	]w`
 797:	06C3  13      	X06C3:	INC	DE		; 06C3  13		.
 798:	06C4  CD9A08  		CALL	X089A		; 06C4  CD 9A 08	M..
 799:	06C7  3E00    		LD	A,$00		; 06C7  3E 00		>.
 800:	06C9  DD7760  		LD	(IX+$60),A	; 06C9  DD 77 60	]w`
 801:	06CC  200F    		JR	NZ,X06DD	; 06CC  20 0F		 .
 802:	06CE  E1      		POP	HL		; 06CE  E1		a
 803:	06CF  C1      		POP	BC		; 06CF  C1		A
 804:	06D0  3E00    		LD	A,$00		; 06D0  3E 00		>.
 805:	06D2  B7      		OR	A		; 06D2  B7		7
 806:	06D3  20CC    		JR	NZ,X06A1	; 06D3  20 CC		 L
 807:	06D5  C1      	X06D5:	POP	BC		; 06D5  C1		A
 808:	06D6  AF      		XOR	A		; 06D6  AF		/
 809:	06D7  32D106  		LD	(X06D1),A	; 06D7  32 D1 06	2Q.
 810:	06DA  79      		LD	A,C		; 06DA  79		y
 811:	06DB  12      		LD	(DE),A		; 06DB  12		.
 812:	06DC  C9      		RET			; 06DC  C9		I
 813:			;
 814:	06DD  E1      	X06DD:	POP	HL		; 06DD  E1		a
 815:	06DE  C1      		POP	BC		; 06DE  C1		A
 816:	06DF  1B      		DEC	DE		; 06DF  1B		.
 817:	06E0  1A      		LD	A,(DE)		; 06E0  1A		.
 818:	06E1  DD7702  		LD	(IX+$02),A	; 06E1  DD 77 02	]w.
 819:	06E4  AF      		XOR	A		; 06E4  AF		/
 820:	06E5  12      		LD	(DE),A		; 06E5  12		.
 821:	06E6  13      		INC	DE		; 06E6  13		.
 822:	06E7  F1      		POP	AF		; 06E7  F1		q
 823:	06E8  21FB06  		LD	HL,X06FB	; 06E8  21 FB 06	!{.
 824:	06EB  87      		ADD	A,A		; 06EB  87		.
 825:	06EC  CD090D  		CALL	X0D09		; 06EC  CD 09 0D	M..
 826:	06EF  D5      		PUSH	DE		; 06EF  D5		U
 827:	06F0  5E      		LD	E,(HL)		; 06F0  5E		^
 828:	06F1  23      		INC	HL		; 06F1  23		#
 829:	06F2  56      		LD	D,(HL)		; 06F2  56		V
 830:	06F3  EB      		EX	DE,HL		; 06F3  EB		k
 831:	06F4  D1      		POP	DE		; 06F4  D1		Q
 832:	06F5  E9      		JP	(HL)		; 06F5  E9		i
 833:			;
 834:	06F6  434F4D20	X06F6:	DEFB	$43,$4F,$4D,$20,$00			; 06F6 COM .
	      00
 835:	06FB  0707    	X06FB:	DEFW	X0707		; 06FB   07 07      ..
 836:			;
 837:			;
 838:	06FD  C5      	X06FD:	PUSH	BC		; 06FD  C5		E
 839:	06FE  0600    		LD	B,$00		; 06FE  06 00		..
 840:	0700  EDB0    		LDIR			; 0700  ED B0		m0
 841:	0702  C1      		POP	BC		; 0702  C1		A
 842:	0703  2B      		DEC	HL		; 0703  2B		+
 843:	0704  7E      		LD	A,(HL)		; 0704  7E		~
 844:	0705  23      		INC	HL		; 0705  23		#
 845:	0706  C9      		RET			; 0706  C9		I
 846:			;
 847:	0707  D5      	X0707:	PUSH	DE		; 0707  D5		U
 848:	0708  CD7408  		CALL	X0874		; 0708  CD 74 08	Mt.
 849:	070B  D1      		POP	DE		; 070B  D1		Q
 850:	070C  D5      		PUSH	DE		; 070C  D5		U
 851:	070D  CD8908  		CALL	X0889		; 070D  CD 89 08	M..
 852:	0710  3A8000  		LD	A,(X0080)	; 0710  3A 80 00	:..
 853:	0713  FEC9    		CP	$C9		; 0713  FE C9		~I
 854:	0715  2005    		JR	NZ,X071C	; 0715  20 05		 .
 855:	0717  D1      		POP	DE		; 0717  D1		Q
 856:	0718  D5      		PUSH	DE		; 0718  D5		U
 857:	0719  CD8908  		CALL	X0889		; 0719  CD 89 08	M..
 858:	071C  AF      	X071C:	XOR	A		; 071C  AF		/
 859:	071D  32B00D  		LD	(X0DB0),A	; 071D  32 B0 0D	20.
 860:	0720  21810E  		LD	HL,X0E81	; 0720  21 81 0E	!..
 861:	0723  118300  		LD	DE,X0083	; 0723  11 83 00	...
 862:	0726  0605    		LD	B,$05		; 0726  06 05		..
 863:	0728  1A      	X0728:	LD	A,(DE)		; 0728  1A		.
 864:	0729  BE      		CP	(HL)		; 0729  BE		>
 865:	072A  2013    		JR	NZ,X073F	; 072A  20 13		 .
 866:	072C  23      		INC	HL		; 072C  23		#
 867:	072D  13      		INC	DE		; 072D  13		.
 868:	072E  10F8    		DJNZ	X0728		; 072E  10 F8		.x
 869:	0730  EB      		EX	DE,HL		; 0730  EB		k
 870:	0731  7E      		LD	A,(HL)		; 0731  7E		~
 871:	0732  FE03    		CP	$03		; 0732  FE 03		~.
 872:	0734  2009    		JR	NZ,X073F	; 0734  20 09		 .
 873:	0736  23      		INC	HL		; 0736  23		#
 874:	0737  23      		INC	HL		; 0737  23		#
 875:	0738  23      		INC	HL		; 0738  23		#
 876:	0739  7E      		LD	A,(HL)		; 0739  7E		~
 877:	073A  23      		INC	HL		; 073A  23		#
 878:	073B  66      		LD	H,(HL)		; 073B  66		f
 879:	073C  6F      		LD	L,A		; 073C  6F		o
 880:	073D  1803    		JR	X0742		; 073D  18 03		..
 881:			;
 882:	073F  210001  	X073F:	LD	HL,X0100	; 073F  21 00 01	!..
 883:	0742  D1      	X0742:	POP	DE		; 0742  D1		Q
 884:	0743  22B10D  		LD	(X0DB1),HL	; 0743  22 B1 0D	"1.
 885:	0746  2AA20E  		LD	HL,(X0EA2)	; 0746  2A A2 0E	*".
 886:	0749  1A      		LD	A,(DE)		; 0749  1A		.
 887:	074A  325000  		LD	(X0050),A	; 074A  32 50 00	2P.
 888:	074D  E5      		PUSH	HL		; 074D  E5		e
 889:	074E  EB      		EX	DE,HL		; 074E  EB		k
 890:	074F  012300  		LD	BC,X0023	; 074F  01 23 00	.#.
 891:	0752  EDB0    		LDIR			; 0752  ED B0		m0
 892:	0754  215100  		LD	HL,X0051	; 0754  21 51 00	!Q.
 893:	0757  010600  		LD	BC,X0006	; 0757  01 06 00	...
 894:	075A  CD8F0B  		CALL	X0B8F		; 075A  CD 8F 0B	M..
 895:	075D  2ABD0E  		LD	HL,(X0EBD)	; 075D  2A BD 0E	*=.
 896:	0760  111100  		LD	DE,X0011	; 0760  11 11 00	...
 897:	0763  19      		ADD	HL,DE		; 0763  19		.
 898:	0764  226C07  		LD	($076C),HL	; 0764  22 6C 07	"l.
 899:	0767  110000  		LD	DE,X0000	; 0767  11 00 00	...
 900:	076A  ED530000		LD	(X0000),DE	; 076A  ED 53 00 00	mS..
 901:	076E  2B      		DEC	HL		; 076E  2B		+
 902:	076F  CDDE0C  		CALL	X0CDE		; 076F  CD DE 0C	M^.
 903:	0772  218100  		LD	HL,X0081	; 0772  21 81 00	!..
 904:	0775  3600    		LD	(HL),$00	; 0775  36 00		6.
 905:	0777  EB      		EX	DE,HL		; 0777  EB		k
 906:	0778  2A6807  		LD	HL,(X0768)	; 0778  2A 68 07	*h.
 907:	077B  7C      		LD	A,H		; 077B  7C		|
 908:	077C  B5      		OR	L		; 077C  B5		5
 909:	077D  280B    		JR	Z,X078A		; 077D  28 0B		(.
 910:	077F  3E20    		LD	A,$20		; 077F  3E 20		>
 911:	0781  12      		LD	(DE),A		; 0781  12		.
 912:	0782  067E    		LD	B,$7E		; 0782  06 7E		.~
 913:	0784  CD630D  		CALL	X0D63		; 0784  CD 63 0D	Mc.
 914:	0787  AF      		XOR	A		; 0787  AF		/
 915:	0788  12      		LD	(DE),A		; 0788  12		.
 916:	0789  79      		LD	A,C		; 0789  79		y
 917:	078A  328000  	X078A:	LD	(X0080),A	; 078A  32 80 00	2..
 918:	078D  CDDF08  		CALL	X08DF		; 078D  CD DF 08	M_.
 919:	0790  3AC806  		LD	A,(X06C8)	; 0790  3A C8 06	:H.
 920:	0793  DD7760  		LD	(IX+$60),A	; 0793  DD 77 60	]w`
 921:	0796  CD7408  		CALL	X0874		; 0796  CD 74 08	Mt.
 922:	0799  D1      		POP	DE		; 0799  D1		Q
 923:	079A  AF      		XOR	A		; 079A  AF		/
 924:	079B  327C00  		LD	(X007C),A	; 079B  32 7C 00	2|.
 925:	079E  DD7710  		LD	(IX+$10),A	; 079E  DD 77 10	]w.
 926:	07A1  DD7711  		LD	(IX+$11),A	; 07A1  DD 77 11	]w.
 927:	07A4  DD7712  		LD	(IX+$12),A	; 07A4  DD 77 12	]w.
 928:	07A7  DD7713  		LD	(IX+$13),A	; 07A7  DD 77 13	]w.
 929:	07AA  DD774F  		LD	(IX+$4F),A	; 07AA  DD 77 4F	]wO
 930:	07AD  DDCB337E		BIT	7,(IX+$33)	; 07AD  DD CB 33 7E	]K3~
 931:	07B1  2006    		JR	NZ,X07B9	; 07B1  20 06		 .
 932:	07B3  DD772C  		LD	(IX+$2C),A	; 07B3  DD 77 2C	]w,
 933:	07B6  DD772D  		LD	(IX+$2D),A	; 07B6  DD 77 2D	]w-
 934:	07B9  DDCB33BE	X07B9:	RES	7,(IX+$33)	; 07B9  DD CB 33 BE	]K3>
 935:	07BD  CDDF0C  		CALL	X0CDF		; 07BD  CD DF 0C	M_.
 936:	07C0  2AA40E  		LD	HL,(X0EA4)	; 07C0  2A A4 0E	*$.
 937:	07C3  012E00  		LD	BC,X002E	; 07C3  01 2E 00	...
 938:	07C6  09      		ADD	HL,BC		; 07C6  09		.
 939:	07C7  F9      		LD	SP,HL		; 07C7  F9		y
 940:	07C8  210000  		LD	HL,X0000	; 07C8  21 00 00	!..
 941:	07CB  E5      		PUSH	HL		; 07CB  E5		e
 942:	07CC  2AB10D  		LD	HL,(X0DB1)	; 07CC  2A B1 0D	*1.
 943:	07CF  DDCB34AE	X07CF:	RES	5,(IX+$34)	; 07CF  DD CB 34 AE	]K4.
 944:	07D3  DDCB34FE		SET	7,(IX+$34)	; 07D3  DD CB 34 FE	]K4~
 945:	07D7  E5      		PUSH	HL		; 07D7  E5		e
 946:	07D8  CD400B  		CALL	X0B40		; 07D8  CD 40 0B	M@.
 947:	07DB  0E3B    		LD	C,$3B		; 07DB  0E 3B		.;
 948:	07DD  C30500  		JP	X0005		; 07DD  C3 05 00	C..
 949:			;
 950:	07E0  DDCB35CE	X07E0:	SET	1,(IX+$35)	; 07E0  DD CB 35 CE	]K5N
 951:	07E4  CD7C08  		CALL	X087C		; 07E4  CD 7C 08	M|.
 952:	07E7  DD7E5A  		LD	A,(IX+$5A)	; 07E7  DD 7E 5A	]~Z
 953:	07EA  320400  		LD	(X0004),A	; 07EA  32 04 00	2..
 954:	07ED  DD5619  		LD	D,(IX+$19)	; 07ED  DD 56 19	]V.
 955:	07F0  1E00    		LD	E,$00		; 07F0  1E 00		..
 956:	07F2  D5      		PUSH	DE		; 07F2  D5		U
 957:	07F3  15      		DEC	D		; 07F3  15		.
 958:	07F4  1ED0    		LD	E,$D0		; 07F4  1E D0		.P
 959:	07F6  D5      		PUSH	DE		; 07F6  D5		U
 960:	07F7  21720D  		LD	HL,X0D72	; 07F7  21 72 0D	!r.
 961:	07FA  010C00  		LD	BC,X000C	; 07FA  01 0C 00	...
 962:	07FD  EDB0    		LDIR			; 07FD  ED B0		m0
 963:	07FF  EB      		EX	DE,HL		; 07FF  EB		k
 964:	0800  70      	X0800:	LD	(HL),B		; 0800  70		p
 965:	0801  D1      		POP	DE		; 0801  D1		Q
 966:	0802  D5      		PUSH	DE		; 0802  D5		U
 967:	0803  0E0F    		LD	C,$0F		; 0803  0E 0F		..
 968:	0805  CD0500  		CALL	X0005		; 0805  CD 05 00	M..
 969:	0808  D1      		POP	DE		; 0808  D1		Q
 970:	0809  212000  		LD	HL,X0020	; 0809  21 20 00	! .
 971:	080C  19      		ADD	HL,DE		; 080C  19		.
 972:	080D  AF      		XOR	A		; 080D  AF		/
 973:	080E  77      		LD	(HL),A		; 080E  77		w
 974:	080F  23      		INC	HL		; 080F  23		#
 975:	0810  77      		LD	(HL),A		; 0810  77		w
 976:	0811  23      		INC	HL		; 0811  23		#
 977:	0812  3601    		LD	(HL),$01	; 0812  36 01		6.
 978:	0814  32410B  		LD	(X0B41),A	; 0814  32 41 0B	2A.
 979:	0817  E1      		POP	HL		; 0817  E1		a
 980:	0818  F9      		LD	SP,HL		; 0818  F9		y
 981:	0819  210001  		LD	HL,X0100	; 0819  21 00 01	!..
 982:	081C  18B1    		JR	X07CF		; 081C  18 B1		.1
 983:			;
 984:	081E  F5      	X081E:	PUSH	AF		; 081E  F5		u
 985:	081F  1F      		RRA			; 081F  1F		.
 986:	0820  1F      	X0820:	RRA			; 0820  1F		.
 987:	0821  1F      		RRA			; 0821  1F		.
 988:	0822  1F      		RRA			; 0822  1F		.
 989:	0823  CD2708  		CALL	X0827		; 0823  CD 27 08	M'.
 990:	0826  F1      		POP	AF		; 0826  F1		q
 991:	0827  E60F    	X0827:	AND	$0F		; 0827  E6 0F		f.
 992:	0829  C630    		ADD	A,$30		; 0829  C6 30		F0
 993:	082B  5F      	X082B:	LD	E,A		; 082B  5F		_
 994:	082C  0E02    	X082C:	LD	C,$02		; 082C  0E 02		..
 995:	082E  1849    		JR	X0879		; 082E  18 49		.I
 996:			;
 997:	0830  0601    	X0830:	LD	B,$01		; 0830  06 01		..
 998:	0832  1810    		JR	X0844		; 0832  18 10		..
 999:			;
1000:	0834  0604    	X0834:	LD	B,$04		; 0834  06 04		..
1001:	0836  218E00  	X0836:	LD	HL,X008E	; 0836  21 8E 00	!..
1002:	0839  CD6308  		CALL	X0863		; 0839  CD 63 08	Mc.
1003:	083C  CB7E    		BIT	7,(HL)		; 083C  CB 7E		K~
1004:	083E  2804    		JR	Z,X0844		; 083E  28 04		(.
1005:	0840  23      		INC	HL		; 0840  23		#
1006:	0841  CB46    		BIT	0,(HL)		; 0841  CB 46		KF
1007:	0843  C0      		RET	NZ		; 0843  C0		@
1008:	0844  CD6008  	X0844:	CALL	X0860		; 0844  CD 60 08	M`.
1009:	0847  1805    		JR	X084E		; 0847  18 05		..
1010:			;
1011:	0849  7E      	X0849:	LD	A,(HL)		; 0849  7E		~
1012:	084A  23      		INC	HL		; 084A  23		#
1013:	084B  B7      		OR	A		; 084B  B7		7
1014:	084C  20FB    		JR	NZ,X0849	; 084C  20 FB		 {
1015:	084E  10F9    	X084E:	DJNZ	X0849		; 084E  10 F9		.y
1016:	0850  7E      	X0850:	LD	A,(HL)		; 0850  7E		~
1017:	0851  B7      		OR	A		; 0851  B7		7
1018:	0852  C8      		RET	Z		; 0852  C8		H
1019:	0853  5F      		LD	E,A		; 0853  5F		_
1020:	0854  E5      		PUSH	HL		; 0854  E5		e
1021:	0855  CD6908  		CALL	X0869		; 0855  CD 69 08	Mi.
1022:	0858  E1      		POP	HL		; 0858  E1		a
1023:	0859  23      		INC	HL		; 0859  23		#
1024:	085A  18F4    		JR	X0850		; 085A  18 F4		.t
1025:			;
1026:	085C  0605    	X085C:	LD	B,$05		; 085C  06 05		..
1027:	085E  18D6    		JR	X0836		; 085E  18 D6		.V
1028:			;
1029:	0860  219700  	X0860:	LD	HL,X0097	; 0860  21 97 00	!..
1030:	0863  ED5B990E	X0863:	LD	DE,(X0E99)	; 0863  ED 5B 99 0E	m[..
1031:	0867  19      		ADD	HL,DE		; 0867  19		.
1032:	0868  C9      		RET			; 0868  C9		I
1033:			;
1034:	0869  4B      	X0869:	LD	C,E		; 0869  4B		K
1035:	086A  2A0100  		LD	HL,(X0001)	; 086A  2A 01 00	*..
1036:	086D  2E0C    		LD	L,$0C		; 086D  2E 0C		..
1037:	086F  E9      		JP	(HL)		; 086F  E9		i
1038:			;
1039:	0870  0E09    	X0870:	LD	C,$09		; 0870  0E 09		..
1040:	0872  1805    		JR	X0879		; 0872  18 05		..
1041:			;
1042:	0874  118000  	X0874:	LD	DE,X0080	; 0874  11 80 00	...
1043:	0877  0E1A    	X0877:	LD	C,$1A		; 0877  0E 1A		..
1044:	0879  C32C01  	X0879:	JP	X012C		; 0879  C3 2C 01	C,.
1045:			;
1046:	087C  3E0D    	X087C:	LD	A,$0D		; 087C  3E 0D		>.
1047:	087E  327E0D  		LD	(X0D7E),A	; 087E  32 7E 0D	2~.
1048:	0881  4F      		LD	C,A		; 0881  4F		O
1049:	0882  C32C01  		JP	X012C		; 0882  C3 2C 01	C,.
1050:			;
1051:	0885  0E69    	X0885:	LD	C,$69		; 0885  0E 69		.i
1052:	0887  18F0    		JR	X0879		; 0887  18 F0		.p
1053:			;
1054:	0889  0E14    	X0889:	LD	C,$14		; 0889  0E 14		..
1055:	088B  18EC    		JR	X0879		; 088B  18 EC		.l
1056:			;
1057:	088D  0E06    	X088D:	LD	C,$06		; 088D  0E 06		..
1058:	088F  18E8    		JR	X0879		; 088F  18 E8		.h
1059:			;
1060:	0891  1A      	X0891:	LD	A,(DE)		; 0891  1A		.
1061:	0892  13      		INC	DE		; 0892  13		.
1062:	0893  B7      		OR	A		; 0893  B7		7
1063:	0894  C8      		RET	Z		; 0894  C8		H
1064:	0895  3D      		DEC	A		; 0895  3D		=
1065:	0896  DD7760  		LD	(IX+$60),A	; 0896  DD 77 60	]w`
1066:	0899  C9      		RET			; 0899  C9		I
1067:			;
1068:	089A  010FFF  	X089A:	LD	BC,XFF0F	; 089A  01 0F FF	...
1069:	089D  11900D  		LD	DE,X0D90	; 089D  11 90 0D	...
1070:	08A0  AF      		XOR	A		; 08A0  AF		/
1071:	08A1  32B00D  		LD	(X0DB0),A	; 08A1  32 B0 0D	20.
1072:	08A4  C5      		PUSH	BC		; 08A4  C5		E
1073:	08A5  D5      		PUSH	DE		; 08A5  D5		U
1074:	08A6  11850D  		LD	DE,X0D85	; 08A6  11 85 0D	...
1075:	08A9  CD7708  		CALL	X0877		; 08A9  CD 77 08	Mw.
1076:	08AC  D1      		POP	DE		; 08AC  D1		Q
1077:	08AD  C1      		POP	BC		; 08AD  C1		A
1078:	08AE  D5      		PUSH	DE		; 08AE  D5		U
1079:	08AF  DD7067  	X08AF:	LD	(IX+$67),B	; 08AF  DD 70 67	]pg
1080:	08B2  CD2C01  		CALL	X012C		; 08B2  CD 2C 01	M,.
1081:	08B5  DD366700		LD	(IX+$67),$00	; 08B5  DD 36 67 00	]6g.
1082:	08B9  2C      		INC	L		; 08B9  2C		,
1083:	08BA  205D    		JR	NZ,X0919	; 08BA  20 5D		 ]
1084:	08BC  7C      		LD	A,H		; 08BC  7C		|
1085:	08BD  B7      		OR	A		; 08BD  B7		7
1086:	08BE  2859    		JR	Z,X0919		; 08BE  28 59		(Y
1087:	08C0  FE07    		CP	$07		; 08C0  FE 07		~.
1088:	08C2  2039    		JR	NZ,X08FD	; 08C2  20 39		 9
1089:	08C4  21730D  		LD	HL,X0D73	; 08C4  21 73 0D	!s.
1090:	08C7  BE      		CP	(HL)		; 08C7  BE		>
1091:	08C8  280E    		JR	Z,X08D8		; 08C8  28 0E		(.
1092:	08CA  77      		LD	(HL),A		; 08CA  77		w
1093:	08CB  200B    		JR	NZ,X08D8	; 08CB  20 0B		 .
1094:	08CD  CD8609  		CALL	X0986		; 08CD  CD 86 09	M..
1095:	08D0  010FFF  		LD	BC,XFF0F	; 08D0  01 0F FF	...
1096:	08D3  11900D  		LD	DE,X0D90	; 08D3  11 90 0D	...
1097:	08D6  18D7    		JR	X08AF		; 08D6  18 D7		.W
1098:			;
1099:	08D8  3C      	X08D8:	INC	A		; 08D8  3C		<
1100:	08D9  77      		LD	(HL),A		; 08D9  77		w
1101:	08DA  116C09  		LD	DE,X096C	; 08DA  11 6C 09	.l.
1102:	08DD  182E    		JR	X090D		; 08DD  18 2E		..
1103:			;
1104:	08DF  3AE404  	X08DF:	LD	A,(X04E4)	; 08DF  3A E4 04	:d.
1105:	08E2  5F      		LD	E,A		; 08E2  5F		_
1106:	08E3  DDBE5A  		CP	(IX+$5A)	; 08E3  DD BE 5A	]>Z
1107:	08E6  2005    		JR	NZ,X08ED	; 08E6  20 05		 .
1108:	08E8  3A7E0D  		LD	A,(X0D7E)	; 08E8  3A 7E 0D	:~.
1109:	08EB  B7      		OR	A		; 08EB  B7		7
1110:	08EC  C8      		RET	Z		; 08EC  C8		H
1111:	08ED  DD3667FF	X08ED:	LD	(IX+$67),$FF	; 08ED  DD 36 67 FF	]6g.
1112:	08F1  0E0E    		LD	C,$0E		; 08F1  0E 0E		..
1113:	08F3  CD2C01  		CALL	X012C		; 08F3  CD 2C 01	M,.
1114:	08F6  DD366700		LD	(IX+$67),$00	; 08F6  DD 36 67 00	]6g.
1115:	08FA  7C      		LD	A,H		; 08FA  7C		|
1116:	08FB  B7      		OR	A		; 08FB  B7		7
1117:	08FC  C8      		RET	Z		; 08FC  C8		H
1118:	08FD  114209  	X08FD:	LD	DE,X0942	; 08FD  11 42 09	.B.
1119:	0900  3D      		DEC	A		; 0900  3D		=
1120:	0901  280A    		JR	Z,X090D		; 0901  28 0A		(.
1121:	0903  115109  		LD	DE,X0951	; 0903  11 51 09	.Q.
1122:	0906  FE03    		CP	$03		; 0906  FE 03		~.
1123:	0908  2803    		JR	Z,X090D		; 0908  28 03		(.
1124:	090A  115D09  		LD	DE,X095D	; 090A  11 5D 09	.].
1125:	090D  CD440B  	X090D:	CALL	X0B44		; 090D  CD 44 0B	MD.
1126:	0910  CD7008  	X0910:	CALL	X0870		; 0910  CD 70 08	Mp.
1127:	0913  CDDF0C  		CALL	X0CDF		; 0913  CD DF 0C	M_.
1128:	0916  C3BF04  		JP	X04BF		; 0916  C3 BF 04	C?.
1129:			;
1130:	0919  2D      	X0919:	DEC	L		; 0919  2D		-
1131:	091A  E5      		PUSH	HL		; 091A  E5		e
1132:	091B  CD7408  		CALL	X0874		; 091B  CD 74 08	Mt.
1133:	091E  E1      		POP	HL		; 091E  E1		a
1134:	091F  2C      		INC	L		; 091F  2C		,
1135:	0920  D1      		POP	DE		; 0920  D1		Q
1136:	0921  3A980D  		LD	A,(X0D98)	; 0921  3A 98 0D	:..
1137:	0924  17      		RLA			; 0924  17		.
1138:	0925  D0      		RET	NC		; 0925  D0		P
1139:	0926  AF      		XOR	A		; 0926  AF		/
1140:	0927  C9      		RET			; 0927  C9		I
1141:			;
1142:	0928  0D0A    	X0928:	DEFB	$0D,$0A					; 0928 ..
1143:	092A  456E7465		DEFB	'Enter password for $'			; 092A
	      72207061
	      7373776F
	      72642066
	      6F722024
1144:	093E  202D3E24	X093E:	DEFB	' ->$'					; 093E
1145:	0942  4469736B	X0942:	DEFB	'Disk I/O Error$'			; 0942
	      20492F4F
	      20457272
	      6F7224
1146:	0951  496E7661	X0951:	DEFB	'Invalid DU:$'				; 0951
	      6C696420
	      44553A24
1147:	095D  223F22  	X095D:	DEFB	$22,$3F,$22				; 095D "?"
1148:	0960  20696E20		DEFB	' in command$'				; 0960
	      636F6D6D
	      616E6424
1149:	096C  50617373	X096C:	DEFB	'Password WRONG!'			; 096C
	      776F7264
	      2057524F
	      4E4721
1150:	097B  0D0A    		DEFB	$0D,$0A					; 097B ..
1151:	097D  24      		DEFB	'$'					; 097D
1152:	097E  203F24  	X097E:	DEFB	' ?$'					; 097E
1153:	0981  4F76666C	X0981:	DEFB	'Ovfl'					; 0981
1154:	0985  24      		DEFB	$24					; 0985 $
1155:			;
1156:	0986  112809  	X0986:	LD	DE,X0928	; 0986  11 28 09	.(.
1157:	0989  CD7008  		CALL	X0870		; 0989  CD 70 08	Mp.
1158:	098C  21910D  		LD	HL,X0D91	; 098C  21 91 0D	!..
1159:	098F  012008  		LD	BC,X0820	; 098F  01 20 08	. .
1160:	0992  CD340B  		CALL	X0B34		; 0992  CD 34 0B	M4.
1161:	0995  3E2E    		LD	A,$2E		; 0995  3E 2E		>.
1162:	0997  CD560B  		CALL	X0B56		; 0997  CD 56 0B	MV.
1163:	099A  21990D  		LD	HL,X0D99	; 099A  21 99 0D	!..
1164:	099D  012003  		LD	BC,X0320	; 099D  01 20 03	. .
1165:	09A0  CD340B  		CALL	X0B34		; 09A0  CD 34 0B	M4.
1166:	09A3  113E09  		LD	DE,X093E	; 09A3  11 3E 09	.>.
1167:	09A6  CD7008  		CALL	X0870		; 09A6  CD 70 08	Mp.
1168:	09A9  0608    		LD	B,$08		; 09A9  06 08		..
1169:	09AB  21850D  		LD	HL,X0D85	; 09AB  21 85 0D	!..
1170:	09AE  E5      	X09AE:	PUSH	HL		; 09AE  E5		e
1171:	09AF  C5      		PUSH	BC		; 09AF  C5		E
1172:	09B0  1EFD    		LD	E,$FD		; 09B0  1E FD		.}
1173:	09B2  CD8D08  		CALL	X088D		; 09B2  CD 8D 08	M..
1174:	09B5  F5      		PUSH	AF		; 09B5  F5		u
1175:	09B6  1E2A    		LD	E,$2A		; 09B6  1E 2A		.*
1176:	09B8  CD8D08  		CALL	X088D		; 09B8  CD 8D 08	M..
1177:	09BB  F1      		POP	AF		; 09BB  F1		q
1178:	09BC  C1      		POP	BC		; 09BC  C1		A
1179:	09BD  E1      		POP	HL		; 09BD  E1		a
1180:	09BE  CDD309  		CALL	X09D3		; 09BE  CD D3 09	MS.
1181:	09C1  FE0D    		CP	$0D		; 09C1  FE 0D		~.
1182:	09C3  2806    		JR	Z,X09CB		; 09C3  28 06		(.
1183:	09C5  77      		LD	(HL),A		; 09C5  77		w
1184:	09C6  23      		INC	HL		; 09C6  23		#
1185:	09C7  10E5    		DJNZ	X09AE		; 09C7  10 E5		.e
1186:	09C9  1805    		JR	X09D0		; 09C9  18 05		..
1187:			;
1188:	09CB  3620    	X09CB:	LD	(HL),$20	; 09CB  36 20		6
1189:	09CD  23      		INC	HL		; 09CD  23		#
1190:	09CE  10FB    		DJNZ	X09CB		; 09CE  10 FB		.{
1191:	09D0  C3440B  	X09D0:	JP	X0B44		; 09D0  C3 44 0B	CD.
1192:			;
1193:	09D3  E67F    	X09D3:	AND	$7F		; 09D3  E6 7F		f.
1194:	09D5  FE61    		CP	$61		; 09D5  FE 61		~a
1195:	09D7  D8      		RET	C		; 09D7  D8		X
1196:	09D8  FE7B    		CP	$7B		; 09D8  FE 7B		~{
1197:	09DA  D0      		RET	NC		; 09DA  D0		P
1198:	09DB  D620    		SUB	$20		; 09DB  D6 20		V
1199:	09DD  C9      		RET			; 09DD  C9		I
1200:			;
1201:	09DE  CD670D  	X09DE:	CALL	X0D67		; 09DE  CD 67 0D	Mg.
1202:	09E1  1A      	X09E1:	LD	A,(DE)		; 09E1  1A		.
1203:	09E2  B7      		OR	A		; 09E2  B7		7
1204:	09E3  2832    		JR	Z,X0A17		; 09E3  28 32		(2
1205:	09E5  FE3B    		CP	$3B		; 09E5  FE 3B		~;
1206:	09E7  2003    		JR	NZ,X09EC	; 09E7  20 03		 .
1207:	09E9  13      		INC	DE		; 09E9  13		.
1208:	09EA  18F5    		JR	X09E1		; 09EA  18 F5		.u
1209:			;
1210:	09EC  2A960E  	X09EC:	LD	HL,(X0E96)	; 09EC  2A 96 0E	*..
1211:	09EF  010400  		LD	BC,X0004	; 09EF  01 04 00	...
1212:	09F2  09      		ADD	HL,BC		; 09F2  09		.
1213:	09F3  EB      		EX	DE,HL		; 09F3  EB		k
1214:	09F4  D5      		PUSH	DE		; 09F4  D5		U
1215:	09F5  CD420D  		CALL	X0D42		; 09F5  CD 42 0D	MB.
1216:	09F8  E1      		POP	HL		; 09F8  E1		a
1217:	09F9  FD7504  		LD	(IY+$04),L	; 09F9  FD 75 04	}u.
1218:	09FC  FD7405  		LD	(IY+$05),H	; 09FC  FD 74 05	}t.
1219:	09FF  117E0F  		LD	DE,X0F7E	; 09FF  11 7E 0F	.~.
1220:	0A02  06C8    		LD	B,$C8		; 0A02  06 C8		.H
1221:	0A04  CD630D  		CALL	X0D63		; 0A04  CD 63 0D	Mc.
1222:	0A07  EB      		EX	DE,HL		; 0A07  EB		k
1223:	0A08  AF      		XOR	A		; 0A08  AF		/
1224:	0A09  77      		LD	(HL),A		; 0A09  77		w
1225:	0A0A  23      		INC	HL		; 0A0A  23		#
1226:	0A0B  77      		LD	(HL),A		; 0A0B  77		w
1227:	0A0C  2A960E  		LD	HL,(X0E96)	; 0A0C  2A 96 0E	*..
1228:	0A0F  73      		LD	(HL),E		; 0A0F  73		s
1229:	0A10  23      		INC	HL		; 0A10  23		#
1230:	0A11  72      		LD	(HL),D		; 0A11  72		r
1231:	0A12  217E0F  		LD	HL,X0F7E	; 0A12  21 7E 0F	!~.
1232:	0A15  71      		LD	(HL),C		; 0A15  71		q
1233:	0A16  C9      		RET			; 0A16  C9		I
1234:			;
1235:	0A17  E5      	X0A17:	PUSH	HL		; 0A17  E5		e
1236:	0A18  23      		INC	HL		; 0A18  23		#
1237:	0A19  23      		INC	HL		; 0A19  23		#
1238:	0A1A  77      		LD	(HL),A		; 0A1A  77		w
1239:	0A1B  23      		INC	HL		; 0A1B  23		#
1240:	0A1C  77      		LD	(HL),A		; 0A1C  77		w
1241:	0A1D  EB      		EX	DE,HL		; 0A1D  EB		k
1242:	0A1E  E1      		POP	HL		; 0A1E  E1		a
1243:	0A1F  72      		LD	(HL),D		; 0A1F  72		r
1244:	0A20  2B      		DEC	HL		; 0A20  2B		+
1245:	0A21  73      		LD	(HL),E		; 0A21  73		s
1246:	0A22  FD7E08  		LD	A,(IY+$08)	; 0A22  FD 7E 08	}~.
1247:	0A25  B7      		OR	A		; 0A25  B7		7
1248:	0A26  201A    		JR	NZ,X0A42	; 0A26  20 1A		 .
1249:	0A28  DDCB3476		BIT	6,(IX+$34)	; 0A28  DD CB 34 76	]K4v
1250:	0A2C  2014    		JR	NZ,X0A42	; 0A2C  20 14		 .
1251:	0A2E  2A9C0E  		LD	HL,(X0E9C)	; 0A2E  2A 9C 0E	*..
1252:	0A31  7E      		LD	A,(HL)		; 0A31  7E		~
1253:	0A32  B7      		OR	A		; 0A32  B7		7
1254:	0A33  280D    		JR	Z,X0A42		; 0A33  28 0D		(.
1255:	0A35  FDCB03C6		SET	0,(IY+$03)	; 0A35  FD CB 03 C6	}K.F
1256:	0A39  3A9F0E  		LD	A,(X0E9F)	; 0A39  3A 9F 0E	:..
1257:	0A3C  47      		LD	B,A		; 0A3C  47		G
1258:	0A3D  CD1F0D  		CALL	X0D1F		; 0A3D  CD 1F 0D	M..
1259:	0A40  189C    		JR	X09DE		; 0A40  18 9C		..
1260:			;
1261:	0A42  FD7E08  	X0A42:	LD	A,(IY+$08)	; 0A42  FD 7E 08	}~.
1262:	0A45  B7      		OR	A		; 0A45  B7		7
1263:	0A46  202A    		JR	NZ,X0A72	; 0A46  20 2A		 *
1264:	0A48  CD440B  		CALL	X0B44		; 0A48  CD 44 0B	MD.
1265:	0A4B  CD490B  	X0A4B:	CALL	X0B49		; 0A4B  CD 49 0B	MI.
1266:	0A4E  CD990A  		CALL	X0A99		; 0A4E  CD 99 0A	M..
1267:	0A51  DDCB5446		BIT	0,(IX+$54)	; 0A51  DD CB 54 46	]KTF
1268:	0A55  201B    		JR	NZ,X0A72	; 0A55  20 1B		 .
1269:	0A57  11800D  	X0A57:	LD	DE,$0D80	; 0A57  11 80 0D	...
1270:	0A5A  CD8508  		CALL	X0885		; 0A5A  CD 85 08	M..
1271:	0A5D  ED4B830D		LD	BC,(X0D83)	; 0A5D  ED 4B 83 0D	mK..
1272:	0A61  78      		LD	A,B		; 0A61  78		x
1273:	0A62  B9      		CP	C		; 0A62  B9		9
1274:	0A63  20E6    		JR	NZ,X0A4B	; 0A63  20 E6		 f
1275:	0A65  DDCB3476		BIT	6,(IX+$34)	; 0A65  DD CB 34 76	]K4v
1276:	0A69  2007    		JR	NZ,X0A72	; 0A69  20 07		 .
1277:	0A6B  1EFE    		LD	E,$FE		; 0A6B  1E FE		.~
1278:	0A6D  CD8D08  		CALL	X088D		; 0A6D  CD 8D 08	M..
1279:	0A70  28E5    		JR	Z,X0A57		; 0A70  28 E5		(e
1280:	0A72  FD360701	X0A72:	LD	(IY+$07),$01	; 0A72  FD 36 07 01	}6..
1281:	0A76  2A960E  		LD	HL,(X0E96)	; 0A76  2A 96 0E	*..
1282:	0A79  23      		INC	HL		; 0A79  23		#
1283:	0A7A  23      		INC	HL		; 0A7A  23		#
1284:	0A7B  36C8    		LD	(HL),$C8	; 0A7B  36 C8		6H
1285:	0A7D  E5      		PUSH	HL		; 0A7D  E5		e
1286:	0A7E  EB      		EX	DE,HL		; 0A7E  EB		k
1287:	0A7F  0E0A    		LD	C,$0A		; 0A7F  0E 0A		..
1288:	0A81  CD2C01  		CALL	X012C		; 0A81  CD 2C 01	M,.
1289:	0A84  E1      		POP	HL		; 0A84  E1		a
1290:	0A85  23      		INC	HL		; 0A85  23		#
1291:	0A86  7E      		LD	A,(HL)		; 0A86  7E		~
1292:	0A87  23      		INC	HL		; 0A87  23		#
1293:	0A88  46      		LD	B,(HL)		; 0A88  46		F
1294:	0A89  CD090D  		CALL	X0D09		; 0A89  CD 09 0D	M..
1295:	0A8C  AF      		XOR	A		; 0A8C  AF		/
1296:	0A8D  77      		LD	(HL),A		; 0A8D  77		w
1297:	0A8E  FD7707  		LD	(IY+$07),A	; 0A8E  FD 77 07	}w.
1298:	0A91  78      		LD	A,B		; 0A91  78		x
1299:	0A92  FE3B    		CP	$3B		; 0A92  FE 3B		~;
1300:	0A94  28AC    		JR	Z,X0A42		; 0A94  28 AC		(,
1301:	0A96  C3DE09  		JP	X09DE		; 0A96  C3 DE 09	C^.
1302:			;
1303:	0A99  CD3408  	X0A99:	CALL	X0834		; 0A99  CD 34 08	M4.
1304:	0A9C  11810D  		LD	DE,X0D81	; 0A9C  11 81 0D	...
1305:	0A9F  CD8508  		CALL	X0885		; 0A9F  CD 85 08	M..
1306:	0AA2  ED4B830D		LD	BC,(X0D83)	; 0AA2  ED 4B 83 0D	mK..
1307:	0AA6  C5      		PUSH	BC		; 0AA6  C5		E
1308:	0AA7  79      		LD	A,C		; 0AA7  79		y
1309:	0AA8  CD1E08  		CALL	X081E		; 0AA8  CD 1E 08	M..
1310:	0AAB  1E3A    		LD	E,$3A		; 0AAB  1E 3A		.:
1311:	0AAD  CD2C08  		CALL	X082C		; 0AAD  CD 2C 08	M,.
1312:	0AB0  F1      		POP	AF		; 0AB0  F1		q
1313:	0AB1  CD1E08  		CALL	X081E		; 0AB1  CD 1E 08	M..
1314:	0AB4  CD5C08  		CALL	X085C		; 0AB4  CD 5C 08	M\.
1315:	0AB7  CD540B  		CALL	X0B54		; 0AB7  CD 54 0B	MT.
1316:	0ABA  3AAC0E  		LD	A,(X0EAC)	; 0ABA  3A AC 0E	:,.
1317:	0ABD  3D      		DEC	A		; 0ABD  3D		=
1318:	0ABE  2009    		JR	NZ,X0AC9	; 0ABE  20 09		 .
1319:	0AC0  CD4D0B  		CALL	X0B4D		; 0AC0  CD 4D 0B	MM.
1320:	0AC3  3AC806  		LD	A,(X06C8)	; 0AC3  3A C8 06	:H.
1321:	0AC6  CD100B  		CALL	X0B10		; 0AC6  CD 10 0B	M..
1322:	0AC9  2A930E  	X0AC9:	LD	HL,(X0E93)	; 0AC9  2A 93 0E	*..
1323:	0ACC  7C      		LD	A,H		; 0ACC  7C		|
1324:	0ACD  B5      		OR	L		; 0ACD  B5		5
1325:	0ACE  2821    		JR	Z,X0AF1		; 0ACE  28 21		(!
1326:	0AD0  7E      	X0AD0:	LD	A,(HL)		; 0AD0  7E		~
1327:	0AD1  B7      		OR	A		; 0AD1  B7		7
1328:	0AD2  281D    		JR	Z,X0AF1		; 0AD2  28 1D		(.
1329:	0AD4  3AE404  		LD	A,(X04E4)	; 0AD4  3A E4 04	:d.
1330:	0AD7  3C      		INC	A		; 0AD7  3C		<
1331:	0AD8  BE      		CP	(HL)		; 0AD8  BE		>
1332:	0AD9  23      		INC	HL		; 0AD9  23		#
1333:	0ADA  202E    		JR	NZ,X0B0A	; 0ADA  20 2E		 .
1334:	0ADC  3AC806  		LD	A,(X06C8)	; 0ADC  3A C8 06	:H.
1335:	0ADF  BE      		CP	(HL)		; 0ADF  BE		>
1336:	0AE0  2028    		JR	NZ,X0B0A	; 0AE0  20 28		 (
1337:	0AE2  3AAC0E  		LD	A,(X0EAC)	; 0AE2  3A AC 0E	:,.
1338:	0AE5  B7      		OR	A		; 0AE5  B7		7
1339:	0AE6  3E3A    		LD	A,$3A		; 0AE6  3E 3A		>:
1340:	0AE8  C4560B  	X0AE8:	CALL	NZ,X0B56	; 0AE8  C4 56 0B	DV.
1341:	0AEB  23      		INC	HL		; 0AEB  23		#
1342:	0AEC  7E      		LD	A,(HL)		; 0AEC  7E		~
1343:	0AED  FE20    		CP	$20		; 0AED  FE 20		~
1344:	0AEF  20F7    		JR	NZ,X0AE8	; 0AEF  20 F7		 w
1345:	0AF1  CD3408  	X0AF1:	CALL	X0834		; 0AF1  CD 34 08	M4.
1346:	0AF4  CD0E0D  		CALL	X0D0E		; 0AF4  CD 0E 0D	M..
1347:	0AF7  117F0D  		LD	DE,X0D7F	; 0AF7  11 7F 0D	...
1348:	0AFA  0E3C    		LD	C,$3C		; 0AFA  0E 3C		.<
1349:	0AFC  CD2C01  		CALL	X012C		; 0AFC  CD 2C 01	M,.
1350:	0AFF  CD1B0D  		CALL	X0D1B		; 0AFF  CD 1B 0D	M..
1351:	0B02  CD5C08  		CALL	X085C		; 0B02  CD 5C 08	M\.
1352:	0B05  3E3E    		LD	A,$3E		; 0B05  3E 3E		>>
1353:	0B07  C32B08  		JP	X082B		; 0B07  C3 2B 08	C+.
1354:			;
1355:	0B0A  111100  	X0B0A:	LD	DE,X0011	; 0B0A  11 11 00	...
1356:	0B0D  19      		ADD	HL,DE		; 0B0D  19		.
1357:	0B0E  18C0    		JR	X0AD0		; 0B0E  18 C0		.@
1358:			;
1359:	0B10  2600    	X0B10:	LD	H,$00		; 0B10  26 00		&.
1360:	0B12  6F      		LD	L,A		; 0B12  6F		o
1361:	0B13  E5      	X0B13:	PUSH	HL		; 0B13  E5		e
1362:	0B14  D5      		PUSH	DE		; 0B14  D5		U
1363:	0B15  C5      		PUSH	BC		; 0B15  C5		E
1364:	0B16  F5      		PUSH	AF		; 0B16  F5		u
1365:	0B17  01F6FF  		LD	BC,XFFF6	; 0B17  01 F6 FF	.v.
1366:	0B1A  11FFFF  		LD	DE,XFFFF	; 0B1A  11 FF FF	...
1367:	0B1D  09      	X0B1D:	ADD	HL,BC		; 0B1D  09		.
1368:	0B1E  13      		INC	DE		; 0B1E  13		.
1369:	0B1F  38FC    		JR	C,X0B1D		; 0B1F  38 FC		8|
1370:	0B21  ED42    		SBC	HL,BC		; 0B21  ED 42		mB
1371:	0B23  EB      		EX	DE,HL		; 0B23  EB		k
1372:	0B24  7C      		LD	A,H		; 0B24  7C		|
1373:	0B25  B5      		OR	L		; 0B25  B5		5
1374:	0B26  C4130B  		CALL	NZ,X0B13	; 0B26  C4 13 0B	D..
1375:	0B29  7B      		LD	A,E		; 0B29  7B		{
1376:	0B2A  C630    		ADD	A,$30		; 0B2A  C6 30		F0
1377:	0B2C  CD2B08  		CALL	X082B		; 0B2C  CD 2B 08	M+.
1378:	0B2F  F1      		POP	AF		; 0B2F  F1		q
1379:	0B30  C1      		POP	BC		; 0B30  C1		A
1380:	0B31  D1      		POP	DE		; 0B31  D1		Q
1381:	0B32  E1      		POP	HL		; 0B32  E1		a
1382:	0B33  C9      		RET			; 0B33  C9		I
1383:			;
1384:	0B34  7E      	X0B34:	LD	A,(HL)		; 0B34  7E		~
1385:	0B35  B7      		OR	A		; 0B35  B7		7
1386:	0B36  C8      		RET	Z		; 0B36  C8		H
1387:	0B37  B9      		CP	C		; 0B37  B9		9
1388:	0B38  C8      		RET	Z		; 0B38  C8		H
1389:	0B39  CD560B  		CALL	X0B56		; 0B39  CD 56 0B	MV.
1390:	0B3C  23      		INC	HL		; 0B3C  23		#
1391:	0B3D  10F5    		DJNZ	X0B34		; 0B3D  10 F5		.u
1392:	0B3F  C9      		RET			; 0B3F  C9		I
1393:			;
1394:	0B40  3EFF    	X0B40:	LD	A,$FF		; 0B40  3E FF		>.
1395:	0B42  B7      		OR	A		; 0B42  B7		7
1396:	0B43  C8      		RET	Z		; 0B43  C8		H
1397:	0B44  3E0A    	X0B44:	LD	A,$0A		; 0B44  3E 0A		>.
1398:	0B46  CD560B  		CALL	X0B56		; 0B46  CD 56 0B	MV.
1399:	0B49  3E0D    	X0B49:	LD	A,$0D		; 0B49  3E 0D		>.
1400:	0B4B  1809    		JR	X0B56		; 0B4B  18 09		..
1401:			;
1402:	0B4D  3AE404  	X0B4D:	LD	A,(X04E4)	; 0B4D  3A E4 04	:d.
1403:	0B50  C641    		ADD	A,$41		; 0B50  C6 41		FA
1404:	0B52  1802    		JR	X0B56		; 0B52  18 02		..
1405:			;
1406:	0B54  3E20    	X0B54:	LD	A,$20		; 0B54  3E 20		>
1407:	0B56  C5      	X0B56:	PUSH	BC		; 0B56  C5		E
1408:	0B57  D5      		PUSH	DE		; 0B57  D5		U
1409:	0B58  E5      		PUSH	HL		; 0B58  E5		e
1410:	0B59  CD2B08  		CALL	X082B		; 0B59  CD 2B 08	M+.
1411:	0B5C  E1      		POP	HL		; 0B5C  E1		a
1412:	0B5D  D1      		POP	DE		; 0B5D  D1		Q
1413:	0B5E  C1      		POP	BC		; 0B5E  C1		A
1414:	0B5F  C9      		RET			; 0B5F  C9		I
1415:			;
1416:	0B60  01FF00  	X0B60:	LD	BC,X00FF	; 0B60  01 FF 00	...
1417:	0B63  D5      	X0B63:	PUSH	DE		; 0B63  D5		U
1418:	0B64  E5      		PUSH	HL		; 0B64  E5		e
1419:	0B65  1A      	X0B65:	LD	A,(DE)		; 0B65  1A		.
1420:	0B66  E67F    		AND	$7F		; 0B66  E6 7F		f.
1421:	0B68  FE21    		CP	$21		; 0B68  FE 21		~!
1422:	0B6A  3803    		JR	C,X0B6F		; 0B6A  38 03		8.
1423:	0B6C  BE      		CP	(HL)		; 0B6C  BE		>
1424:	0B6D  200F    		JR	NZ,X0B7E	; 0B6D  20 0F		 .
1425:	0B6F  13      	X0B6F:	INC	DE		; 0B6F  13		.
1426:	0B70  0C      		INC	C		; 0B70  0C		.
1427:	0B71  3E20    		LD	A,$20		; 0B71  3E 20		>
1428:	0B73  BE      		CP	(HL)		; 0B73  BE		>
1429:	0B74  23      		INC	HL		; 0B74  23		#
1430:	0B75  20EE    		JR	NZ,X0B65	; 0B75  20 EE		 n
1431:	0B77  E1      		POP	HL		; 0B77  E1		a
1432:	0B78  D1      		POP	DE		; 0B78  D1		Q
1433:	0B79  CDFD06  		CALL	X06FD		; 0B79  CD FD 06	M}.
1434:	0B7C  78      		LD	A,B		; 0B7C  78		x
1435:	0B7D  C9      		RET			; 0B7D  C9		I
1436:			;
1437:	0B7E  3E20    	X0B7E:	LD	A,$20		; 0B7E  3E 20		>
1438:	0B80  BE      	X0B80:	CP	(HL)		; 0B80  BE		>
1439:	0B81  23      		INC	HL		; 0B81  23		#
1440:	0B82  20FC    		JR	NZ,X0B80	; 0B82  20 FC		 |
1441:	0B84  D1      		POP	DE		; 0B84  D1		Q
1442:	0B85  D1      		POP	DE		; 0B85  D1		Q
1443:	0B86  04      		INC	B		; 0B86  04		.
1444:	0B87  0EFF    		LD	C,$FF		; 0B87  0E FF		..
1445:	0B89  7E      		LD	A,(HL)		; 0B89  7E		~
1446:	0B8A  D601    		SUB	$01		; 0B8A  D6 01		V.
1447:	0B8C  30D5    		JR	NC,X0B63	; 0B8C  30 D5		0U
1448:	0B8E  C9      		RET			; 0B8E  C9		I
1449:			;
1450:	0B8F  54      	X0B8F:	LD	D,H		; 0B8F  54		T
1451:	0B90  5D      		LD	E,L		; 0B90  5D		]
1452:	0B91  13      		INC	DE		; 0B91  13		.
1453:	0B92  AF      		XOR	A		; 0B92  AF		/
1454:	0B93  77      		LD	(HL),A		; 0B93  77		w
1455:	0B94  011F00  		LD	BC,X001F	; 0B94  01 1F 00	...
1456:	0B97  EDB0    		LDIR			; 0B97  ED B0		m0
1457:	0B99  C9      		RET			; 0B99  C9		I
1458:			;
1459:	0B9A  AF32    		DEFB	$AF,$32					; 0B9A /2
1460:	0B9C  410B    		DEFW	X0B41		; 0B9C   41 0B      A.
1461:			;
1462:	0B9E  79B7    		DEFB	$79,'7'+80h				; 0B9E y7
1463:	0BA0  284E    		DEFB	'(N'					; 0BA0
1464:	0BA2  A0204BFD		DEFB	$A0,$20,$4B,$FD				; 0BA2   K}
1465:			;
1466:	0BA6  CB01    		RLC	C		; 0BA6  CB 01		K.
1467:	0BA8  26FD    		LD	H,$FD		; 0BA8  26 FD		&}
1468:	0BAA  7E      		LD	A,(HL)		; 0BAA  7E		~
1469:	0BAB  012FA0  		LD	BC,XA02F	; 0BAB  01 2F A0	./
1470:	0BAE  FD7702  		LD	(IY+$02),A	; 0BAE  FD 77 02	}w.
1471:	0BB1  32410B  		LD	(X0B41),A	; 0BB1  32 41 0B	2A.
1472:	0BB4  1804    		JR	X0BBA		; 0BB4  18 04		..
1473:			;
1474:	0BB6  FDCB013E		SRL	(IY+$01)	; 0BB6  FD CB 01 3E	}K.>
1475:	0BBA  C3BF04  	X0BBA:	JP	X04BF		; 0BBA  C3 BF 04	C?.
1476:			;
1477:	0BBD  791FB7  		DEFB	$79,$1F,$B7				; 0BBD y.7
1478:	0BC0  2803    		DEFW	X0328		; 0BC0   28 03      (.
1479:			;
1480:	0BC2  A0      		DEFB	$A0					; 0BC2
1481:			;
1482:	0BC3  28F5    		JR	Z,X0BBA		; 0BC3  28 F5		(u
1483:	0BC5  79      		LD	A,C		; 0BC5  79		y
1484:	0BC6  A8      		XOR	B		; 0BC6  A8		(
1485:	0BC7  FD7702  		LD	(IY+$02),A	; 0BC7  FD 77 02	}w.
1486:	0BCA  18EE    		JR	X0BBA		; 0BCA  18 EE		.n
1487:			;
1488:	0BCC  79A0    		DEFB	$79,$A0					; 0BCC y
1489:			;
1490:	0BCE  28EA    		JR	Z,X0BBA		; 0BCE  28 EA		(j
1491:	0BD0  AF      		XOR	A		; 0BD0  AF		/
1492:	0BD1  FD7701  		LD	(IY+$01),A	; 0BD1  FD 77 01	}w.
1493:	0BD4  18E4    		JR	X0BBA		; 0BD4  18 E4		.d
1494:			;
1495:	0BD6  79      		LD	A,C		; 0BD6  79		y
1496:	0BD7  B7      		OR	A		; 0BD7  B7		7
1497:	0BD8  28E0    		JR	Z,X0BBA		; 0BD8  28 E0		(`
1498:	0BDA  A0      		AND	B		; 0BDA  A0
1499:	0BDB  20DD    		JR	NZ,X0BBA	; 0BDB  20 DD		 ]
1500:	0BDD  AF      	X0BDD:	XOR	A		; 0BDD  AF		/
1501:	0BDE  32410B  		LD	(X0B41),A	; 0BDE  32 41 0B	2A.
1502:	0BE1  FDCB013E		SRL	(IY+$01)	; 0BE1  FD CB 01 3E	}K.>
1503:	0BE5  010300  		LD	BC,X0003	; 0BE5  01 03 00	...
1504:	0BE8  216E0D  		LD	HL,X0D6E	; 0BE8  21 6E 0D	!n.
1505:	0BEB  11910D  		LD	DE,X0D91	; 0BEB  11 91 0D	...
1506:	0BEE  EDB0    		LDIR			; 0BEE  ED B0		m0
1507:	0BF0  C39805  		JP	X0598		; 0BF0  C3 98 05	C..
1508:			;
1509:	0BF3  79B7    		DEFB	$79,$B7					; 0BF3 y7
1510:			;
1511:	0BF5  28E6    		JR	Z,X0BDD		; 0BF5  28 E6		(f
1512:	0BF7  A0      		AND	B		; 0BF7  A0
1513:	0BF8  28C0    		JR	Z,X0BBA		; 0BF8  28 C0		(@
1514:	0BFA  18E1    		JR	X0BDD		; 0BFA  18 E1		.a
1515:			;
1516:	0BFC  CD3008  		CALL	X0830		; 0BFC  CD 30 08	M0.
1517:	0BFF  18B9    		JR	X0BBA		; 0BFF  18 B9		.9
1518:			;
1519:	0C01  11910D  	X0C01:	LD	DE,X0D91	; 0C01  11 91 0D	...
1520:	0C04  1A      	X0C04:	LD	A,(DE)		; 0C04  1A		.
1521:	0C05  BE      		CP	(HL)		; 0C05  BE		>
1522:	0C06  2009    		JR	NZ,X0C11	; 0C06  20 09		 .
1523:	0C08  7E      		LD	A,(HL)		; 0C08  7E		~
1524:	0C09  FE20    		CP	$20		; 0C09  FE 20		~
1525:	0C0B  2804    		JR	Z,X0C11		; 0C0B  28 04		(.
1526:	0C0D  13      		INC	DE		; 0C0D  13		.
1527:	0C0E  23      		INC	HL		; 0C0E  23		#
1528:	0C0F  18F3    		JR	X0C04		; 0C0F  18 F3		.s
1529:			;
1530:	0C11  F5      	X0C11:	PUSH	AF		; 0C11  F5		u
1531:	0C12  7E      	X0C12:	LD	A,(HL)		; 0C12  7E		~
1532:	0C13  FE20    		CP	$20		; 0C13  FE 20		~
1533:	0C15  2803    		JR	Z,X0C1A		; 0C15  28 03		(.
1534:	0C17  23      		INC	HL		; 0C17  23		#
1535:	0C18  18F8    		JR	X0C12		; 0C18  18 F8		.x
1536:			;
1537:	0C1A  23      	X0C1A:	INC	HL		; 0C1A  23		#
1538:	0C1B  F1      		POP	AF		; 0C1B  F1		q
1539:	0C1C  C9      		RET			; 0C1C  C9		I
1540:			;
1541:	0C1D  23      	X0C1D:	INC	HL		; 0C1D  23		#
1542:	0C1E  23      		INC	HL		; 0C1E  23		#
1543:	0C1F  7E      		LD	A,(HL)		; 0C1F  7E		~
1544:	0C20  B7      		OR	A		; 0C20  B7		7
1545:	0C21  C8      		RET	Z		; 0C21  C8		H
1546:	0C22  CD010C  	X0C22:	CALL	X0C01		; 0C22  CD 01 0C	M..
1547:	0C25  20F6    		JR	NZ,X0C1D	; 0C25  20 F6		 v
1548:	0C27  5E      		LD	E,(HL)		; 0C27  5E		^
1549:	0C28  23      		INC	HL		; 0C28  23		#
1550:	0C29  56      		LD	D,(HL)		; 0C29  56		V
1551:	0C2A  D5      		PUSH	DE		; 0C2A  D5		U
1552:	0C2B  FD4E01  		LD	C,(IY+$01)	; 0C2B  FD 4E 01	}N.
1553:	0C2E  FD4602  		LD	B,(IY+$02)	; 0C2E  FD 46 02	}F.
1554:	0C31  C9      		RET			; 0C31  C9		I
1555:			;
1556:	0C32  4946209A	X0C32:	DEFB	$49,$46,$20,$9A,$0B,$46,$49,$20		; 0C32 IF ..FI
	      0B464920
1557:	0C3A  B60B454C		DEFB	$B6,$0B,$45,$4C,$53,$45,$20,$BD		; 0C3A 6.ELSE =
	      534520BD
1558:	0C42  0B584946		DEFB	$0B,$58,$49,$46,$20,$CC,$0B,$4F		; 0C42 .XIF L.O
	      20CC0B4F
1559:	0C4A  5220D60B		DEFB	$52,$20,$D6,$0B,$41,$4E,$44,$20		; 0C4A R V.AND
	      414E4420
1560:	0C52  F30B00  		DEFB	$F3,$0B,$00				; 0C52 s..
1561:	0C55  201E064E	X0C55:	DEFB	$20,$1E,$06,$4E,$4F,$54,$45,$20		; 0C55  ..NOTE
	      4F544520
1562:	0C5D  BF04434C		DEFB	$BF,$04,$43,$4C,$53,$20,$FC,$0B		; 0C5D ?.CLS |.
	      5320FC0B
1563:	0C65  00      		DEFB	$00					; 0C65 .
1564:			;
1565:	0C66  21B40D  	X0C66:	LD	HL,X0DB4	; 0C66  21 B4 0D	!4.
1566:	0C69  7E      	X0C69:	LD	A,(HL)		; 0C69  7E		~
1567:	0C6A  23      		INC	HL		; 0C6A  23		#
1568:	0C6B  56      		LD	D,(HL)		; 0C6B  56		V
1569:	0C6C  23      		INC	HL		; 0C6C  23		#
1570:	0C6D  3C      		INC	A		; 0C6D  3C		<
1571:	0C6E  C8      		RET	Z		; 0C6E  C8		H
1572:	0C6F  3D      		DEC	A		; 0C6F  3D		=
1573:	0C70  28F7    		JR	Z,X0C69		; 0C70  28 F7		(w
1574:	0C72  5F      		LD	E,A		; 0C72  5F		_
1575:	0C73  E5      		PUSH	HL		; 0C73  E5		e
1576:	0C74  E5      	X0C74:	PUSH	HL		; 0C74  E5		e
1577:	0C75  7E      		LD	A,(HL)		; 0C75  7E		~
1578:	0C76  23      		INC	HL		; 0C76  23		#
1579:	0C77  66      		LD	H,(HL)		; 0C77  66		f
1580:	0C78  3C      		INC	A		; 0C78  3C		<
1581:	0C79  2810    		JR	Z,X0C8B		; 0C79  28 10		(.
1582:	0C7B  3D      		DEC	A		; 0C7B  3D		=
1583:	0C7C  280D    		JR	Z,X0C8B		; 0C7C  28 0D		(.
1584:	0C7E  6F      		LD	L,A		; 0C7E  6F		o
1585:	0C7F  B7      		OR	A		; 0C7F  B7		7
1586:	0C80  ED52    		SBC	HL,DE		; 0C80  ED 52		mR
1587:	0C82  E1      		POP	HL		; 0C82  E1		a
1588:	0C83  2002    		JR	NZ,X0C87	; 0C83  20 02		 .
1589:	0C85  3600    		LD	(HL),$00	; 0C85  36 00		6.
1590:	0C87  23      	X0C87:	INC	HL		; 0C87  23		#
1591:	0C88  23      		INC	HL		; 0C88  23		#
1592:	0C89  18E9    		JR	X0C74		; 0C89  18 E9		.i
1593:			;
1594:	0C8B  E1      	X0C8B:	POP	HL		; 0C8B  E1		a
1595:	0C8C  E1      		POP	HL		; 0C8C  E1		a
1596:	0C8D  18DA    		JR	X0C69		; 0C8D  18 DA		.Z
1597:			;
1598:	0C8F  DD7E5A  	X0C8F:	LD	A,(IX+$5A)	; 0C8F  DD 7E 5A	]~Z
1599:	0C92  32E404  		LD	(X04E4),A	; 0C92  32 E4 04	2d.
1600:	0C95  DDCB3376		BIT	6,(IX+$33)	; 0C95  DD CB 33 76	]K3v
1601:	0C99  201D    		JR	NZ,X0CB8	; 0C99  20 1D		 .
1602:	0C9B  FD7E2E  		LD	A,(IY+$2E)	; 0C9B  FD 7E 2E	}~.
1603:	0C9E  DD7760  		LD	(IX+$60),A	; 0C9E  DD 77 60	]w`
1604:	0CA1  DD7730  		LD	(IX+$30),A	; 0CA1  DD 77 30	]w0
1605:	0CA4  32C806  		LD	(X06C8),A	; 0CA4  32 C8 06	2H.
1606:	0CA7  210400  		LD	HL,X0004	; 0CA7  21 04 00	!..
1607:	0CAA  ED6F    		RLD			; 0CAA  ED 6F		mo
1608:	0CAC  FD7E2F  		LD	A,(IY+$2F)	; 0CAC  FD 7E 2F	}~/
1609:	0CAF  DD772F  	X0CAF:	LD	(IX+$2F),A	; 0CAF  DD 77 2F	]w/
1610:	0CB2  32E404  		LD	(X04E4),A	; 0CB2  32 E4 04	2d.
1611:	0CB5  ED6F    		RLD			; 0CB5  ED 6F		mo
1612:	0CB7  C9      		RET			; 0CB7  C9		I
1613:			;
1614:	0CB8  DDCB33B6	X0CB8:	RES	6,(IX+$33)	; 0CB8  DD CB 33 B6	]K36
1615:	0CBC  DD7E60  		LD	A,(IX+$60)	; 0CBC  DD 7E 60	]~`
1616:	0CBF  DD7730  		LD	(IX+$30),A	; 0CBF  DD 77 30	]w0
1617:	0CC2  FD772E  		LD	(IY+$2E),A	; 0CC2  FD 77 2E	}w.
1618:	0CC5  32C806  		LD	(X06C8),A	; 0CC5  32 C8 06	2H.
1619:	0CC8  210400  		LD	HL,X0004	; 0CC8  21 04 00	!..
1620:	0CCB  ED6F    		RLD			; 0CCB  ED 6F		mo
1621:	0CCD  3AE404  		LD	A,(X04E4)	; 0CCD  3A E4 04	:d.
1622:	0CD0  FD772F  		LD	(IY+$2F),A	; 0CD0  FD 77 2F	}w/
1623:	0CD3  18DA    		JR	X0CAF		; 0CD3  18 DA		.Z
1624:			;
1625:	0CD5  E1      	X0CD5:	POP	HL		; 0CD5  E1		a
1626:	0CD6  317C0E  		LD	SP,X0E7C	; 0CD6  31 7C 0E	1|.
1627:	0CD9  E5      		PUSH	HL		; 0CD9  E5		e
1628:	0CDA  21BF04  		LD	HL,X04BF	; 0CDA  21 BF 04	!?.
1629:	0CDD  E3      		EX	(SP),HL		; 0CDD  E3		c
1630:	0CDE  E9      	X0CDE:	JP	(HL)		; 0CDE  E9		i
1631:			;
1632:	0CDF  2AA70E  	X0CDF:	LD	HL,(X0EA7)	; 0CDF  2A A7 0E	*'.
1633:	0CE2  3E00    		LD	A,$00		; 0CE2  3E 00		>.
1634:	0CE4  77      		LD	(HL),A		; 0CE4  77		w
1635:	0CE5  C9      		RET			; 0CE5  C9		I
1636:			;
1637:	0CE6  FDCB0346	X0CE6:	BIT	0,(IY+$03)	; 0CE6  FD CB 03 46	}K.F
1638:	0CEA  C8      		RET	Z		; 0CEA  C8		H
1639:	0CEB  2A9F0E  		LD	HL,(X0E9F)	; 0CEB  2A 9F 0E	*..
1640:	0CEE  2600    		LD	H,$00		; 0CEE  26 00		&.
1641:	0CF0  ED5B9C0E		LD	DE,(X0E9C)	; 0CF0  ED 5B 9C 0E	m[..
1642:	0CF4  19      		ADD	HL,DE		; 0CF4  19		.
1643:	0CF5  3A9E0E  		LD	A,(X0E9E)	; 0CF5  3A 9E 0E	:..
1644:	0CF8  47      		LD	B,A		; 0CF8  47		G
1645:	0CF9  05      		DEC	B		; 0CF9  05		.
1646:	0CFA  C5      	X0CFA:	PUSH	BC		; 0CFA  C5		E
1647:	0CFB  ED4B9F0E		LD	BC,(X0E9F)	; 0CFB  ED 4B 9F 0E	mK..
1648:	0CFF  0600    		LD	B,$00		; 0CFF  06 00		..
1649:	0D01  EDB0    		LDIR			; 0D01  ED B0		m0
1650:	0D03  C1      		POP	BC		; 0D03  C1		A
1651:	0D04  10F4    		DJNZ	X0CFA		; 0D04  10 F4		.t
1652:	0D06  EB      		EX	DE,HL		; 0D06  EB		k
1653:	0D07  70      		LD	(HL),B		; 0D07  70		p
1654:	0D08  C9      		RET			; 0D08  C9		I
1655:			;
1656:	0D09  85      	X0D09:	ADD	A,L		; 0D09  85		.
1657:	0D0A  6F      		LD	L,A		; 0D0A  6F		o
1658:	0D0B  D0      		RET	NC		; 0D0B  D0		P
1659:	0D0C  24      		INC	H		; 0D0C  24		$
1660:	0D0D  C9      		RET			; 0D0D  C9		I
1661:			;
1662:	0D0E  DD7E5A  	X0D0E:	LD	A,(IX+$5A)	; 0D0E  DD 7E 5A	]~Z
1663:	0D11  321C0D  		LD	(X0D1C),A	; 0D11  32 1C 0D	2..
1664:	0D14  3AE404  		LD	A,(X04E4)	; 0D14  3A E4 04	:d.
1665:	0D17  DD775A  	X0D17:	LD	(IX+$5A),A	; 0D17  DD 77 5A	]wZ
1666:	0D1A  C9      		RET			; 0D1A  C9		I
1667:			;
1668:	0D1B  3E00    	X0D1B:	LD	A,$00		; 0D1B  3E 00		>.
1669:	0D1D  18F8    		JR	X0D17		; 0D1D  18 F8		.x
1670:			;
1671:	0D1F  E5      	X0D1F:	PUSH	HL		; 0D1F  E5		e
1672:	0D20  C5      		PUSH	BC		; 0D20  C5		E
1673:	0D21  CD670D  		CALL	X0D67		; 0D21  CD 67 0D	Mg.
1674:	0D24  23      		INC	HL		; 0D24  23		#
1675:	0D25  46      		LD	B,(HL)		; 0D25  46		F
1676:	0D26  62      		LD	H,D		; 0D26  62		b
1677:	0D27  6B      		LD	L,E		; 0D27  6B		k
1678:	0D28  CD420D  		CALL	X0D42		; 0D28  CD 42 0D	MB.
1679:	0D2B  78      		LD	A,B		; 0D2B  78		x
1680:	0D2C  B7      		OR	A		; 0D2C  B7		7
1681:	0D2D  282E    		JR	Z,X0D5D		; 0D2D  28 2E		(.
1682:	0D2F  C1      		POP	BC		; 0D2F  C1		A
1683:	0D30  C5      		PUSH	BC		; 0D30  C5		E
1684:	0D31  B8      		CP	B		; 0D31  B8		8
1685:	0D32  3829    		JR	C,X0D5D		; 0D32  38 29		8)
1686:	0D34  48      		LD	C,B		; 0D34  48		H
1687:	0D35  0600    		LD	B,$00		; 0D35  06 00		..
1688:	0D37  E5      		PUSH	HL		; 0D37  E5		e
1689:	0D38  09      		ADD	HL,BC		; 0D38  09		.
1690:	0D39  D1      		POP	DE		; 0D39  D1		Q
1691:	0D3A  EB      		EX	DE,HL		; 0D3A  EB		k
1692:	0D3B  EDB0    		LDIR			; 0D3B  ED B0		m0
1693:	0D3D  CD670D  		CALL	X0D67		; 0D3D  CD 67 0D	Mg.
1694:	0D40  C1      		POP	BC		; 0D40  C1		A
1695:	0D41  E1      		POP	HL		; 0D41  E1		a
1696:	0D42  AF      	X0D42:	XOR	A		; 0D42  AF		/
1697:	0D43  47      		LD	B,A		; 0D43  47		G
1698:	0D44  1B      		DEC	DE		; 0D44  1B		.
1699:	0D45  2B      	X0D45:	DEC	HL		; 0D45  2B		+
1700:	0D46  0E00    		LD	C,$00		; 0D46  0E 00		..
1701:	0D48  32580D  		LD	(X0D58),A	; 0D48  32 58 0D	2X.
1702:	0D4B  23      	X0D4B:	INC	HL		; 0D4B  23		#
1703:	0D4C  13      		INC	DE		; 0D4C  13		.
1704:	0D4D  7E      		LD	A,(HL)		; 0D4D  7E		~
1705:	0D4E  CDD309  		CALL	X09D3		; 0D4E  CD D3 09	MS.
1706:	0D51  12      		LD	(DE),A		; 0D51  12		.
1707:	0D52  0C      		INC	C		; 0D52  0C		.
1708:	0D53  05      		DEC	B		; 0D53  05		.
1709:	0D54  C8      		RET	Z		; 0D54  C8		H
1710:	0D55  B7      		OR	A		; 0D55  B7		7
1711:	0D56  C8      		RET	Z		; 0D56  C8		H
1712:	0D57  3E00    		LD	A,$00		; 0D57  3E 00		>.
1713:	0D59  BE      		CP	(HL)		; 0D59  BE		>
1714:	0D5A  20EF    		JR	NZ,X0D4B	; 0D5A  20 EF		 o
1715:	0D5C  C9      		RET			; 0D5C  C9		I
1716:			;
1717:	0D5D  118109  	X0D5D:	LD	DE,X0981	; 0D5D  11 81 09	...
1718:	0D60  C30D09  		JP	X090D		; 0D60  C3 0D 09	C..
1719:			;
1720:	0D63  3E3B    	X0D63:	LD	A,$3B		; 0D63  3E 3B		>;
1721:	0D65  18DE    		JR	X0D45		; 0D65  18 DE		.^
1722:			;
1723:	0D67  2A960E  	X0D67:	LD	HL,(X0E96)	; 0D67  2A 96 0E	*..
1724:	0D6A  5E      		LD	E,(HL)		; 0D6A  5E		^
1725:	0D6B  23      		INC	HL		; 0D6B  23		#
1726:	0D6C  56      		LD	D,(HL)		; 0D6C  56		V
1727:	0D6D  C9      		RET			; 0D6D  C9		I
1728:			;
1729:	0D6E  494620  	X0D6E:	DEFB	$49,$46,$20				; 0D6E IF
1730:	0D71  3A      	X0D71:	DEFB	$3A					; 0D71 :
1731:	0D72  00      	X0D72:	DEFB	$00					; 0D72 .
1732:	0D73  5A494E53	X0D73:	DEFB	'ZINSTAL ZPM'				; 0D73
	      54414C20
	      5A504D
1733:	0D7E  00      	X0D7E:	DEFB	$00					; 0D7E .
1734:	0D7F  41      	X0D7F:	DEFB	$41					; 0D7F A
1735:	0D80  3A0400  	ZIDRV:	LD	A,(CDISK)
1736:	0D83  3C      		INC	A
1737:	0D84  32720D  		LD	(X0D72),A
1738:	0D87  C3E303  		JP	X03E3
1739:			;
1740:			;	Miscellaneous equates
1741:			;
1742:			;  These are addresses referenced in the code but
1743:			;  which are in the middle of a multibyte instruction
1744:			;  or are addresses outside the initialized space
1745:			;
1746:	0000          	X0000	EQU	$00
1747:	0001          	X0001	EQU	$01
1748:	0003          	X0003	EQU	$03
1749:	0004          	X0004	EQU	$04
1750:	0005          	X0005	EQU	$05
1751:	0006          	X0006	EQU	$06
1752:	0007          	X0007	EQU	$07
1753:	0009          	X0009	EQU	$09
1754:	000B          	X000B	EQU	$0B
1755:	000C          	X000C	EQU	$0C
1756:	000D          	X000D	EQU	$0D
1757:	000E          	X000E	EQU	$0E
1758:	0010          	X0010	EQU	$10
1759:	0011          	X0011	EQU	$11
1760:	0016          	X0016	EQU	$16
1761:	0019          	X0019	EQU	$19
1762:	001F          	X001F	EQU	$1F
1763:	0020          	X0020	EQU	$20
1764:	0021          	X0021	EQU	$21
1765:	0023          	X0023	EQU	$23
1766:	002E          	X002E	EQU	$2E
1767:	0050          	X0050	EQU	$50
1768:	0051          	X0051	EQU	$51
1769:	007C          	X007C	EQU	$7C
1770:	0080          	X0080	EQU	$80
1771:	0081          	X0081	EQU	$81
1772:	0083          	X0083	EQU	$83
1773:	008E          	X008E	EQU	$8E
1774:	0097          	X0097	EQU	$97
1775:	00FE          	X00FE	EQU	$FE
1776:	00FF          	X00FF	EQU	$FF
1777:	0101          	X0101	EQU	$0101
1778:	0104          	X0104	EQU	$0104
1779:	010A          	X010A	EQU	$010A
1780:	016D          	X016D	EQU	$016D
1781:	01B5          	X01B5	EQU	$01B5
1782:	01BF          	X01BF	EQU	$01BF
1783:	01C5          	X01C5	EQU	$01C5
1784:	01CC          	X01CC	EQU	$01CC
1785:	02E9          	X02E9	EQU	$02E9
1786:	0320          	X0320	EQU	$0320
1787:	0348          	X0348	EQU	$0348
1788:	0440          	X0440	EQU	$0440
1789:	04E4          	X04E4	EQU	$04E4
1790:	052B          	X052B	EQU	$052B
1791:	05A6          	X05A6	EQU	$05A6
1792:	05B5          	X05B5	EQU	$05B5
1793:	066E          	X066E	EQU	$066E
1794:	06C8          	X06C8	EQU	$06C8
1795:	06D1          	X06D1	EQU	$06D1
1796:	0768          	X0768	EQU	$0768
1797:	0B41          	X0B41	EQU	$0B41
1798:	0CE3          	X0CE3	EQU	$0CE3
1799:	0D1C          	X0D1C	EQU	$0D1C
1800:	0D58          	X0D58	EQU	$0D58
1801:	0D81          	X0D81	EQU	$0D81
1802:	0D83          	X0D83	EQU	$0D83
1803:	0D85          	X0D85	EQU	$0D85
1804:	0D8F          	X0D8F	EQU	$0D8F
1805:	0D90          	X0D90	EQU	$0D90
1806:	0D91          	X0D91	EQU	$0D91
1807:	0D98          	X0D98	EQU	$0D98
1808:	0D99          	X0D99	EQU	$0D99
1809:	0D9D          	X0D9D	EQU	$0D9D
1810:	0D9F          	X0D9F	EQU	$0D9F
1811:	0DB0          	X0DB0	EQU	$0DB0
1812:	0DB1          	X0DB1	EQU	$0DB1
1813:	0DB4          	X0DB4	EQU	$0DB4
1814:	0E7C          	X0E7C	EQU	$0E7C
1815:	0E7E          	X0E7E	EQU	$0E7E
1816:	0E81          	X0E81	EQU	$0E81
1817:	0E87          	X0E87	EQU	$0E87
1818:	0E93          	X0E93	EQU	$0E93
1819:	0E96          	X0E96	EQU	$0E96
1820:	0E99          	X0E99	EQU	$0E99
1821:	0E9C          	X0E9C	EQU	$0E9C
1822:	0E9E          	X0E9E	EQU	$0E9E
1823:	0E9F          	X0E9F	EQU	$0E9F
1824:	0EA0          	X0EA0	EQU	$0EA0
1825:	0EA2          	X0EA2	EQU	$0EA2
1826:	0EA4          	X0EA4	EQU	$0EA4
1827:	0EA7          	X0EA7	EQU	$0EA7
1828:	0EAC          	X0EAC	EQU	$0EAC
1829:	0EBD          	X0EBD	EQU	$0EBD
1830:	0F7E          	X0F7E	EQU	$0F7E
1831:	0F7F          	X0F7F	EQU	$0F7F
1832:	1420          	X1420	EQU	$1420
1833:	A02F          	XA02F	EQU	$A02F
1834:	DD04          	XDD04	EQU	$DD04
1835:	FF0F          	XFF0F	EQU	$FF0F
1836:	FFF6          	XFFF6	EQU	$FFF6
1837:	FFFF          	XFFFF	EQU	$FFFF
1838:			;
1839:	0D8A          		END



Statistics:

     6	passes
     0	jr promotions
   613	symbols
     0	bytes



Symbol Table:

altprnprt      =   3+    ppdini         =   0+    x0548            548     
appbuf         =  2d+    ppdokg         =   2+    x055c            55c     
banked         =ffff+    ppdrdy         =   4+    x0568            568     
bbappp         =   e+    ppdstp         =   6+    x0580            580     
bbbase         =f000+    ppstrob        =   0+    x0598            598     
bbcalret       =fd5a+    ppuack         =   7+    x05a6          = 5a6+    
bbcbank        =   c+    ppuini         =   1+    x05b4            5b4     
bbcomn         =fc00+    ppuokg         =   3+    x05b5          = 5b5+    
bbconin        =fd94+    ppurdy         =   5+    x05bc            5bc     
bbconout       =fd9f+    prntbusybit    =   0+    x05e0            5e0     
bbconst        =fdaa+    prvtop         =  4f+    x05ea            5ea     
bbcpboot       =fcc3+    r0brdl         =   0+    x05ec            5ec     
bbcrtcini      =fc03+    r0rxtx         =   0+    x05ef            5ef     
bbcrtfill      =fc09+    r1brdm         =   1+    x063f            63f     
bbcstck        =   d+    r1ier          =   1+    x0644            644     
bbcurset       =fc21+    r2fcr          =   2+    x0657            657     
bbdebug        =   0+    r2iir          =   2+    x066e          = 66e+    
bbdiv16        =fcdb+    r3lcr          =   3+    x0676            676     
bbdmaset       =fcb7+    r4mcr          =   4+    x067c            67c     
bbdprmset      =fd17+    r5lsr          =   5+    x06a1            6a1     
bbdriveid      =fcf3+    r6msr          =   6+    x06ac            6ac     
bbdsksel       =fcbd+    r7spr          =   7+    x06b8            6b8     
bbeidck        =fd23+    ram0buf        =  3b+    x06c3            6c3     
bbepmngr       =fd1d+    ram1buf        =  3c+    x06c8          = 6c8+    
bbexec         =fd29+    ram2buf        =  3d+    x06d1          = 6d1+    
bbfdrvsel      =fcd5+    ram3buf        =  3e+    x06d5            6d5     
bbfhome        =fc81+    ramtbl         =e000+    x06dd            6dd     
bbflopio       =fc93+    readcfg8255    =  92+    x06f6            6f6     
bbfread        =fc87+    regastatus     =  16+    x06fb            6fb     
bbfwrite       =fc8d+    regcommand     =   f+    x06fd            6fd     
bbhdboot       =fd0b+    regcontrol     =  16+    x0707            707     
bbhdgeo        =fd05+    regcyllsb      =   c+    x071c            71c     
bbhdinit       =fced+    regcylmsb      =   d+    x0728            728     
bbhdrd         =fcff+    regdata        =   8+    x073f            73f     
bbhdwr         =fcf9+    regerr         =   9+    x0742            742     
bbimgp         =  c0+    regseccnt      =   a+    x0768          = 768+    
bbinictc       =fc57+    regsector      =   b+    x078a            78a     
bbjtobnk       =fc00+    regshd         =   e+    x07b9            7b9     
bbldpart       =fd11+    regstatus      =   f+    x07cf            7cf     
bbmul16        =fce1+    rldrom         =fe79+    x07e0            7e0     
bboffcal       =fce7+    rst7sp1        =  38+    x0800            800     
bbpag          =   f+    rst7sp2        =  39+    x081e            81e     
bbprcvblk      =fc6f+    rst7sp3        =  3a+    x0820            820     
bbprnchr       =fc99+    rtbsiz         = 3c0+    x0827            827     
bbpsndblk      =fc63+    sconin         =fc2d+    x082b            82b     
bbrdtime       =fca5+    sconout        =fc27+    x082c            82c     
bbrdvdsk       =fc75+    sconst         =fc33+    x0830            830     
bbresctc       =fc5d+    sintvec        =fff0+    x0834            834     
bbsecset       =fcb1+    sysbase        =f000+    x0836            836     
bbsidset       =fccf+    syscmlo        =feb4+    x0844            844     
bbstack        =feb4+    syscom         =fc00+    x0849            849     
bbstbase       =fe90+    syshertz       =  13+    x084e            84e     
bbsttim        =fc9f+    sytimr         =fe19+    x0850            850     
bbtrkset       =fcab+    tblblk         =  30+    x085c            85c     
bbu0ini        =fc39+    tdesclen       =  14+    x0860            860     
bbu1ini        =fc51+    tiaddrlen      =   4+    x0863            863     
bbu1rx         =fc45+    timrcon        =  27+    x0869            869     
bbu1st         =fc4b+    tmpbyte        =  4b+    x0870            870     
bbu1tx         =fc3f+    tnamelen       =   8+    x0874            874     
bbuplchr       =fc69+    tpa            = 100+    x0877            877     
bbvcpmbt       =fcc9+    tpagelen       =   2+    x0879            879     
bbvoid         =fd6a+    trnpag         =   d+    x087c            87c     
bbwrvdsk       =fc7b+    true           =ffff+    x0885            885     
bldoffs        =3000+    tsizelen       =   4+    x0889            889     
blifastblok    =  60+    u0defspeed     =   6+    x088d            88d     
blifastline    =  6a+    u0isr          =fe25+    x0891            891     
blislowblok    =  40+    u1defspeed     =   c+    x089a            89a     
blislowline    =  4a+    u1isr          =fe59+    x08af            8af     
btpasiz        =   6+    u1nul          =fe70+    x08d8            8d8     
cdisk          =   4+    uart0          =  c0+    x08df            8df     
clkio          =   6+    uart0base      =  c0+    x08ed            8ed     
clkrst         =   7+    uart0br        =  2b+    x08fd            8fd     
clksclk        =   5+    uart1          =  c8+    x090d            90d     
cmdid          =  ec+    uart115k2      =   1+    x0910            910     
cmdinit        =  91+    uart1200       =  60+    x0919            919     
cmdread        =  20+    uart19k2       =   6+    x0928            928     
cmdrecal       =  10+    uart1base      =  c8+    x093e            93e     
cmdspindown    =  e0+    uart1br        =  2a+    x0942            942     
cmdspinup      =  e1+    uart2400       =  30+    x0951            951     
cmdwrite       =  30+    uart38k4       =   3+    x095d            95d     
cnfbyte        =  26+    uart4800       =  18+    x096c            96c     
colbuf         =  4f+    uart57k6       =   2+    x097e            97e     
copsys         =  2c+    uart9600       =   c+    x0981            981     
cr             =   d+    uastav         =fe84+    x0986            986     
crdureg        =fc27+    uastkb         =fe86+    x09ae            9ae     
crt6545adst    =  8c+    uisre          =fe4e+    x09cb            9cb     
crt6545data    =  8d+    uisri          =fe32+    x09d0            9d0     
crtbase        =  80+    vconin         =fc15+    x09d3            9d3     
crtbeepport    =  8f+    vconout        =fc0f+    x09de            9de     
crtblinkbit    =   0+    vconst         =fc1b+    x09e1            9e1     
crthilitbit    =   3+    vdbufsz        =   a+    x09ec            9ec     
crtkeybcnt     =  87+    vdrdsec        =   0+    x0a17            a17     
crtkeybdat     =  85+    vdskbuf        =  2f+    x0a42            a42     
crtmodebit     =   4+    vdwrsec        =   1+    x0a4b            a4b     
crtprntcnt     =  83+    voidisr        =fe22+    x0a57            a57     
crtprntdat     =  81+    writecfg8255   =  80+    x0a72            a72     
crtram0cnt     =  82+    x0000          =   0+    x0a99            a99     
crtram0dat     =  80+    x0001          =   1+    x0ac9            ac9     
crtram1cnt     =  86+    x0003          =   3+    x0ad0            ad0     
crtram1dat     =  84+    x0004          =   4+    x0ae8            ae8     
crtram2cnt     =  8a+    x0005          =   5+    x0af1            af1     
crtram2dat     =  88+    x0006          =   6+    x0b0a            b0a     
crtram3port    =  8e+    x0007          =   7+    x0b10            b10     
crtrevrsbit    =   1+    x0009          =   9+    x0b13            b13     
crtservcnt     =  8b+    x000b          =   b+    x0b1d            b1d     
crtservdat     =  89+    x000c          =   c+    x0b34            b34     
crtunderbit    =   2+    x000d          =   d+    x0b40            b40     
crtwidthbit    =   1+    x000e          =   e+    x0b41          = b41+    
ctc0tc         =  29+    x0010          =  10+    x0b44            b44     
ctc0tchi       =  20+    x0011          =  11+    x0b49            b49     
ctc1tc         =  28+    x0016          =  16+    x0b4d            b4d     
ctc1tc100hz    =   5+    x0019          =  19+    x0b54            b54     
ctc1tc10hz     =  30+    x001f          =  1f+    x0b56            b56     
ctc1tc25hz     =  13+    x0020          =  20+    x0b60            b60     
ctc1tc2hz      =  f4+    x0021          =  21+    x0b63            b63     
ctc1tc50hz     =   a+    x0023          =  23+    x0b65            b65     
ctcbase        =  e8+    x002e          =  2e+    x0b6f            b6f     
ctcchan0       =  e8+    x0050          =  50+    x0b7e            b7e     
ctcchan1       =  e9+    x0051          =  51+    x0b80            b80     
ctcchan2       =  ea+    x007c          =  7c+    x0b8f            b8f     
ctcchan3       =  eb+    x0080          =  80+    x0bba            bba     
curpbuf        =  48+    x0081          =  81+    x0bdd            bdd     
cursoroff      =  20+    x0083          =  83+    x0c01            c01     
cursoron       =   a+    x008e          =  8e+    x0c04            c04     
cursshp        =  4a+    x0097          =  97+    x0c11            c11     
delay          =fd85+    x00fe          =  fe+    x0c12            c12     
dly1           =fd89+    x00ff          =  ff+    x0c1a            c1a     
dly2           =fd87+    x0100            100     x0c1d            c1d     
dselbf         =  4e+    x0101          = 101+    x0c22            c22     
eep29c         =   4+    x0103            103     x0c32            c32     
eep29ee        =   1+    x0104          = 104+    x0c55            c55     
eep29xe        =   2+    x0109            109     x0c66            c66     
eepage0        =  c0+    x010a          = 10a+    x0c69            c69     
eeproglock     =  10+    x010d            10d     x0c74            c74     
eepsta         =f000+    x011b            11b     x0c87            c87     
eepunsupp      =   8+    x011d            11d     x0c8b            c8b     
eerineprom     =  80+    x0120            120     x0c8f            c8f     
esc            =  1b+    x0123            123     x0caf            caf     
false          =   0+    x0126            126     x0cb8            cb8     
fdcbase        =  d0+    x012c            12c     x0cd5            cd5     
fdccmdstatr    =  d0+    x0139            139     x0cde            cde     
fdcdatareg     =  d7+    x016d          = 16d+    x0cdf            cdf     
fdcdrvrcnt     =  d6+    x018d            18d     x0ce3          = ce3+    
fdcreadc       =  88+    x01a0            1a0     x0ce6            ce6     
fdcrestc       =   7+    x01ac            1ac     x0cfa            cfa     
fdcsectreg     =  d2+    x01af            1af     x0d09            d09     
fdcseekc       =  17+    x01b4            1b4     x0d0e            d0e     
fdctrakreg     =  d1+    x01b5          = 1b5+    x0d17            d17     
fdcwritc       =  a8+    x01bf          = 1bf+    x0d1b            d1b     
fdrvbuf        =  45+    x01c5          = 1c5+    x0d1c          = d1c+    
ff             =   c+    x01c7            1c7     x0d1f            d1f     
fifblok        =   b+    x01cc          = 1cc+    x0d42            d42     
fifoend        =  25+    x01cf            1cf     x0d45            d45     
fifokb         =  1a+    x01e2            1e2     x0d4b            d4b     
fifosto        =   f+    x01e3            1e3     x0d58          = d58+    
fifou0         =   f+    x01fd            1fd     x0d5d            d5d     
fifsize        =   8+    x020c            20c     x0d63            d63     
fin            =fdc4+    x0220            220     x0d67            d67     
fixblock       =   0+    x0227            227     x0d6e            d6e     
fout           =fde1+    x022c            22c     x0d71            d71     
frdpbuf        =  41+    x022e            22e     x0d72            d72     
fsecbuf        =  43+    x0238            238     x0d73            d73     
fsekbuf        =  3f+    x023c            23c     x0d7e            d7e     
fstat          =fdb5+    x026b            26b     x0d7f            d7f     
ftrkbuf        =  46+    x028a            28a     x0d81          = d81+    
hmempag        =   b+    x0290            290     x0d83          = d83+    
idea0line      =   1+    x02a7            2a7     x0d85          = d85+    
idea1line      =   2+    x02b2            2b2     x0d8f          = d8f+    
idea2line      =   4+    x02bd            2bd     x0d90          = d90+    
idecs0line     =   8+    x02d3            2d3     x0d91          = d91+    
idecs1line     =  10+    x02e9          = 2e9+    x0d98          = d98+    
ideporta       =  e0+    x02fb            2fb     x0d99          = d99+    
ideportb       =  e1+    x030d            30d     x0d9d          = d9d+    
ideportc       =  e2+    x0316            316     x0d9f          = d9f+    
ideportctrl    =  e3+    x031d            31d     x0db0          = db0+    
iderdline      =  40+    x0320          = 320+    x0db1          = db1+    
iderstline     =  80+    x0325            325     x0db4          = db4+    
idewrline      =  20+    x0328            328     x0e7c          = e7c+    
imtpag         =  ff+    x0333            333     x0e7e          = e7e+    
imtsiz         = 400+    x033c            33c     x0e81          = e81+    
intrdi         =fe0f+    x0348          = 348+    x0e87          = e87+    
intren         =fdfe+    x0351            351     x0e93          = e93+    
iobyte         =   3+    x0363            363     x0e96          = e96+    
kbdbyte        =  4d+    x0375            375     x0e99          = e99+    
keybstrbbit    =   7+    x0384            384     x0e9c          = e9c+    
lf             =   a+    x03b2            3b2     x0e9e          = e9e+    
maxblk         =  14+    x03d9            3d9     x0e9f          = e9f+    
menaprt        =  21+    x03e1            3e1     x0ea0          = ea0+    
miobyte        =  4c+    x03e3            3e3     x0ea2          = ea2+    
mmgetp         =fd78+    x043e            43e     x0ea4          = ea4+    
mmpmap         =fd6b+    x0440          = 440+    x0ea7          = ea7+    
mmtpapag       =  ef+    x0441            441     x0eac          = eac+    
mmuport        =  20+    x0452            452     x0ebd          = ebd+    
mmutstaddr     =d000+    x047e            47e     x0f7e          = f7e+    
mmutstpage     =   d+    x04a3            4a3     x0f7f          = f7f+    
monmaj         =  33+    x04bf            4bf     x1420          =1420+    
monmin         =  32+    x04d0            4d0     xa02f          =a02f+    
mscnt          =  f6+    x04d6            4d6     xdd04          =dd04+    
mzmac          =   1+    x04e4          = 4e4+    xff0f          =ff0f+    
pio2bit2       =   2+    x04e6            4e6     xfff6          =fff6+    
pio2bit3       =   3+    x04ed            4ed     xffff          =ffff+    
pio2bit4       =   4+    x04f8            4f8     zidrv            d80     
ppakstb        =   1+    x0513            513     zpm3           =ffff+    
ppcntrp        =   2+    x052b          = 52b+    
ppdatap        =   3+    x0545            545     
