

Microchip Technology PIC LITE Macro Assembler V1.31 build 56723 
                                                                                               Sat May 24 17:44:07 2014

Microchip Technology Omniscient Code Generator (Lite mode) build 56723
     1                           	processor	16F628
     2                           	opt	pw 120
     3                           	opt	lm
     4                           	psect	stringtext,global,reloc=256,class=STRCODE,delta=2
     5                           	psect	nvCOMMON,global,class=COMMON,space=1,delta=1
     6                           	psect	cinit,global,class=CODE,merge=1,delta=2
     7                           	psect	bitbssCOMMON,global,bit,class=COMMON,space=1,delta=1
     8                           	psect	bssEEDATA,global,class=EEDATA,space=3,delta=2
     9                           	psect	bssCOMMON,global,class=COMMON,space=1,delta=1
    10                           	psect	cstackCOMMON,global,class=COMMON,space=1,delta=1
    11                           	psect	cstackBANK0,global,class=BANK0,space=1,delta=1
    12                           	psect	maintext,global,class=CODE,split=1,delta=2
    13                           	psect	text1,local,class=CODE,merge=1,delta=2
    14                           	psect	text2,local,class=CODE,merge=1,delta=2
    15                           	psect	text3,local,class=CODE,merge=1,delta=2
    16                           	psect	text4,local,class=CODE,merge=1,delta=2
    17                           	psect	text5,local,class=CODE,merge=1,delta=2
    18                           	psect	text6,local,class=CODE,merge=1,delta=2
    19                           	psect	text7,local,class=CODE,merge=1,delta=2
    20                           	psect	text8,local,class=CODE,merge=1,delta=2
    21                           	psect	text9,local,class=CODE,merge=1,delta=2
    22                           	dabs	1,0x7E,2
    23  0000                     	;# 
    24  0001                     	;# 
    25  0002                     	;# 
    26  0003                     	;# 
    27  0004                     	;# 
    28  0005                     	;# 
    29  0006                     	;# 
    30  000A                     	;# 
    31  000B                     	;# 
    32  000C                     	;# 
    33  000E                     	;# 
    34  000E                     	;# 
    35  000F                     	;# 
    36  0010                     	;# 
    37  0011                     	;# 
    38  0012                     	;# 
    39  0015                     	;# 
    40  0015                     	;# 
    41  0016                     	;# 
    42  0017                     	;# 
    43  0018                     	;# 
    44  0019                     	;# 
    45  001A                     	;# 
    46  001F                     	;# 
    47  0081                     	;# 
    48  0085                     	;# 
    49  0086                     	;# 
    50  008C                     	;# 
    51  008E                     	;# 
    52  0092                     	;# 
    53  0098                     	;# 
    54  0099                     	;# 
    55  009A                     	;# 
    56  009B                     	;# 
    57  009C                     	;# 
    58  009D                     	;# 
    59  009F                     	;# 
    60                           
    61                           	psect	stringtext
    62  0500                     __pstringtext:	
    63  0500                     stringtab:	
    64  0500                     __stringtab:	
    65                           
    66                           ;	String table - string pointers are 2 bytes each
    67  0500  1BFF               	btfsc	btemp+1,7
    68  0501  2D0A               	ljmp	stringcode
    69  0502  1383               	bcf	3,7
    70  0503  187F               	btfsc	btemp+1,0
    71  0504  1783               	bsf	3,7
    72  0505  0800               	movf	0,w
    73  0506  0A84               	incf	4,f
    74  0507  1903               	skipnz
    75  0508  0AFF               	incf	btemp+1,f
    76  0509  0008               	return
    77  050A                     stringcode:	
    78  050A  087F               	movf	btemp+1,w
    79  050B  397F               	andlw	127
    80  050C  008A               	movwf	10
    81  050D  0804               	movf	4,w
    82  050E  0A84               	incf	4,f
    83  050F  1903               	skipnz
    84  0510  0AFF               	incf	btemp+1,f
    85  0511  0082               	movwf	2
    86  0512                     __stringbase:	
    87  0512                     __end_of__stringtab:	
    88  0512                     _ctrlAscii:	
    89  0512  340A               	retlw	10
    90  0513  341C               	retlw	28
    91  0514  3400               	retlw	0
    92  0515  3400               	retlw	0
    93  0516  3400               	retlw	0
    94  0517  3400               	retlw	0
    95  0518  3400               	retlw	0
    96  0519  3400               	retlw	0
    97  051A  3411               	retlw	17
    98  051B  3400               	retlw	0
    99  051C  3400               	retlw	0
   100  051D  3400               	retlw	0
   101  051E  3400               	retlw	0
   102  051F  341A               	retlw	26
   103  0520  3413               	retlw	19
   104  0521  3401               	retlw	1
   105  0522  3417               	retlw	23
   106  0523  3400               	retlw	0
   107  0524  3400               	retlw	0
   108  0525  3400               	retlw	0
   109  0526  3403               	retlw	3
   110  0527  3418               	retlw	24
   111  0528  3404               	retlw	4
   112  0529  3405               	retlw	5
   113  052A  3400               	retlw	0
   114  052B  3400               	retlw	0
   115  052C  3400               	retlw	0
   116  052D  3400               	retlw	0
   117  052E  3420               	retlw	32
   118  052F  3416               	retlw	22
   119  0530  3406               	retlw	6
   120  0531  3414               	retlw	20
   121  0532  3412               	retlw	18
   122  0533  3400               	retlw	0
   123  0534  3400               	retlw	0
   124  0535  3400               	retlw	0
   125  0536  340E               	retlw	14
   126  0537  3402               	retlw	2
   127  0538  3408               	retlw	8
   128  0539  3407               	retlw	7
   129  053A  3419               	retlw	25
   130  053B  3400               	retlw	0
   131  053C  3400               	retlw	0
   132  053D  3400               	retlw	0
   133  053E  3400               	retlw	0
   134  053F  340D               	retlw	13
   135  0540  340A               	retlw	10
   136  0541  3415               	retlw	21
   137  0542  3400               	retlw	0
   138  0543  3400               	retlw	0
   139  0544  3400               	retlw	0
   140  0545  3400               	retlw	0
   141  0546  3400               	retlw	0
   142  0547  340B               	retlw	11
   143  0548  3409               	retlw	9
   144  0549  340F               	retlw	15
   145  054A  3400               	retlw	0
   146  054B  3400               	retlw	0
   147  054C  3400               	retlw	0
   148  054D  3400               	retlw	0
   149  054E  3400               	retlw	0
   150  054F  3400               	retlw	0
   151  0550  340C               	retlw	12
   152  0551  3400               	retlw	0
   153  0552  3410               	retlw	16
   154  0553  3400               	retlw	0
   155  0554  3400               	retlw	0
   156  0555  3400               	retlw	0
   157  0556  3400               	retlw	0
   158  0557  3400               	retlw	0
   159  0558  3400               	retlw	0
   160  0559  341B               	retlw	27
   161  055A  341E               	retlw	30
   162  055B  3400               	retlw	0
   163  055C  3400               	retlw	0
   164  055D  3400               	retlw	0
   165  055E  3400               	retlw	0
   166  055F  340D               	retlw	13
   167  0560  341D               	retlw	29
   168  0561  3400               	retlw	0
   169  0562  3400               	retlw	0
   170  0563  3400               	retlw	0
   171  0564  3400               	retlw	0
   172  0565  3400               	retlw	0
   173  0566  3400               	retlw	0
   174  0567  3400               	retlw	0
   175  0568  3400               	retlw	0
   176  0569  3400               	retlw	0
   177  056A  3400               	retlw	0
   178  056B  3408               	retlw	8
   179  056C  3400               	retlw	0
   180  056D  3400               	retlw	0
   181  056E  3400               	retlw	0
   182  056F  3400               	retlw	0
   183  0570  3400               	retlw	0
   184  0571  3400               	retlw	0
   185  0572  3400               	retlw	0
   186  0573  3400               	retlw	0
   187  0574  3400               	retlw	0
   188  0575  3400               	retlw	0
   189  0576  3400               	retlw	0
   190  0577  3400               	retlw	0
   191  0578  3400               	retlw	0
   192  0579  3400               	retlw	0
   193  057A  3400               	retlw	0
   194  057B  341B               	retlw	27
   195  057C  3400               	retlw	0
   196  057D  3400               	retlw	0
   197  057E  3400               	retlw	0
   198  057F  3400               	retlw	0
   199  0580  3400               	retlw	0
   200  0581  3400               	retlw	0
   201  0582  3400               	retlw	0
   202  0583  340A               	retlw	10
   203  0584  341E               	retlw	30
   204  0585  3400               	retlw	0
   205  0586  3400               	retlw	0
   206  0587  3400               	retlw	0
   207  0588  3400               	retlw	0
   208  0589  3400               	retlw	0
   209  058A  3400               	retlw	0
   210  058B  3411               	retlw	17
   211  058C  3400               	retlw	0
   212  058D  3400               	retlw	0
   213  058E  3400               	retlw	0
   214  058F  3400               	retlw	0
   215  0590  341A               	retlw	26
   216  0591  3413               	retlw	19
   217  0592  3401               	retlw	1
   218  0593  3417               	retlw	23
   219  0594  3400               	retlw	0
   220  0595  3400               	retlw	0
   221  0596  3400               	retlw	0
   222  0597  3403               	retlw	3
   223  0598  3418               	retlw	24
   224  0599  3404               	retlw	4
   225  059A  3405               	retlw	5
   226  059B  3400               	retlw	0
   227  059C  3400               	retlw	0
   228  059D  3400               	retlw	0
   229  059E  3400               	retlw	0
   230  059F  3420               	retlw	32
   231  05A0  3416               	retlw	22
   232  05A1  3406               	retlw	6
   233  05A2  3414               	retlw	20
   234  05A3  3412               	retlw	18
   235  05A4  3400               	retlw	0
   236  05A5  3400               	retlw	0
   237  05A6  3400               	retlw	0
   238  05A7  340E               	retlw	14
   239  05A8  3402               	retlw	2
   240  05A9  3408               	retlw	8
   241  05AA  3407               	retlw	7
   242  05AB  3419               	retlw	25
   243  05AC  3400               	retlw	0
   244  05AD  3400               	retlw	0
   245  05AE  3400               	retlw	0
   246  05AF  3400               	retlw	0
   247  05B0  340D               	retlw	13
   248  05B1  340A               	retlw	10
   249  05B2  3415               	retlw	21
   250  05B3  3400               	retlw	0
   251  05B4  3400               	retlw	0
   252  05B5  3400               	retlw	0
   253  05B6  3400               	retlw	0
   254  05B7  3400               	retlw	0
   255  05B8  340B               	retlw	11
   256  05B9  3409               	retlw	9
   257  05BA  340F               	retlw	15
   258  05BB  3400               	retlw	0
   259  05BC  3400               	retlw	0
   260  05BD  3400               	retlw	0
   261  05BE  3400               	retlw	0
   262  05BF  3400               	retlw	0
   263  05C0  3400               	retlw	0
   264  05C1  340C               	retlw	12
   265  05C2  3400               	retlw	0
   266  05C3  3410               	retlw	16
   267  05C4  3400               	retlw	0
   268  05C5  3400               	retlw	0
   269  05C6  3400               	retlw	0
   270  05C7  3400               	retlw	0
   271  05C8  3400               	retlw	0
   272  05C9  3400               	retlw	0
   273  05CA  341B               	retlw	27
   274  05CB  3400               	retlw	0
   275  05CC  3400               	retlw	0
   276  05CD  3400               	retlw	0
   277  05CE  3400               	retlw	0
   278  05CF  3400               	retlw	0
   279  05D0  340D               	retlw	13
   280  05D1  341D               	retlw	29
   281  05D2  3400               	retlw	0
   282  05D3  341C               	retlw	28
   283  05D4  3400               	retlw	0
   284  05D5  3400               	retlw	0
   285  05D6  3400               	retlw	0
   286  05D7  3400               	retlw	0
   287  05D8  3400               	retlw	0
   288  05D9  3400               	retlw	0
   289  05DA  3400               	retlw	0
   290  05DB  3400               	retlw	0
   291  05DC  3408               	retlw	8
   292  05DD  3400               	retlw	0
   293  05DE  3400               	retlw	0
   294  05DF  3400               	retlw	0
   295  05E0  3400               	retlw	0
   296  05E1  3400               	retlw	0
   297  05E2  3400               	retlw	0
   298  05E3  3400               	retlw	0
   299  05E4  3400               	retlw	0
   300  05E5  3400               	retlw	0
   301  05E6  3400               	retlw	0
   302  05E7  3400               	retlw	0
   303  05E8  3400               	retlw	0
   304  05E9  3400               	retlw	0
   305  05EA  3400               	retlw	0
   306  05EB  3400               	retlw	0
   307  05EC  341B               	retlw	27
   308  05ED  3400               	retlw	0
   309  05EE  3400               	retlw	0
   310  05EF  3400               	retlw	0
   311  05F0  3400               	retlw	0
   312  05F1  3400               	retlw	0
   313  05F2  3400               	retlw	0
   314  05F3  3400               	retlw	0
   315  05F4                     __end_of_ctrlAscii:	
   316  05F4                     _normalAscii:	
   317  05F4  340A               	retlw	10
   318  05F5  345C               	retlw	92
   319  05F6  3400               	retlw	0
   320  05F7  3400               	retlw	0
   321  05F8  3400               	retlw	0
   322  05F9  3400               	retlw	0
   323  05FA  3400               	retlw	0
   324  05FB  3400               	retlw	0
   325  05FC  3471               	retlw	113
   326  05FD  3431               	retlw	49
   327  05FE  3400               	retlw	0
   328  05FF  3400               	retlw	0
   329  0600  3400               	retlw	0
   330  0601  347A               	retlw	122
   331  0602  3473               	retlw	115
   332  0603  3461               	retlw	97
   333  0604  3477               	retlw	119
   334  0605  3432               	retlw	50
   335  0606  3400               	retlw	0
   336  0607  3400               	retlw	0
   337  0608  3463               	retlw	99
   338  0609  3478               	retlw	120
   339  060A  3464               	retlw	100
   340  060B  3465               	retlw	101
   341  060C  3434               	retlw	52
   342  060D  3433               	retlw	51
   343  060E  3400               	retlw	0
   344  060F  3400               	retlw	0
   345  0610  3420               	retlw	32
   346  0611  3476               	retlw	118
   347  0612  3466               	retlw	102
   348  0613  3474               	retlw	116
   349  0614  3472               	retlw	114
   350  0615  3435               	retlw	53
   351  0616  3400               	retlw	0
   352  0617  3400               	retlw	0
   353  0618  346E               	retlw	110
   354  0619  3462               	retlw	98
   355  061A  3468               	retlw	104
   356  061B  3467               	retlw	103
   357  061C  3479               	retlw	121
   358  061D  3436               	retlw	54
   359  061E  3400               	retlw	0
   360  061F  3400               	retlw	0
   361  0620  3400               	retlw	0
   362  0621  346D               	retlw	109
   363  0622  346A               	retlw	106
   364  0623  3475               	retlw	117
   365  0624  3437               	retlw	55
   366  0625  3438               	retlw	56
   367  0626  3400               	retlw	0
   368  0627  3400               	retlw	0
   369  0628  342C               	retlw	44
   370  0629  346B               	retlw	107
   371  062A  3469               	retlw	105
   372  062B  346F               	retlw	111
   373  062C  3430               	retlw	48
   374  062D  3439               	retlw	57
   375  062E  3400               	retlw	0
   376  062F  3400               	retlw	0
   377  0630  342E               	retlw	46
   378  0631  342D               	retlw	45
   379  0632  346C               	retlw	108
   380  0633  3440               	retlw	64
   381  0634  3470               	retlw	112
   382  0635  3427               	retlw	39
   383  0636  3400               	retlw	0
   384  0637  3400               	retlw	0
   385  0638  3400               	retlw	0
   386  0639  342B               	retlw	43
   387  063A  3400               	retlw	0
   388  063B  345B               	retlw	91
   389  063C  345E               	retlw	94
   390  063D  3400               	retlw	0
   391  063E  3400               	retlw	0
   392  063F  3400               	retlw	0
   393  0640  3400               	retlw	0
   394  0641  340D               	retlw	13
   395  0642  345D               	retlw	93
   396  0643  3400               	retlw	0
   397  0644  3400               	retlw	0
   398  0645  3400               	retlw	0
   399  0646  3400               	retlw	0
   400  0647  3400               	retlw	0
   401  0648  343C               	retlw	60
   402  0649  3400               	retlw	0
   403  064A  3400               	retlw	0
   404  064B  3400               	retlw	0
   405  064C  3400               	retlw	0
   406  064D  3408               	retlw	8
   407  064E  3400               	retlw	0
   408  064F  3400               	retlw	0
   409  0650  3431               	retlw	49
   410  0651  3400               	retlw	0
   411  0652  3434               	retlw	52
   412  0653  3437               	retlw	55
   413  0654  3400               	retlw	0
   414  0655  3400               	retlw	0
   415  0656  3400               	retlw	0
   416  0657  3430               	retlw	48
   417  0658  342E               	retlw	46
   418  0659  3432               	retlw	50
   419  065A  3435               	retlw	53
   420  065B  3436               	retlw	54
   421  065C  3438               	retlw	56
   422  065D  341B               	retlw	27
   423  065E  3400               	retlw	0
   424  065F  3400               	retlw	0
   425  0660  342B               	retlw	43
   426  0661  3433               	retlw	51
   427  0662  342D               	retlw	45
   428  0663  342A               	retlw	42
   429  0664  3439               	retlw	57
   430  0665  340A               	retlw	10
   431  0666  3460               	retlw	96
   432  0667  3400               	retlw	0
   433  0668  3400               	retlw	0
   434  0669  3400               	retlw	0
   435  066A  3400               	retlw	0
   436  066B  3400               	retlw	0
   437  066C  3400               	retlw	0
   438  066D  3471               	retlw	113
   439  066E  3431               	retlw	49
   440  066F  3400               	retlw	0
   441  0670  3400               	retlw	0
   442  0671  3400               	retlw	0
   443  0672  347A               	retlw	122
   444  0673  3473               	retlw	115
   445  0674  3461               	retlw	97
   446  0675  3477               	retlw	119
   447  0676  3432               	retlw	50
   448  0677  3400               	retlw	0
   449  0678  3400               	retlw	0
   450  0679  3463               	retlw	99
   451  067A  3478               	retlw	120
   452  067B  3464               	retlw	100
   453  067C  3465               	retlw	101
   454  067D  3434               	retlw	52
   455  067E  3433               	retlw	51
   456  067F  3400               	retlw	0
   457  0680  3400               	retlw	0
   458  0681  3420               	retlw	32
   459  0682  3476               	retlw	118
   460  0683  3466               	retlw	102
   461  0684  3474               	retlw	116
   462  0685  3472               	retlw	114
   463  0686  3435               	retlw	53
   464  0687  3400               	retlw	0
   465  0688  3400               	retlw	0
   466  0689  346E               	retlw	110
   467  068A  3462               	retlw	98
   468  068B  3468               	retlw	104
   469  068C  3467               	retlw	103
   470  068D  3479               	retlw	121
   471  068E  3436               	retlw	54
   472  068F  3400               	retlw	0
   473  0690  3400               	retlw	0
   474  0691  3400               	retlw	0
   475  0692  346D               	retlw	109
   476  0693  346A               	retlw	106
   477  0694  3475               	retlw	117
   478  0695  3437               	retlw	55
   479  0696  3438               	retlw	56
   480  0697  3400               	retlw	0
   481  0698  3400               	retlw	0
   482  0699  342C               	retlw	44
   483  069A  346B               	retlw	107
   484  069B  3469               	retlw	105
   485  069C  346F               	retlw	111
   486  069D  3430               	retlw	48
   487  069E  3439               	retlw	57
   488  069F  3400               	retlw	0
   489  06A0  3400               	retlw	0
   490  06A1  342E               	retlw	46
   491  06A2  342F               	retlw	47
   492  06A3  346C               	retlw	108
   493  06A4  343B               	retlw	59
   494  06A5  3470               	retlw	112
   495  06A6  342D               	retlw	45
   496  06A7  3400               	retlw	0
   497  06A8  3400               	retlw	0
   498  06A9  3400               	retlw	0
   499  06AA  3427               	retlw	39
   500  06AB  3400               	retlw	0
   501  06AC  345B               	retlw	91
   502  06AD  343D               	retlw	61
   503  06AE  3400               	retlw	0
   504  06AF  3400               	retlw	0
   505  06B0  3400               	retlw	0
   506  06B1  3400               	retlw	0
   507  06B2  340D               	retlw	13
   508  06B3  345D               	retlw	93
   509  06B4  3400               	retlw	0
   510  06B5  345C               	retlw	92
   511  06B6  3400               	retlw	0
   512  06B7  3400               	retlw	0
   513  06B8  3400               	retlw	0
   514  06B9  3400               	retlw	0
   515  06BA  3400               	retlw	0
   516  06BB  3400               	retlw	0
   517  06BC  3400               	retlw	0
   518  06BD  3400               	retlw	0
   519  06BE  3408               	retlw	8
   520  06BF  3400               	retlw	0
   521  06C0  3400               	retlw	0
   522  06C1  3431               	retlw	49
   523  06C2  3400               	retlw	0
   524  06C3  3434               	retlw	52
   525  06C4  3437               	retlw	55
   526  06C5  3400               	retlw	0
   527  06C6  3400               	retlw	0
   528  06C7  3400               	retlw	0
   529  06C8  3430               	retlw	48
   530  06C9  342E               	retlw	46
   531  06CA  3432               	retlw	50
   532  06CB  3435               	retlw	53
   533  06CC  3436               	retlw	54
   534  06CD  3438               	retlw	56
   535  06CE  341B               	retlw	27
   536  06CF  3400               	retlw	0
   537  06D0  3400               	retlw	0
   538  06D1  342B               	retlw	43
   539  06D2  3433               	retlw	51
   540  06D3  342D               	retlw	45
   541  06D4  342A               	retlw	42
   542  06D5  3439               	retlw	57
   543  06D6                     __end_of_normalAscii:	
   544  06D6                     _shiftAscii:	
   545  06D6  340A               	retlw	10
   546  06D7  347C               	retlw	124
   547  06D8  3400               	retlw	0
   548  06D9  3400               	retlw	0
   549  06DA  3400               	retlw	0
   550  06DB  3400               	retlw	0
   551  06DC  3400               	retlw	0
   552  06DD  3400               	retlw	0
   553  06DE  3451               	retlw	81
   554  06DF  3421               	retlw	33
   555  06E0  3400               	retlw	0
   556  06E1  3400               	retlw	0
   557  06E2  3400               	retlw	0
   558  06E3  345A               	retlw	90
   559  06E4  3453               	retlw	83
   560  06E5  3441               	retlw	65
   561  06E6  3457               	retlw	87
   562  06E7  3422               	retlw	34
   563  06E8  3400               	retlw	0
   564  06E9  3400               	retlw	0
   565  06EA  3443               	retlw	67
   566  06EB  3458               	retlw	88
   567  06EC  3444               	retlw	68
   568  06ED  3445               	retlw	69
   569  06EE  3424               	retlw	36
   570  06EF  3423               	retlw	35
   571  06F0  3400               	retlw	0
   572  06F1  3400               	retlw	0
   573  06F2  3420               	retlw	32
   574  06F3  3456               	retlw	86
   575  06F4  3446               	retlw	70
   576  06F5  3454               	retlw	84
   577  06F6  3452               	retlw	82
   578  06F7  3425               	retlw	37
   579  06F8  3400               	retlw	0
   580  06F9  3400               	retlw	0
   581  06FA  344E               	retlw	78
   582  06FB  3442               	retlw	66
   583  06FC  3448               	retlw	72
   584  06FD  3447               	retlw	71
   585  06FE  3459               	retlw	89
   586  06FF  3426               	retlw	38
   587  0700  3400               	retlw	0
   588  0701  3400               	retlw	0
   589  0702  3400               	retlw	0
   590  0703  344D               	retlw	77
   591  0704  344A               	retlw	74
   592  0705  3455               	retlw	85
   593  0706  342F               	retlw	47
   594  0707  3428               	retlw	40
   595  0708  3400               	retlw	0
   596  0709  3400               	retlw	0
   597  070A  343B               	retlw	59
   598  070B  344B               	retlw	75
   599  070C  3449               	retlw	73
   600  070D  344F               	retlw	79
   601  070E  343D               	retlw	61
   602  070F  3429               	retlw	41
   603  0710  3400               	retlw	0
   604  0711  3400               	retlw	0
   605  0712  343A               	retlw	58
   606  0713  345F               	retlw	95
   607  0714  344C               	retlw	76
   608  0715  3460               	retlw	96
   609  0716  3450               	retlw	80
   610  0717  343F               	retlw	63
   611  0718  3400               	retlw	0
   612  0719  3400               	retlw	0
   613  071A  3400               	retlw	0
   614  071B  342A               	retlw	42
   615  071C  3400               	retlw	0
   616  071D  347B               	retlw	123
   617  071E  347E               	retlw	126
   618  071F  3400               	retlw	0
   619  0720  3400               	retlw	0
   620  0721  3400               	retlw	0
   621  0722  3400               	retlw	0
   622  0723  340D               	retlw	13
   623  0724  347D               	retlw	125
   624  0725  3400               	retlw	0
   625  0726  3400               	retlw	0
   626  0727  3400               	retlw	0
   627  0728  3400               	retlw	0
   628  0729  3400               	retlw	0
   629  072A  343E               	retlw	62
   630  072B  3400               	retlw	0
   631  072C  3400               	retlw	0
   632  072D  3400               	retlw	0
   633  072E  3400               	retlw	0
   634  072F  3408               	retlw	8
   635  0730  3400               	retlw	0
   636  0731  3400               	retlw	0
   637  0732  3431               	retlw	49
   638  0733  3400               	retlw	0
   639  0734  3434               	retlw	52
   640  0735  3437               	retlw	55
   641  0736  3400               	retlw	0
   642  0737  3400               	retlw	0
   643  0738  3400               	retlw	0
   644  0739  3430               	retlw	48
   645  073A  342E               	retlw	46
   646  073B  3432               	retlw	50
   647  073C  3435               	retlw	53
   648  073D  3436               	retlw	54
   649  073E  3438               	retlw	56
   650  073F  341B               	retlw	27
   651  0740  3400               	retlw	0
   652  0741  3400               	retlw	0
   653  0742  342B               	retlw	43
   654  0743  3433               	retlw	51
   655  0744  342D               	retlw	45
   656  0745  342A               	retlw	42
   657  0746  3439               	retlw	57
   658  0747  340A               	retlw	10
   659  0748  347E               	retlw	126
   660  0749  3400               	retlw	0
   661  074A  3400               	retlw	0
   662  074B  3400               	retlw	0
   663  074C  3400               	retlw	0
   664  074D  3400               	retlw	0
   665  074E  3400               	retlw	0
   666  074F  3451               	retlw	81
   667  0750  3421               	retlw	33
   668  0751  3400               	retlw	0
   669  0752  3400               	retlw	0
   670  0753  3400               	retlw	0
   671  0754  345A               	retlw	90
   672  0755  3453               	retlw	83
   673  0756  3441               	retlw	65
   674  0757  3457               	retlw	87
   675  0758  3440               	retlw	64
   676  0759  3400               	retlw	0
   677  075A  3400               	retlw	0
   678  075B  3443               	retlw	67
   679  075C  3458               	retlw	88
   680  075D  3444               	retlw	68
   681  075E  3445               	retlw	69
   682  075F  3424               	retlw	36
   683  0760  3423               	retlw	35
   684  0761  3400               	retlw	0
   685  0762  3400               	retlw	0
   686  0763  3420               	retlw	32
   687  0764  3456               	retlw	86
   688  0765  3446               	retlw	70
   689  0766  3454               	retlw	84
   690  0767  3452               	retlw	82
   691  0768  3425               	retlw	37
   692  0769  3400               	retlw	0
   693  076A  3400               	retlw	0
   694  076B  344E               	retlw	78
   695  076C  3442               	retlw	66
   696  076D  3448               	retlw	72
   697  076E  3447               	retlw	71
   698  076F  3459               	retlw	89
   699  0770  345E               	retlw	94
   700  0771  3400               	retlw	0
   701  0772  3400               	retlw	0
   702  0773  3400               	retlw	0
   703  0774  344D               	retlw	77
   704  0775  344A               	retlw	74
   705  0776  3455               	retlw	85
   706  0777  3426               	retlw	38
   707  0778  342A               	retlw	42
   708  0779  3400               	retlw	0
   709  077A  3400               	retlw	0
   710  077B  343C               	retlw	60
   711  077C  344B               	retlw	75
   712  077D  3449               	retlw	73
   713  077E  344F               	retlw	79
   714  077F  3429               	retlw	41
   715  0780  3428               	retlw	40
   716  0781  3400               	retlw	0
   717  0782  3400               	retlw	0
   718  0783  343E               	retlw	62
   719  0784  343F               	retlw	63
   720  0785  344C               	retlw	76
   721  0786  343A               	retlw	58
   722  0787  3450               	retlw	80
   723  0788  345F               	retlw	95
   724  0789  3400               	retlw	0
   725  078A  3400               	retlw	0
   726  078B  3400               	retlw	0
   727  078C  3422               	retlw	34
   728  078D  3400               	retlw	0
   729  078E  347B               	retlw	123
   730  078F  342B               	retlw	43
   731  0790  3400               	retlw	0
   732  0791  3400               	retlw	0
   733  0792  3400               	retlw	0
   734  0793  3400               	retlw	0
   735  0794  340D               	retlw	13
   736  0795  347D               	retlw	125
   737  0796  3400               	retlw	0
   738  0797  347C               	retlw	124
   739  0798  3400               	retlw	0
   740  0799  3400               	retlw	0
   741  079A  3400               	retlw	0
   742  079B  3400               	retlw	0
   743  079C  3400               	retlw	0
   744  079D  3400               	retlw	0
   745  079E  3400               	retlw	0
   746  079F  3400               	retlw	0
   747  07A0  3408               	retlw	8
   748  07A1  3400               	retlw	0
   749  07A2  3400               	retlw	0
   750  07A3  3431               	retlw	49
   751  07A4  3400               	retlw	0
   752  07A5  3434               	retlw	52
   753  07A6  3437               	retlw	55
   754  07A7  3400               	retlw	0
   755  07A8  3400               	retlw	0
   756  07A9  3400               	retlw	0
   757  07AA  3430               	retlw	48
   758  07AB  342E               	retlw	46
   759  07AC  3432               	retlw	50
   760  07AD  3435               	retlw	53
   761  07AE  3436               	retlw	54
   762  07AF  3438               	retlw	56
   763  07B0  341B               	retlw	27
   764  07B1  3400               	retlw	0
   765  07B2  3400               	retlw	0
   766  07B3  342B               	retlw	43
   767  07B4  3433               	retlw	51
   768  07B5  342D               	retlw	45
   769  07B6  342A               	retlw	42
   770  07B7  3439               	retlw	57
   771  07B8                     __end_of_shiftAscii:	
   772                           
   773                           	psect	nvCOMMON
   774  007C                     __pnvCOMMON:	
   775  007C                     _scanCode:	
   776  007C                     	ds	1
   777  001F                     _CMCON	set	31
   778  0006                     _PORTB	set	6
   779  0018                     _CARRY	set	24
   780  005F                     _GIE	set	95
   781  0028                     _RA0	set	40
   782  0029                     _RA1	set	41
   783  002A                     _RA2	set	42
   784  0037                     _RB7	set	55
   785  009B                     _EEADR	set	155
   786  009C                     _EECON1	set	156
   787  009D                     _EECON2	set	157
   788  009A                     _EEDATA	set	154
   789  0086                     _TRISB	set	134
   790  04E0                     _RD	set	1248
   791  0428                     _TRISA0	set	1064
   792  0429                     _TRISA1	set	1065
   793  042A                     _TRISA2	set	1066
   794  04E1                     _WR	set	1249
   795  04E2                     _WREN	set	1250
   796                           
   797                           ; #config settings
   798  0000                     
   799                           	psect	cinit
   800  07FC                     start_initialization:	
   801  07FC                     __initialization:	
   802                           
   803                           ; Clear objects allocated to BITCOMMON
   804  07FC  01FB               	clrf	(__pbitbssCOMMON/(0+8))& (0+127)
   805                           
   806                           ; Clear objects allocated to COMMON
   807  07FD  01FD               	clrf	__pbssCOMMON& (0+127)
   808  07FE                     end_of_initialization:	
   809                           ;End of C runtime variable initialization code
   810                           
   811  07FE                     __end_of__initialization:	
   812  07FE  0183               	clrf	3
   813  07FF  2BE3               	ljmp	_main	;jump to C main() function
   814                           
   815                           	psect	bitbssCOMMON
   816  03D8                     __pbitbssCOMMON:	
   817  03D8                     _alt:	
   818  03D8                     	ds	1
   819  03D9                     _altGr:	
   820  03D9                     	ds	1
   821  03DA                     _ctrl:	
   822  03DA                     	ds	1
   823  03DB                     _extendedKey:	
   824  03DB                     	ds	1
   825  03DC                     _keyUp:	
   826  03DC                     	ds	1
   827  03DD                     _shift:	
   828  03DD                     	ds	1
   829  03DE                     _shiftLock:	
   830  03DE                     	ds	1
   831                           
   832                           	psect	bssEEDATA
   833  0000                     __pbssEEDATA:	
   834  0000                     _ps2Default:	
   835  0000  0000               	db	0
   836                           
   837                           	psect	bssCOMMON
   838  007D                     __pbssCOMMON:	
   839  007D                     _commandCode:	
   840  007D                     	ds	1
   841                           
   842                           	psect	cstackCOMMON
   843  0070                     __pcstackCOMMON:	
   844  0070                     ?_clockCycle:	
   845  0070                     ??_clockCycle:	
   846                           ; 0 bytes @ 0x0
   847                           
   848  0070                     ?_sendCommandCode:	
   849                           ; 0 bytes @ 0x0
   850                           
   851  0070                     ??_sendCommandCode:	
   852                           ; 0 bytes @ 0x0
   853                           
   854  0070                     ?_readScanCode:	
   855                           ; 0 bytes @ 0x0
   856                           
   857  0070                     ??_readScanCode:	
   858                           ; 0 bytes @ 0x0
   859                           
   860  0070                     ?_setPanel:	
   861                           ; 0 bytes @ 0x0
   862                           
   863  0070                     ?_flashPanel:	
   864                           ; 0 bytes @ 0x0
   865                           
   866  0070                     ?_main:	
   867                           ; 0 bytes @ 0x0
   868                           
   869  0070                     ?_eecpymem:	
   870                           ; 0 bytes @ 0x0
   871                           
   872  0070                     ?_memcpyee:	
   873                           ; 0 bytes @ 0x0
   874                           
   875  0070                     ?___eetoc:	
   876                           ; 0 bytes @ 0x0
   877                           
   878  0070                     eecpymem@from:	
   879                           ; 1 bytes @ 0x0
   880                           
   881  0070                     memcpyee@from:	
   882                           ; 1 bytes @ 0x0
   883                           
   884                           
   885                           ; 1 bytes @ 0x0
   886  0070                     	ds	1
   887  0071                     sendCommandCode@n:	
   888  0071                     readScanCode@n:	
   889                           ; 1 bytes @ 0x1
   890                           
   891  0071                     eecpymem@size:	
   892                           ; 1 bytes @ 0x1
   893                           
   894  0071                     memcpyee@size:	
   895                           ; 1 bytes @ 0x1
   896                           
   897                           
   898                           ; 1 bytes @ 0x1
   899  0071                     	ds	1
   900  0072                     ??_eecpymem:	
   901  0072                     ??_memcpyee:	
   902                           ; 0 bytes @ 0x2
   903                           
   904  0072                     sendCommandCode@parity:	
   905                           ; 0 bytes @ 0x2
   906                           
   907                           
   908                           ; 1 bytes @ 0x2
   909  0072                     	ds	1
   910  0073                     ??_setPanel:	
   911  0073                     eecpymem@cp:	
   912                           ; 0 bytes @ 0x3
   913                           
   914  0073                     memcpyee@ptr:	
   915                           ; 1 bytes @ 0x3
   916                           
   917                           
   918                           ; 1 bytes @ 0x3
   919  0073                     	ds	1
   920  0074                     setPanel@leds:	
   921  0074                     eecpymem@to:	
   922                           ; 1 bytes @ 0x4
   923                           
   924  0074                     memcpyee@to:	
   925                           ; 1 bytes @ 0x4
   926                           
   927                           
   928                           ; 1 bytes @ 0x4
   929  0074                     	ds	1
   930  0075                     ??_flashPanel:	
   931  0075                     ??___eetoc:	
   932                           ; 0 bytes @ 0x5
   933                           
   934  0075                     ?___ctoee:	
   935                           ; 0 bytes @ 0x5
   936                           
   937  0075                     ___ctoee@data:	
   938                           ; 1 bytes @ 0x5
   939                           
   940                           
   941                           ; 1 bytes @ 0x5
   942  0075                     	ds	1
   943  0076                     ??___ctoee:	
   944  0076                     ___eetoc@addr:	
   945                           ; 0 bytes @ 0x6
   946                           
   947                           
   948                           ; 1 bytes @ 0x6
   949  0076                     	ds	1
   950  0077                     flashPanel@count:	
   951  0077                     ___eetoc@data:	
   952                           ; 1 bytes @ 0x7
   953                           
   954  0077                     ___ctoee@addr:	
   955                           ; 1 bytes @ 0x7
   956                           
   957                           
   958                           ; 1 bytes @ 0x7
   959  0077                     	ds	1
   960  0078                     ??_main:	
   961                           
   962                           ; 0 bytes @ 0x8
   963  0078                     	ds	3
   964                           
   965                           	psect	cstackBANK0
   966  0020                     __pcstackBANK0:	
   967  0020                     _main$61:	
   968                           
   969                           ; 2 bytes @ 0x0
   970  0020                     	ds	2
   971  0022                     _main$62:	
   972                           
   973                           ; 2 bytes @ 0x2
   974  0022                     	ds	2
   975  0024                     _main$63:	
   976                           
   977                           ; 2 bytes @ 0x4
   978  0024                     	ds	2
   979  0026                     main@ps2Config:	
   980                           
   981                           ; 1 bytes @ 0x6
   982  0026                     	ds	1
   983  0027                     main@ascii:	
   984                           
   985                           ; 1 bytes @ 0x7
   986  0027                     	ds	1
   987                           
   988                           	psect	maintext
   989  03E3                     __pmaintext:	
   990 ;;
   991 ;;Main: autosize = 0, tempsize = 3, incstack = 0, save=0
   992 ;;
   993 ;; *************** function _main *****************
   994 ;; Defined at:
   995 ;;		line 268 in file "main.c"
   996 ;; Parameters:    Size  Location     Type
   997 ;;		None
   998 ;; Auto vars:     Size  Location     Type
   999 ;;  ascii           1    7[BANK0 ] unsigned char 
  1000 ;;  ps2Config       1    6[BANK0 ] unsigned char 
  1001 ;; Return value:  Size  Location     Type
  1002 ;;		None               void
  1003 ;; Registers used:
  1004 ;;		wreg, fsr0l, fsr0h, status,2, status,0, btemp+1, pclath, cstack
  1005 ;; Tracked objects:
  1006 ;;		On entry : 17F/0
  1007 ;;		On exit  : 0/0
  1008 ;;		Unchanged: 0/0
  1009 ;; Data sizes:     COMMON   BANK0   BANK1   BANK2
  1010 ;;      Params:         0       0       0       0
  1011 ;;      Locals:         0       8       0       0
  1012 ;;      Temps:          3       0       0       0
  1013 ;;      Totals:         3       8       0       0
  1014 ;;Total ram usage:       11 bytes
  1015 ;; Hardware stack levels required when called:    4
  1016 ;; This function calls:
  1017 ;;		___ctoee
  1018 ;;		___eetoc
  1019 ;;		_flashPanel
  1020 ;;		_readScanCode
  1021 ;;		_setPanel
  1022 ;; This function is called by:
  1023 ;;		Startup code after reset
  1024 ;; This function uses a non-reentrant model
  1025 ;;
  1026                           
  1027                           
  1028                           ;psect for function _main
  1029  03E3                     _main:	
  1030                           
  1031                           ;main.c: 270: unsigned char ascii;
  1032                           ;main.c: 271: unsigned char ps2Config = ps2Default;
  1033                           
  1034                           ;incstack = 0
  1035                           ; Regs used in _main: [wreg-fsr0h+status,2+status,0+btemp+1+pclath+cstack]
  1036  03E3  3000               	movlw	_ps2Default& (0+255)
  1037  03E4  22FA               	fcall	___eetoc
  1038  03E5  00F8               	movwf	??_main
  1039  03E6  0878               	movf	??_main,w
  1040  03E7  1283               	bcf	3,5	;RP0=0, select bank0
  1041  03E8  1303               	bcf	3,6	;RP1=0, select bank0
  1042  03E9  00A6               	movwf	main@ps2Config
  1043                           
  1044                           ;main.c: 273: CMCON = 0b00000111;
  1045  03EA  3007               	movlw	7
  1046  03EB  009F               	movwf	31	;volatile
  1047                           
  1048                           ;main.c: 274: RA2 = 1; TRISA2 = 0;
  1049  03EC  1505               	bsf	5,2	;volatile
  1050  03ED  1683               	bsf	3,5	;RP0=1, select bank1
  1051  03EE  1303               	bcf	3,6	;RP1=0, select bank1
  1052  03EF  1105               	bcf	5,2	;volatile
  1053                           
  1054                           ;main.c: 275: PORTB = 0b11111111; TRISB = 0b00000000;
  1055  03F0  30FF               	movlw	255
  1056  03F1  1283               	bcf	3,5	;RP0=0, select bank0
  1057  03F2  1303               	bcf	3,6	;RP1=0, select bank0
  1058  03F3  0086               	movwf	6	;volatile
  1059  03F4  1683               	bsf	3,5	;RP0=1, select bank1
  1060  03F5  1303               	bcf	3,6	;RP1=0, select bank1
  1061  03F6  0186               	clrf	6	;volatile
  1062  03F7                     l1076:	
  1063                           ;main.c: 278: while(!scanCode)
  1064                           
  1065  03F7  087C               	movf	_scanCode,w
  1066  03F8  1D03               	skipz
  1067  03F9  2BFC               	goto	l1078
  1068                           
  1069                           ;main.c: 279: readScanCode();
  1070  03FA  2360               	fcall	_readScanCode
  1071  03FB  2BF7               	goto	l1076
  1072  03FC                     l1078:	
  1073                           
  1074                           ;main.c: 282: setPanel(0b00000010);
  1075  03FC  3002               	movlw	2
  1076  03FD  2305               	fcall	_setPanel
  1077  03FE                     l117:	
  1078                           ;main.c: 286: {
  1079                           ;main.c: 287: do
  1080                           
  1081                           ;main.c: 285: for(;;)
  1082                           
  1083                           
  1084                           ;main.c: 288: {
  1085                           ;main.c: 289: readScanCode();
  1086  03FE  2360               	fcall	_readScanCode
  1087                           
  1088                           ;main.c: 290: } while (!scanCode);
  1089  03FF  087C               	movf	_scanCode,w
  1090  0400  1903               	btfsc	3,2
  1091  0401  2BFE               	goto	l117
  1092                           
  1093                           ;main.c: 292: RB7 = 1;
  1094  0402  1283               	bcf	3,5	;RP0=0, select bank0
  1095  0403  1303               	bcf	3,6	;RP1=0, select bank0
  1096  0404  1786               	bsf	6,7	;volatile
  1097                           
  1098                           ;main.c: 293: ascii = 0;
  1099  0405  01A7               	clrf	main@ascii
  1100                           
  1101                           ;main.c: 295: if(extendedKey)
  1102  0406  19FB               	btfsc	_extendedKey/(0+8),_extendedKey& (0+7)
  1103  0407  2C1B               	goto	l1096
  1104  0408  2CD0               	goto	l1164
  1105  0409                     l121:	
  1106                           ;main.c: 297: {
  1107                           ;main.c: 298: case 0x11:
  1108                           
  1109                           ;main.c: 296: switch(scanCode)
  1110                           
  1111                           
  1112                           ;main.c: 299: altGr = !keyUp;
  1113  0409  14FB               	bsf	_altGr/(0+8),_altGr& (0+7)
  1114  040A  1E7B               	btfss	_keyUp/(0+8),_keyUp& (0+7)
  1115  040B  2CE7               	goto	l1166
  1116  040C  10FB               	bcf	_altGr/(0+8),_altGr& (0+7)
  1117                           
  1118                           ;main.c: 300: break;
  1119  040D  2CE7               	goto	l1166
  1120  040E                     l123:	
  1121                           ;main.c: 302: case 0x14:
  1122                           
  1123  040E  2C8A               	goto	l148
  1124  040F                     l124:	
  1125                           ;main.c: 306: case 0x4A:
  1126                           
  1127                           ;main.c: 304: break;
  1128                           
  1129                           ;main.c: 303: ctrl = !keyUp;
  1130                           
  1131                           
  1132                           ;main.c: 307: if(!keyUp)
  1133  040F  1A7B               	btfsc	_keyUp/(0+8),_keyUp& (0+7)
  1134  0410  2CE7               	goto	l1166
  1135                           
  1136                           ;main.c: 308: ascii = '/';
  1137  0411  302F               	movlw	47
  1138  0412  2CCC               	goto	L8
  1139  0413                     l126:	
  1140                           ;main.c: 311: case 0x5A:
  1141                           
  1142                           ;main.c: 309: break;
  1143                           
  1144                           
  1145                           ;main.c: 312: if(!keyUp)
  1146  0413  1A7B               	btfsc	_keyUp/(0+8),_keyUp& (0+7)
  1147  0414  2CE7               	goto	l1166
  1148                           
  1149                           ;main.c: 313: ascii = 0x0D;
  1150  0415  300D               	movlw	13
  1151  0416  2CCC               	goto	L8
  1152  0417                     l128:	
  1153                           ;main.c: 316: case 0x71:
  1154                           
  1155                           ;main.c: 314: break;
  1156                           
  1157                           
  1158                           ;main.c: 317: if(!keyUp)
  1159  0417  1A7B               	btfsc	_keyUp/(0+8),_keyUp& (0+7)
  1160  0418  2CE7               	goto	l1166
  1161                           
  1162                           ;main.c: 318: ascii = 0x7F;
  1163  0419  307F               	movlw	127
  1164  041A  2CCC               	goto	L8
  1165  041B                     l1096:	
  1166                           ;main.c: 320: }
  1167                           
  1168                           ;main.c: 319: break;
  1169                           
  1170  041B  087C               	movf	_scanCode,w
  1171                           
  1172                           ; Switch size 1, requested type "space"
  1173                           ; Number of cases is 5, Range of values is 17 to 113
  1174                           ; switch strategies available:
  1175                           ; Name         Instructions Cycles
  1176                           ; simple_byte           16     9 (average)
  1177                           ; direct_byte          106     9 (fixed)
  1178                           ; jumptable            263     9 (fixed)
  1179                           ;	Chosen strategy is simple_byte
  1180  041C  3A11               	xorlw	17	; case 17
  1181  041D  1903               	skipnz
  1182  041E  2C09               	goto	l121
  1183  041F  3A05               	xorlw	5	; case 20
  1184  0420  1903               	skipnz
  1185  0421  2C0E               	goto	l123
  1186  0422  3A5E               	xorlw	94	; case 74
  1187  0423  1903               	skipnz
  1188  0424  2C0F               	goto	l124
  1189  0425  3A10               	xorlw	16	; case 90
  1190  0426  1903               	skipnz
  1191  0427  2C13               	goto	l126
  1192  0428  3A2B               	xorlw	43	; case 113
  1193  0429  1903               	skipnz
  1194  042A  2C17               	goto	l128
  1195  042B  2CE7               	goto	l1166
  1196  042C  2CE7               	goto	l1166
  1197  042D                     l132:	
  1198                           ;main.c: 323: {
  1199                           ;main.c: 324: case 0x05:
  1200                           
  1201                           ;main.c: 321: else
  1202                           ;main.c: 322: switch(scanCode)
  1203                           
  1204                           
  1205                           ;main.c: 325: if(!keyUp & alt)
  1206  042D  1E7B               	btfss	_keyUp/(0+8),_keyUp& (0+7)
  1207  042E  1C7B               	btfss	_alt/(0+8),_alt& (0+7)
  1208  042F  2CE7               	goto	l1166
  1209                           
  1210                           ;main.c: 326: {
  1211                           ;main.c: 328: setPanel(0b00000000);
  1212  0430  3000               	movlw	0
  1213  0431  2305               	fcall	_setPanel
  1214                           
  1215                           ;main.c: 329: _delay((unsigned long)((200)*(4000000/4000.0)));
  1216  0432  3002               	movlw	2
  1217  0433  00FA               	movwf	??_main+2
  1218  0434  3004               	movlw	4
  1219  0435  00F9               	movwf	??_main+1
  1220  0436  30BA               	movlw	186
  1221  0437  00F8               	movwf	??_main
  1222  0438                     u1217:	
  1223  0438  0BF8               	decfsz	??_main,f
  1224  0439  2C38               	goto	u1217
  1225  043A  0BF9               	decfsz	??_main+1,f
  1226  043B  2C38               	goto	u1217
  1227  043C  0BFA               	decfsz	??_main+2,f
  1228  043D  2C38               	goto	u1217
  1229  043E  0000               	nop
  1230                           
  1231                           ;main.c: 332: ps2Config ^= 0b00000001;
  1232  043F  3001               	movlw	1
  1233  0440  00F8               	movwf	??_main
  1234  0441  0878               	movf	??_main,w
  1235  0442  1283               	bcf	3,5	;RP0=0, select bank0
  1236  0443  1303               	bcf	3,6	;RP1=0, select bank0
  1237  0444  06A6               	xorwf	main@ps2Config,f
  1238                           
  1239                           ;main.c: 337: flashPanel(ps2Config & 0b00000001);
  1240  0445  0826               	movf	main@ps2Config,w
  1241  0446  3901               	andlw	1
  1242  0447  231B               	fcall	_flashPanel
  1243                           
  1244                           ;main.c: 340: setPanel(shiftLock ? 0b00000110 : 0b00000010);
  1245  0448  1B7B               	btfsc	_shiftLock/(0+8),_shiftLock& (0+7)
  1246  0449  2C4C               	goto	l1112
  1247  044A  3002               	movlw	2
  1248  044B  2C4D               	goto	L4
  1249  044C                     l1112:	
  1250  044C  3006               	movlw	6
  1251  044D                     L4:	
  1252  044D  1283               	bcf	3,5	;RP0=0, select bank0
  1253  044E  1303               	bcf	3,6	;RP1=0, select bank0
  1254  044F  00A0               	movwf	_main$61
  1255  0450  3000               	movlw	0
  1256  0451  00A1               	movwf	_main$61+1
  1257  0452  0820               	movf	_main$61,w
  1258  0453  2305               	fcall	_setPanel
  1259                           
  1260                           ;main.c: 341: }
  1261                           ;main.c: 342: break;
  1262  0454  2CE7               	goto	l1166
  1263  0455                     l139:	
  1264                           ;main.c: 344: case 0x09:
  1265                           
  1266                           
  1267                           ;main.c: 345: if(!keyUp & ctrl & alt)
  1268  0455  1E7B               	btfss	_keyUp/(0+8),_keyUp& (0+7)
  1269  0456  1D7B               	btfss	_ctrl/(0+8),_ctrl& (0+7)
  1270  0457  2CE7               	goto	l1166
  1271  0458  1C7B               	btfss	_alt/(0+8),_alt& (0+7)
  1272  0459  2CE7               	goto	l1166
  1273                           
  1274                           ;main.c: 346: {
  1275                           ;main.c: 348: setPanel(0b00000000);
  1276  045A  3000               	movlw	0
  1277  045B  2305               	fcall	_setPanel
  1278                           
  1279                           ;main.c: 349: _delay((unsigned long)((200)*(4000000/4000.0)));
  1280  045C  3002               	movlw	2
  1281  045D  00FA               	movwf	??_main+2
  1282  045E  3004               	movlw	4
  1283  045F  00F9               	movwf	??_main+1
  1284  0460  30BA               	movlw	186
  1285  0461  00F8               	movwf	??_main
  1286  0462                     u1227:	
  1287  0462  0BF8               	decfsz	??_main,f
  1288  0463  2C62               	goto	u1227
  1289  0464  0BF9               	decfsz	??_main+1,f
  1290  0465  2C62               	goto	u1227
  1291  0466  0BFA               	decfsz	??_main+2,f
  1292  0467  2C62               	goto	u1227
  1293  0468  0000               	nop
  1294                           
  1295                           ;main.c: 352: ps2Default = ps2Config;
  1296  0469  1283               	bcf	3,5	;RP0=0, select bank0
  1297  046A  1303               	bcf	3,6	;RP1=0, select bank0
  1298  046B  0826               	movf	main@ps2Config,w
  1299  046C  00F8               	movwf	??_main
  1300  046D  0878               	movf	??_main,w
  1301  046E  00F5               	movwf	___ctoee@data
  1302  046F  3000               	movlw	_ps2Default& (0+255)
  1303  0470  22F0               	fcall	___ctoee
  1304                           
  1305                           ;main.c: 355: flashPanel(2);
  1306  0471  3002               	movlw	2
  1307  0472  231B               	fcall	_flashPanel
  1308                           
  1309                           ;main.c: 358: setPanel(shiftLock ? 0b00000110 : 0b00000010);
  1310  0473  1B7B               	btfsc	_shiftLock/(0+8),_shiftLock& (0+7)
  1311  0474  2C77               	goto	l1132
  1312  0475  3002               	movlw	2
  1313  0476  2C78               	goto	L5
  1314  0477                     l1132:	
  1315  0477  3006               	movlw	6
  1316  0478                     L5:	
  1317  0478  1283               	bcf	3,5	;RP0=0, select bank0
  1318  0479  1303               	bcf	3,6	;RP1=0, select bank0
  1319  047A  00A2               	movwf	_main$62
  1320  047B  3000               	movlw	0
  1321  047C  00A3               	movwf	_main$62+1
  1322  047D  0822               	movf	_main$62,w
  1323  047E  2305               	fcall	_setPanel
  1324                           
  1325                           ;main.c: 359: }
  1326                           ;main.c: 360: break;
  1327  047F  2CE7               	goto	l1166
  1328  0480                     l145:	
  1329                           ;main.c: 362: case 0x11:
  1330                           
  1331                           
  1332                           ;main.c: 363: alt = !keyUp;
  1333  0480  147B               	bsf	_alt/(0+8),_alt& (0+7)
  1334  0481  1E7B               	btfss	_keyUp/(0+8),_keyUp& (0+7)
  1335  0482  2CE7               	goto	l1166
  1336  0483  107B               	bcf	_alt/(0+8),_alt& (0+7)
  1337                           
  1338                           ;main.c: 364: break;
  1339  0484  2CE7               	goto	l1166
  1340  0485                     l147:	
  1341                           ;main.c: 366: case 0x12:
  1342                           
  1343                           
  1344                           ;main.c: 367: case 0x59:
  1345                           ;main.c: 368: shift = !keyUp;
  1346  0485  16FB               	bsf	_shift/(0+8),_shift& (0+7)
  1347  0486  1E7B               	btfss	_keyUp/(0+8),_keyUp& (0+7)
  1348  0487  2CE7               	goto	l1166
  1349  0488  12FB               	bcf	_shift/(0+8),_shift& (0+7)
  1350                           
  1351                           ;main.c: 369: break;
  1352  0489  2CE7               	goto	l1166
  1353  048A                     l148:	
  1354                           ;main.c: 371: case 0x14:
  1355                           
  1356                           
  1357                           ;main.c: 372: ctrl = !keyUp;
  1358  048A  157B               	bsf	_ctrl/(0+8),_ctrl& (0+7)
  1359  048B  1E7B               	btfss	_keyUp/(0+8),_keyUp& (0+7)
  1360  048C  2CE7               	goto	l1166
  1361  048D  117B               	bcf	_ctrl/(0+8),_ctrl& (0+7)
  1362                           
  1363                           ;main.c: 373: break;
  1364  048E  2CE7               	goto	l1166
  1365  048F                     l149:	
  1366                           ;main.c: 375: case 0x58:
  1367                           
  1368                           
  1369                           ;main.c: 376: if(!keyUp)
  1370  048F  1A7B               	btfsc	_keyUp/(0+8),_keyUp& (0+7)
  1371  0490  2CE7               	goto	l1166
  1372                           
  1373                           ;main.c: 377: {
  1374                           ;main.c: 378: shiftLock = !shiftLock;
  1375  0491  3040               	movlw	(0+1) shl (_shiftLock& (0+7))
  1376  0492  06FB               	xorwf	_shiftLock/(0+8),f
  1377                           
  1378                           ;main.c: 379: setPanel(shiftLock ? 0b00000110 : 0b00000010);
  1379  0493  1B7B               	btfsc	_shiftLock/(0+8),_shiftLock& (0+7)
  1380  0494  2C97               	goto	l1142
  1381  0495  3002               	movlw	2
  1382  0496  2C98               	goto	L6
  1383  0497                     l1142:	
  1384  0497  3006               	movlw	6
  1385  0498                     L6:	
  1386  0498  00A4               	movwf	_main$63
  1387  0499  3000               	movlw	0
  1388  049A  00A5               	movwf	_main$63+1
  1389  049B  0824               	movf	_main$63,w
  1390  049C  2305               	fcall	_setPanel
  1391                           
  1392                           ;main.c: 380: }
  1393                           ;main.c: 381: break;
  1394  049D  2CE7               	goto	l1166
  1395  049E                     l155:	
  1396                           ;main.c: 383: default:
  1397                           
  1398                           
  1399                           ;main.c: 384: if(!keyUp && scanCode > 0x0C && scanCode < 0x7E)
  1400  049E  1A7B               	btfsc	_keyUp/(0+8),_keyUp& (0+7)
  1401  049F  2CE7               	goto	l1166
  1402  04A0  300D               	movlw	13
  1403  04A1  027C               	subwf	_scanCode,w
  1404  04A2  1C03               	skipc
  1405  04A3  2CE7               	goto	l1166
  1406  04A4  307E               	movlw	126
  1407  04A5  027C               	subwf	_scanCode,w
  1408  04A6  1803               	skipnc
  1409  04A7  2CE7               	goto	l1166
  1410                           
  1411                           ;main.c: 385: {
  1412                           ;main.c: 386: scanCode -= 0x0D;
  1413  04A8  300D               	movlw	13
  1414  04A9  02FC               	subwf	_scanCode,f
  1415                           
  1416                           ;main.c: 387: if(ps2Config & = 0b00000001)
  1417  04AA  3001               	movlw	1
  1418  04AB  00F8               	movwf	??_main
  1419  04AC  0878               	movf	??_main,w
  1420  04AD  05A6               	andwf	main@ps2Config,f
  1421  04AE  1903               	btfsc	3,2
  1422  04AF  2CB4               	goto	l1154
  1423                           
  1424                           ;main.c: 388: scanCode += 0x71;
  1425  04B0  3071               	movlw	113
  1426  04B1  00F8               	movwf	??_main
  1427  04B2  0878               	movf	??_main,w
  1428  04B3  07FC               	addwf	_scanCode,f
  1429  04B4                     l1154:	
  1430                           
  1431                           ;main.c: 390: if(ctrl)
  1432  04B4  1D7B               	btfss	_ctrl/(0+8),_ctrl& (0+7)
  1433  04B5  2CBB               	goto	l158
  1434                           
  1435                           ;main.c: 391: ascii = ctrlAscii[scanCode];
  1436  04B6  087C               	movf	_scanCode,w
  1437  04B7  3E12               	addlw	low (_ctrlAscii| (0+32768))
  1438  04B8  0084               	movwf	4
  1439  04B9  3085               	movlw	high (_ctrlAscii| (0+32768))
  1440  04BA  2CC8               	goto	L9
  1441  04BB                     l158:	
  1442                           
  1443                           ;main.c: 392: else
  1444                           ;main.c: 393: if(shift | shiftLock)
  1445  04BB  1AFB               	btfsc	_shift/(0+8),_shift& (0+7)
  1446  04BC  2CBF               	goto	l1160
  1447  04BD  1F7B               	btfss	_shiftLock/(0+8),_shiftLock& (0+7)
  1448  04BE  2CC4               	goto	l1162
  1449  04BF                     l1160:	
  1450                           
  1451                           ;main.c: 394: ascii = shiftAscii[scanCode];
  1452  04BF  087C               	movf	_scanCode,w
  1453  04C0  3ED6               	addlw	low (_shiftAscii| (0+32768))
  1454  04C1  0084               	movwf	4
  1455  04C2  3086               	movlw	high (_shiftAscii| (0+32768))
  1456  04C3  2CC8               	goto	L9
  1457  04C4                     l1162:	
  1458                           
  1459                           ;main.c: 395: else
  1460                           ;main.c: 396: ascii = normalAscii[scanCode];
  1461  04C4  087C               	movf	_scanCode,w
  1462  04C5  3EF4               	addlw	low (_normalAscii| (0+32768))
  1463  04C6  0084               	movwf	4
  1464  04C7  3085               	movlw	high (_normalAscii| (0+32768))
  1465  04C8                     L9:	
  1466  04C8  1803               	skipnc
  1467  04C9  3E01               	addlw	1
  1468  04CA  00FF               	movwf	127
  1469  04CB  2500               	fcall	stringtab
  1470  04CC                     L8:	
  1471  04CC  00F8               	movwf	??_main
  1472  04CD  0878               	movf	??_main,w
  1473  04CE  00A7               	movwf	main@ascii
  1474                           
  1475                           ;main.c: 397: }
  1476                           ;main.c: 398: }
  1477  04CF  2CE7               	goto	l1166
  1478  04D0                     l1164:	
  1479  04D0  087C               	movf	_scanCode,w
  1480                           
  1481                           ; Switch size 1, requested type "space"
  1482                           ; Number of cases is 7, Range of values is 5 to 89
  1483                           ; switch strategies available:
  1484                           ; Name         Instructions Cycles
  1485                           ; simple_byte           22    12 (average)
  1486                           ; direct_byte           94     9 (fixed)
  1487                           ; jumptable            263     9 (fixed)
  1488                           ;	Chosen strategy is simple_byte
  1489  04D1  3A05               	xorlw	5	; case 5
  1490  04D2  1903               	skipnz
  1491  04D3  2C2D               	goto	l132
  1492  04D4  3A0C               	xorlw	12	; case 9
  1493  04D5  1903               	skipnz
  1494  04D6  2C55               	goto	l139
  1495  04D7  3A18               	xorlw	24	; case 17
  1496  04D8  1903               	skipnz
  1497  04D9  2C80               	goto	l145
  1498  04DA  3A03               	xorlw	3	; case 18
  1499  04DB  1903               	skipnz
  1500  04DC  2C85               	goto	l147
  1501  04DD  3A06               	xorlw	6	; case 20
  1502  04DE  1903               	skipnz
  1503  04DF  2C8A               	goto	l148
  1504  04E0  3A4C               	xorlw	76	; case 88
  1505  04E1  1903               	skipnz
  1506  04E2  2C8F               	goto	l149
  1507  04E3  3A01               	xorlw	1	; case 89
  1508  04E4  1903               	skipnz
  1509  04E5  2C85               	goto	l147
  1510  04E6  2C9E               	goto	l155
  1511  04E7                     l1166:	
  1512                           
  1513                           ;main.c: 402: if(ascii)
  1514  04E7  1283               	bcf	3,5	;RP0=0, select bank0
  1515  04E8  1303               	bcf	3,6	;RP1=0, select bank0
  1516  04E9  0827               	movf	main@ascii,w
  1517  04EA  1903               	btfsc	3,2
  1518  04EB  2CF9               	goto	l164
  1519                           
  1520                           ;main.c: 403: {
  1521                           ;main.c: 404: PORTB = ~ascii;
  1522  04EC  0927               	comf	main@ascii,w
  1523  04ED  0086               	movwf	6	;volatile
  1524                           
  1525                           ;main.c: 405: _delay((unsigned long)((1500)*(4000000/4000000.0)));
  1526  04EE  30D6               	movlw	214
  1527  04EF  00F8               	movwf	??_main
  1528  04F0                     u1237:	
  1529  04F0  2CF1               	nop2
  1530  04F1  2CF2               	nop2
  1531  04F2  0BF8               	decfsz	??_main,f
  1532  04F3  2CF0               	goto	u1237
  1533  04F4  0000               	nop
  1534                           
  1535                           ;main.c: 406: RB7 = 0;
  1536  04F5  1283               	bcf	3,5	;RP0=0, select bank0
  1537  04F6  1303               	bcf	3,6	;RP1=0, select bank0
  1538  04F7  1386               	bcf	6,7	;volatile
  1539                           
  1540                           ;main.c: 407: }
  1541  04F8  2BFE               	goto	l117
  1542  04F9                     l164:	
  1543                           
  1544                           ;main.c: 408: else
  1545                           ;main.c: 409: if(alt & altGr)
  1546  04F9  187B               	btfsc	_alt/(0+8),_alt& (0+7)
  1547  04FA  1CFB               	btfss	_altGr/(0+8),_altGr& (0+7)
  1548  04FB  2CFE               	goto	l166
  1549                           
  1550                           ;main.c: 410: RA2 = 0;
  1551  04FC  1105               	bcf	5,2	;volatile
  1552  04FD  2BFE               	goto	l117
  1553  04FE                     l166:	
  1554                           
  1555                           ;main.c: 411: else
  1556                           ;main.c: 412: RA2 = 1;
  1557  04FE  1505               	bsf	5,2	;volatile
  1558                           
  1559                           ;main.c: 413: }
  1560  04FF  2BFE               	goto	l117
  1561  0500                     __end_of_main:	
  1562                           
  1563                           	psect	text1
  1564  031B                     __ptext1:	
  1565 ;; *************** function _flashPanel *****************
  1566 ;; Defined at:
  1567 ;;		line 251 in file "main.c"
  1568 ;; Parameters:    Size  Location     Type
  1569 ;;  count           1    wreg     unsigned char 
  1570 ;; Auto vars:     Size  Location     Type
  1571 ;;  count           1    7[COMMON] unsigned char 
  1572 ;; Return value:  Size  Location     Type
  1573 ;;		None               void
  1574 ;; Registers used:
  1575 ;;		wreg, status,2, status,0, pclath, cstack
  1576 ;; Tracked objects:
  1577 ;;		On entry : 0/0
  1578 ;;		On exit  : 0/0
  1579 ;;		Unchanged: 0/0
  1580 ;; Data sizes:     COMMON   BANK0   BANK1   BANK2
  1581 ;;      Params:         0       0       0       0
  1582 ;;      Locals:         1       0       0       0
  1583 ;;      Temps:          2       0       0       0
  1584 ;;      Totals:         3       0       0       0
  1585 ;;Total ram usage:        3 bytes
  1586 ;; Hardware stack levels used:    1
  1587 ;; Hardware stack levels required when called:    3
  1588 ;; This function calls:
  1589 ;;		_setPanel
  1590 ;; This function is called by:
  1591 ;;		_main
  1592 ;; This function uses a non-reentrant model
  1593 ;;
  1594                           
  1595                           
  1596                           ;psect for function _flashPanel
  1597  031B                     _flashPanel:	
  1598                           
  1599                           ;incstack = 0
  1600                           ; Regs used in _flashPanel: [wreg+status,2+status,0+pclath+cstack]
  1601                           ;flashPanel@count stored from wreg
  1602  031B  00F7               	movwf	flashPanel@count
  1603  031C                     l108:	
  1604                           ;main.c: 253: do
  1605                           
  1606                           
  1607                           ;main.c: 254: {
  1608                           ;main.c: 255: setPanel(0b00000111);
  1609  031C  3007               	movlw	7
  1610  031D  2305               	fcall	_setPanel
  1611                           
  1612                           ;main.c: 256: _delay((unsigned long)((100)*(4000000/4000.0)));
  1613  031E  3082               	movlw	130
  1614  031F  00F6               	movwf	??_flashPanel+1
  1615  0320  30DD               	movlw	221
  1616  0321  00F5               	movwf	??_flashPanel
  1617  0322                     u1247:	
  1618  0322  0BF5               	decfsz	??_flashPanel,f
  1619  0323  2B22               	goto	u1247
  1620  0324  0BF6               	decfsz	??_flashPanel+1,f
  1621  0325  2B22               	goto	u1247
  1622  0326  2B27               	nop2
  1623                           
  1624                           ;main.c: 257: setPanel(0x00000000);
  1625  0327  3000               	movlw	0
  1626  0328  2305               	fcall	_setPanel
  1627                           
  1628                           ;main.c: 258: _delay((unsigned long)((100)*(4000000/4000.0)));
  1629  0329  3082               	movlw	130
  1630  032A  00F6               	movwf	??_flashPanel+1
  1631  032B  30DD               	movlw	221
  1632  032C  00F5               	movwf	??_flashPanel
  1633  032D                     u1257:	
  1634  032D  0BF5               	decfsz	??_flashPanel,f
  1635  032E  2B2D               	goto	u1257
  1636  032F  0BF6               	decfsz	??_flashPanel+1,f
  1637  0330  2B2D               	goto	u1257
  1638  0331  2B32               	nop2
  1639                           
  1640                           ;main.c: 259: } while(count--);
  1641  0332  3001               	movlw	1
  1642  0333  02F7               	subwf	flashPanel@count,f
  1643  0334  0877               	movf	flashPanel@count,w
  1644  0335  3AFF               	xorlw	255
  1645  0336  1903               	btfsc	3,2
  1646                           
  1647                           ;main.c: 261: return;
  1648  0337  0008               	return
  1649  0338  2B1C               	goto	l108
  1650  0339                     __end_of_flashPanel:	
  1651                           
  1652                           	psect	text2
  1653  0305                     __ptext2:	
  1654 ;; *************** function _setPanel *****************
  1655 ;; Defined at:
  1656 ;;		line 230 in file "main.c"
  1657 ;; Parameters:    Size  Location     Type
  1658 ;;  leds            1    wreg     unsigned char 
  1659 ;; Auto vars:     Size  Location     Type
  1660 ;;  leds            1    4[COMMON] unsigned char 
  1661 ;; Return value:  Size  Location     Type
  1662 ;;		None               void
  1663 ;; Registers used:
  1664 ;;		wreg, status,2, status,0, pclath, cstack
  1665 ;; Tracked objects:
  1666 ;;		On entry : 0/0
  1667 ;;		On exit  : 0/0
  1668 ;;		Unchanged: 0/0
  1669 ;; Data sizes:     COMMON   BANK0   BANK1   BANK2
  1670 ;;      Params:         0       0       0       0
  1671 ;;      Locals:         1       0       0       0
  1672 ;;      Temps:          1       0       0       0
  1673 ;;      Totals:         2       0       0       0
  1674 ;;Total ram usage:        2 bytes
  1675 ;; Hardware stack levels used:    1
  1676 ;; Hardware stack levels required when called:    2
  1677 ;; This function calls:
  1678 ;;		_readScanCode
  1679 ;;		_sendCommandCode
  1680 ;; This function is called by:
  1681 ;;		_flashPanel
  1682 ;;		_main
  1683 ;; This function uses a non-reentrant model
  1684 ;;
  1685                           
  1686                           
  1687                           ;psect for function _setPanel
  1688  0305                     _setPanel:	
  1689                           
  1690                           ;incstack = 0
  1691                           ; Regs used in _setPanel: [wreg+status,2+status,0+pclath+cstack]
  1692                           ;setPanel@leds stored from wreg
  1693  0305  00F4               	movwf	setPanel@leds
  1694                           
  1695                           ;main.c: 232: commandCode = 0xED;
  1696  0306  30ED               	movlw	237
  1697  0307  00F3               	movwf	??_setPanel
  1698  0308  0873               	movf	??_setPanel,w
  1699  0309  00FD               	movwf	_commandCode
  1700  030A                     l990:	
  1701                           ;main.c: 233: do
  1702                           
  1703                           
  1704                           ;main.c: 234: {
  1705                           ;main.c: 235: sendCommandCode();
  1706  030A  2396               	fcall	_sendCommandCode
  1707                           
  1708                           ;main.c: 236: readScanCode();
  1709  030B  2360               	fcall	_readScanCode
  1710                           
  1711                           ;main.c: 237: } while(scanCode != 0xFA);
  1712  030C  087C               	movf	_scanCode,w
  1713  030D  3AFA               	xorlw	250
  1714  030E  1D03               	skipz
  1715  030F  2B0A               	goto	l990
  1716                           
  1717                           ;main.c: 239: commandCode = leds;
  1718  0310  0874               	movf	setPanel@leds,w
  1719  0311  00F3               	movwf	??_setPanel
  1720  0312  0873               	movf	??_setPanel,w
  1721  0313  00FD               	movwf	_commandCode
  1722  0314                     l996:	
  1723                           ;main.c: 240: do
  1724                           
  1725                           
  1726                           ;main.c: 241: {
  1727                           ;main.c: 242: sendCommandCode();
  1728  0314  2396               	fcall	_sendCommandCode
  1729                           
  1730                           ;main.c: 243: readScanCode();
  1731  0315  2360               	fcall	_readScanCode
  1732                           
  1733                           ;main.c: 244: } while(scanCode != 0xFA);
  1734  0316  087C               	movf	_scanCode,w
  1735  0317  3AFA               	xorlw	250
  1736  0318  1903               	btfsc	3,2
  1737                           
  1738                           ;main.c: 246: return;
  1739  0319  0008               	return
  1740  031A  2B14               	goto	l996
  1741  031B                     __end_of_setPanel:	
  1742                           
  1743                           	psect	text3
  1744  0396                     __ptext3:	
  1745 ;; *************** function _sendCommandCode *****************
  1746 ;; Defined at:
  1747 ;;		line 151 in file "main.c"
  1748 ;; Parameters:    Size  Location     Type
  1749 ;;		None
  1750 ;; Auto vars:     Size  Location     Type
  1751 ;;  parity          1    2[COMMON] unsigned char 
  1752 ;;  n               1    1[COMMON] unsigned char 
  1753 ;; Return value:  Size  Location     Type
  1754 ;;		None               void
  1755 ;; Registers used:
  1756 ;;		wreg, status,2, status,0, pclath, cstack
  1757 ;; Tracked objects:
  1758 ;;		On entry : 0/0
  1759 ;;		On exit  : 0/0
  1760 ;;		Unchanged: 0/0
  1761 ;; Data sizes:     COMMON   BANK0   BANK1   BANK2
  1762 ;;      Params:         0       0       0       0
  1763 ;;      Locals:         2       0       0       0
  1764 ;;      Temps:          1       0       0       0
  1765 ;;      Totals:         3       0       0       0
  1766 ;;Total ram usage:        3 bytes
  1767 ;; Hardware stack levels used:    1
  1768 ;; Hardware stack levels required when called:    1
  1769 ;; This function calls:
  1770 ;;		_clockCycle
  1771 ;; This function is called by:
  1772 ;;		_setPanel
  1773 ;; This function uses a non-reentrant model
  1774 ;;
  1775                           
  1776                           
  1777                           ;psect for function _sendCommandCode
  1778  0396                     _sendCommandCode:	
  1779                           
  1780                           ;main.c: 153: unsigned char n = 9;
  1781                           
  1782                           ;incstack = 0
  1783                           ; Regs used in _sendCommandCode: [wreg+status,2+status,0+pclath+cstack]
  1784  0396  3009               	movlw	9
  1785  0397  00F0               	movwf	??_sendCommandCode
  1786  0398  0870               	movf	??_sendCommandCode,w
  1787  0399  00F1               	movwf	sendCommandCode@n
  1788                           
  1789                           ;main.c: 154: unsigned char parity = 1;
  1790  039A  01F2               	clrf	sendCommandCode@parity
  1791  039B  0AF2               	incf	sendCommandCode@parity,f
  1792                           
  1793                           ;main.c: 156: RA1 = 0; TRISA1 = 0;
  1794  039C  1283               	bcf	3,5	;RP0=0, select bank0
  1795  039D  1303               	bcf	3,6	;RP1=0, select bank0
  1796  039E  1085               	bcf	5,1	;volatile
  1797  039F  1683               	bsf	3,5	;RP0=1, select bank1
  1798  03A0  1303               	bcf	3,6	;RP1=0, select bank1
  1799  03A1  1085               	bcf	5,1	;volatile
  1800                           
  1801                           ;main.c: 157: RA0 = 0; TRISA0 = 0;
  1802  03A2  1283               	bcf	3,5	;RP0=0, select bank0
  1803  03A3  1303               	bcf	3,6	;RP1=0, select bank0
  1804  03A4  1005               	bcf	5,0	;volatile
  1805  03A5  1683               	bsf	3,5	;RP0=1, select bank1
  1806  03A6  1303               	bcf	3,6	;RP1=0, select bank1
  1807  03A7  1005               	bcf	5,0	;volatile
  1808                           
  1809                           ;main.c: 158: _delay((unsigned long)((100)*(4000000/4000000.0)));
  1810  03A8  3021               	movlw	33
  1811  03A9  00F0               	movwf	??_sendCommandCode
  1812  03AA                     u1267:	
  1813  03AA  0BF0               	decfsz	??_sendCommandCode,f
  1814  03AB  2BAA               	goto	u1267
  1815                           
  1816                           ;main.c: 159: TRISA0 = 1;
  1817  03AC  1683               	bsf	3,5	;RP0=1, select bank1
  1818  03AD  1303               	bcf	3,6	;RP1=0, select bank1
  1819  03AE  1405               	bsf	5,0	;volatile
  1820  03AF                     l60:	
  1821                           ;main.c: 160: while(RA0);
  1822                           
  1823  03AF  1283               	bcf	3,5	;RP0=0, select bank0
  1824  03B0  1C05               	btfss	5,0	;volatile
  1825  03B1  2BC5               	goto	l946
  1826  03B2  2BAF               	goto	l60
  1827  03B3                     l64:	
  1828                           ;main.c: 162: while(--n)
  1829                           
  1830                           
  1831                           ;main.c: 163: {
  1832                           ;main.c: 164: if(commandCode & 0b00000001)
  1833  03B3  1C7D               	btfss	_commandCode,0
  1834  03B4  2BB9               	goto	l65
  1835                           
  1836                           ;main.c: 165: RA1 = 1;
  1837  03B5  1283               	bcf	3,5	;RP0=0, select bank0
  1838  03B6  1303               	bcf	3,6	;RP1=0, select bank0
  1839  03B7  1485               	bsf	5,1	;volatile
  1840  03B8  2BBC               	goto	l938
  1841  03B9                     l65:	
  1842                           
  1843                           ;main.c: 166: else
  1844                           ;main.c: 167: RA1 = 0;
  1845  03B9  1283               	bcf	3,5	;RP0=0, select bank0
  1846  03BA  1303               	bcf	3,6	;RP1=0, select bank0
  1847  03BB  1085               	bcf	5,1	;volatile
  1848  03BC                     l938:	
  1849                           
  1850                           ;main.c: 168: clockCycle();
  1851  03BC  27F3               	fcall	_clockCycle
  1852                           
  1853                           ;main.c: 169: if(commandCode & 0b00000001)
  1854  03BD  1C7D               	btfss	_commandCode,0
  1855  03BE  2BC3               	goto	l944
  1856                           
  1857                           ;main.c: 170: ++parity;
  1858  03BF  3001               	movlw	1
  1859  03C0  00F0               	movwf	??_sendCommandCode
  1860  03C1  0870               	movf	??_sendCommandCode,w
  1861  03C2  07F2               	addwf	sendCommandCode@parity,f
  1862  03C3                     l944:	
  1863                           
  1864                           ;main.c: 171: commandCode >>= 1;
  1865  03C3  1003               	clrc
  1866  03C4  0CFD               	rrf	_commandCode,f
  1867  03C5                     l946:	
  1868  03C5  3001               	movlw	1
  1869  03C6  02F1               	subwf	sendCommandCode@n,f
  1870  03C7  1D03               	btfss	3,2
  1871  03C8  2BB3               	goto	l64
  1872                           
  1873                           ;main.c: 172: }
  1874                           ;main.c: 174: if(parity & 0b00000001)
  1875  03C9  1C72               	btfss	sendCommandCode@parity,0
  1876  03CA  2BCF               	goto	l69
  1877                           
  1878                           ;main.c: 175: RA1 = 1;
  1879  03CB  1283               	bcf	3,5	;RP0=0, select bank0
  1880  03CC  1303               	bcf	3,6	;RP1=0, select bank0
  1881  03CD  1485               	bsf	5,1	;volatile
  1882  03CE  2BD2               	goto	l950
  1883  03CF                     l69:	
  1884                           
  1885                           ;main.c: 176: else
  1886                           ;main.c: 177: RA1 = 0;
  1887  03CF  1283               	bcf	3,5	;RP0=0, select bank0
  1888  03D0  1303               	bcf	3,6	;RP1=0, select bank0
  1889  03D1  1085               	bcf	5,1	;volatile
  1890  03D2                     l950:	
  1891                           
  1892                           ;main.c: 178: clockCycle();
  1893  03D2  27F3               	fcall	_clockCycle
  1894                           
  1895                           ;main.c: 180: TRISA1 = 1;
  1896  03D3  1683               	bsf	3,5	;RP0=1, select bank1
  1897  03D4  1303               	bcf	3,6	;RP1=0, select bank1
  1898  03D5  1485               	bsf	5,1	;volatile
  1899  03D6                     l71:	
  1900                           ;main.c: 181: while(RA1);
  1901                           
  1902  03D6  1283               	bcf	3,5	;RP0=0, select bank0
  1903  03D7  1885               	btfsc	5,1	;volatile
  1904  03D8  2BD6               	goto	l71
  1905  03D9                     l74:	
  1906                           ;main.c: 182: while(RA0);
  1907                           
  1908  03D9  1805               	btfsc	5,0	;volatile
  1909  03DA  2BD9               	goto	l74
  1910  03DB                     l77:	
  1911                           ;main.c: 183: while(!RA1 || !RA0);
  1912                           
  1913  03DB  1885               	btfsc	5,1	;volatile
  1914  03DC  1C05               	btfss	5,0	;volatile
  1915  03DD  2BDB               	goto	l77
  1916                           
  1917                           ;main.c: 184: RA0 = 0; TRISA0 = 0;
  1918  03DE  1005               	bcf	5,0	;volatile
  1919  03DF  1683               	bsf	3,5	;RP0=1, select bank1
  1920  03E0  1303               	bcf	3,6	;RP1=0, select bank1
  1921  03E1  1005               	bcf	5,0	;volatile
  1922                           
  1923                           ;main.c: 186: return;
  1924  03E2  0008               	return
  1925  03E3                     __end_of_sendCommandCode:	
  1926                           
  1927                           	psect	text4
  1928  0360                     __ptext4:	
  1929 ;; *************** function _readScanCode *****************
  1930 ;; Defined at:
  1931 ;;		line 192 in file "main.c"
  1932 ;; Parameters:    Size  Location     Type
  1933 ;;		None
  1934 ;; Auto vars:     Size  Location     Type
  1935 ;;  n               1    1[COMMON] unsigned char 
  1936 ;; Return value:  Size  Location     Type
  1937 ;;		None               void
  1938 ;; Registers used:
  1939 ;;		wreg, status,2, status,0, pclath, cstack
  1940 ;; Tracked objects:
  1941 ;;		On entry : 0/0
  1942 ;;		On exit  : 0/0
  1943 ;;		Unchanged: 0/0
  1944 ;; Data sizes:     COMMON   BANK0   BANK1   BANK2
  1945 ;;      Params:         0       0       0       0
  1946 ;;      Locals:         1       0       0       0
  1947 ;;      Temps:          1       0       0       0
  1948 ;;      Totals:         2       0       0       0
  1949 ;;Total ram usage:        2 bytes
  1950 ;; Hardware stack levels used:    1
  1951 ;; Hardware stack levels required when called:    1
  1952 ;; This function calls:
  1953 ;;		_clockCycle
  1954 ;; This function is called by:
  1955 ;;		_setPanel
  1956 ;;		_main
  1957 ;; This function uses a non-reentrant model
  1958 ;;
  1959                           
  1960                           
  1961                           ;psect for function _readScanCode
  1962  0360                     _readScanCode:	
  1963                           
  1964                           ;main.c: 194: unsigned char n;
  1965                           ;main.c: 196: keyUp = extendedKey = 0;
  1966                           
  1967                           ;incstack = 0
  1968                           ; Regs used in _readScanCode: [wreg+status,2+status,0+pclath+cstack]
  1969  0360  11FB               	bcf	_extendedKey/(0+8),_extendedKey& (0+7)
  1970  0361  127B               	bcf	_keyUp/(0+8),_keyUp& (0+7)
  1971  0362                     l958:	
  1972                           ;main.c: 198: do
  1973                           
  1974                           
  1975                           ;main.c: 199: {
  1976                           ;main.c: 200: n = 9; scanCode = 0;
  1977  0362  3009               	movlw	9
  1978  0363  00F0               	movwf	??_readScanCode
  1979  0364  0870               	movf	??_readScanCode,w
  1980  0365  00F1               	movwf	readScanCode@n
  1981  0366  01FC               	clrf	_scanCode
  1982                           
  1983                           ;main.c: 202: TRISA0 = 1;
  1984  0367  1683               	bsf	3,5	;RP0=1, select bank1
  1985  0368  1303               	bcf	3,6	;RP1=0, select bank1
  1986  0369  1405               	bsf	5,0	;volatile
  1987  036A                     l84:	
  1988                           ;main.c: 203: while(RA0);
  1989                           
  1990  036A  1283               	bcf	3,5	;RP0=0, select bank0
  1991  036B  1C05               	btfss	5,0	;volatile
  1992  036C  2B75               	goto	l972
  1993  036D  2B6A               	goto	l84
  1994  036E                     l964:	
  1995                           ;main.c: 205: while(--n)
  1996                           
  1997                           
  1998                           ;main.c: 206: {
  1999                           ;main.c: 207: scanCode >>= 1;
  2000  036E  1003               	clrc
  2001  036F  0CFC               	rrf	_scanCode,f
  2002                           
  2003                           ;main.c: 208: clockCycle();
  2004  0370  27F3               	fcall	_clockCycle
  2005                           
  2006                           ;main.c: 209: if(RA1) scanCode |= 0b10000000;
  2007  0371  1283               	bcf	3,5	;RP0=0, select bank0
  2008  0372  1303               	bcf	3,6	;RP1=0, select bank0
  2009  0373  1885               	btfsc	5,1	;volatile
  2010  0374  17FC               	bsf	_scanCode,7
  2011  0375                     l972:	
  2012  0375  3001               	movlw	1
  2013  0376  02F1               	subwf	readScanCode@n,f
  2014  0377  1D03               	btfss	3,2
  2015  0378  2B6E               	goto	l964
  2016                           
  2017                           ;main.c: 210: }
  2018                           ;main.c: 211: clockCycle();
  2019  0379  27F3               	fcall	_clockCycle
  2020                           
  2021                           ;main.c: 212: clockCycle();
  2022  037A  27F3               	fcall	_clockCycle
  2023  037B                     l91:	
  2024                           ;main.c: 214: while(!RA0);
  2025                           
  2026  037B  1283               	bcf	3,5	;RP0=0, select bank0
  2027  037C  1303               	bcf	3,6	;RP1=0, select bank0
  2028  037D  1C05               	btfss	5,0	;volatile
  2029  037E  2B7B               	goto	l91
  2030                           
  2031                           ;main.c: 215: RA0 = 0; TRISA0 = 0;
  2032  037F  1005               	bcf	5,0	;volatile
  2033  0380  1683               	bsf	3,5	;RP0=1, select bank1
  2034  0381  1303               	bcf	3,6	;RP1=0, select bank1
  2035  0382  1005               	bcf	5,0	;volatile
  2036                           
  2037                           ;main.c: 217: if(scanCode == 0xF0)
  2038  0383  087C               	movf	_scanCode,w
  2039  0384  3AF0               	xorlw	240
  2040  0385  1D03               	skipz
  2041  0386  2B89               	goto	l980
  2042                           
  2043                           ;main.c: 218: keyUp = 1;
  2044  0387  167B               	bsf	_keyUp/(0+8),_keyUp& (0+7)
  2045  0388  2B8D               	goto	l984
  2046  0389                     l980:	
  2047                           
  2048                           ;main.c: 219: else
  2049                           ;main.c: 220: if(scanCode == 0xE0)
  2050  0389  087C               	movf	_scanCode,w
  2051  038A  3AE0               	xorlw	224
  2052  038B  1903               	btfsc	3,2
  2053                           
  2054                           ;main.c: 221: extendedKey = 1;
  2055  038C  15FB               	bsf	_extendedKey/(0+8),_extendedKey& (0+7)
  2056  038D                     l984:	
  2057                           
  2058                           ;main.c: 222: } while(scanCode == 0xE0 || scanCode == 0xF0);
  2059  038D  087C               	movf	_scanCode,w
  2060  038E  3AE0               	xorlw	224
  2061  038F  1903               	skipnz
  2062  0390  2B62               	goto	l958
  2063  0391  087C               	movf	_scanCode,w
  2064  0392  3AF0               	xorlw	240
  2065  0393  1D03               	btfss	3,2
  2066                           
  2067                           ;main.c: 224: return;
  2068  0394  0008               	return
  2069  0395  2B62               	goto	l958
  2070  0396                     __end_of_readScanCode:	
  2071                           
  2072                           	psect	text5
  2073  07F3                     __ptext5:	
  2074 ;; *************** function _clockCycle *****************
  2075 ;; Defined at:
  2076 ;;		line 140 in file "main.c"
  2077 ;; Parameters:    Size  Location     Type
  2078 ;;		None
  2079 ;; Auto vars:     Size  Location     Type
  2080 ;;		None
  2081 ;; Return value:  Size  Location     Type
  2082 ;;		None               void
  2083 ;; Registers used:
  2084 ;;		None
  2085 ;; Tracked objects:
  2086 ;;		On entry : 0/0
  2087 ;;		On exit  : 0/0
  2088 ;;		Unchanged: 0/0
  2089 ;; Data sizes:     COMMON   BANK0   BANK1   BANK2
  2090 ;;      Params:         0       0       0       0
  2091 ;;      Locals:         0       0       0       0
  2092 ;;      Temps:          0       0       0       0
  2093 ;;      Totals:         0       0       0       0
  2094 ;;Total ram usage:        0 bytes
  2095 ;; Hardware stack levels used:    1
  2096 ;; This function calls:
  2097 ;;		Nothing
  2098 ;; This function is called by:
  2099 ;;		_sendCommandCode
  2100 ;;		_readScanCode
  2101 ;; This function uses a non-reentrant model
  2102 ;;
  2103                           
  2104                           
  2105                           ;psect for function _clockCycle
  2106  07F3                     _clockCycle:	
  2107  07F3                     l51:	
  2108                           ;main.c: 142: while(!RA0);
  2109                           
  2110                           ;incstack = 0
  2111                           ; Regs used in _clockCycle: []
  2112                           
  2113  07F3  1283               	bcf	3,5	;RP0=0, select bank0
  2114  07F4  1303               	bcf	3,6	;RP1=0, select bank0
  2115  07F5  1C05               	btfss	5,0	;volatile
  2116  07F6  2FF3               	goto	l51
  2117  07F7                     l54:	
  2118                           ;main.c: 143: while(RA0);
  2119                           
  2120  07F7  1C05               	btfss	5,0	;volatile
  2121                           
  2122                           ;main.c: 145: return;
  2123  07F8  0008               	return
  2124  07F9  2FF7               	goto	l54
  2125  07FA                     __end_of_clockCycle:	
  2126                           
  2127                           	psect	text6
  2128  02FA                     __ptext6:	
  2129 ;; *************** function ___eetoc *****************
  2130 ;; Defined at:
  2131 ;;		line 48 in file "/opt/microchip/xc8/v1.31/sources/pic/eeprom.c"
  2132 ;; Parameters:    Size  Location     Type
  2133 ;;  addr            1    wreg     PTR eeprom void 
  2134 ;;		 -> ps2Default(1), 
  2135 ;; Auto vars:     Size  Location     Type
  2136 ;;  addr            1    6[COMMON] PTR eeprom void 
  2137 ;;		 -> ps2Default(1), 
  2138 ;;  data            1    7[COMMON] unsigned char 
  2139 ;; Return value:  Size  Location     Type
  2140 ;;                  1    wreg      unsigned char 
  2141 ;; Registers used:
  2142 ;;		wreg, fsr0l, fsr0h, status,2, status,0, pclath, cstack
  2143 ;; Tracked objects:
  2144 ;;		On entry : 0/0
  2145 ;;		On exit  : 0/0
  2146 ;;		Unchanged: 0/0
  2147 ;; Data sizes:     COMMON   BANK0   BANK1   BANK2
  2148 ;;      Params:         0       0       0       0
  2149 ;;      Locals:         2       0       0       0
  2150 ;;      Temps:          1       0       0       0
  2151 ;;      Totals:         3       0       0       0
  2152 ;;Total ram usage:        3 bytes
  2153 ;; Hardware stack levels used:    1
  2154 ;; Hardware stack levels required when called:    1
  2155 ;; This function calls:
  2156 ;;		_eecpymem
  2157 ;; This function is called by:
  2158 ;;		_main
  2159 ;; This function uses a non-reentrant model
  2160 ;;
  2161                           
  2162                           
  2163                           ;psect for function ___eetoc
  2164  02FA                     ___eetoc:	
  2165                           
  2166                           ;incstack = 0
  2167                           ; Regs used in ___eetoc: [wreg-fsr0h+status,2+status,0+pclath+cstack]
  2168                           ;___eetoc@addr stored from wreg
  2169  02FA  00F6               	movwf	___eetoc@addr
  2170  02FB  0876               	movf	___eetoc@addr,w
  2171  02FC  00F5               	movwf	??___eetoc
  2172  02FD  0875               	movf	??___eetoc,w
  2173  02FE  00F0               	movwf	eecpymem@from
  2174  02FF  01F1               	clrf	eecpymem@size
  2175  0300  0AF1               	incf	eecpymem@size,f
  2176  0301  3077               	movlw	___eetoc@data& (0+255)
  2177  0302  2339               	fcall	_eecpymem
  2178  0303  0877               	movf	___eetoc@data,w
  2179  0304  0008               	return
  2180  0305                     __end_of___eetoc:	
  2181                           
  2182                           	psect	text7
  2183  0339                     __ptext7:	
  2184 ;; *************** function _eecpymem *****************
  2185 ;; Defined at:
  2186 ;;		line 6 in file "/opt/microchip/xc8/v1.31/sources/pic/eeprom.c"
  2187 ;; Parameters:    Size  Location     Type
  2188 ;;  to              1    wreg     PTR volatile unsigned ch
  2189 ;;		 -> __eetofl@data(3), __eetoft@data(3), __eetol@data(4), __eetom@data(3), 
  2190 ;;		 -> __eetoi@data(2), __eetoc@data(1), 
  2191 ;;  from            1    0[COMMON] PTR eeprom unsigned char
  2192 ;;		 -> ps2Default(1), 
  2193 ;;  size            1    1[COMMON] unsigned char 
  2194 ;; Auto vars:     Size  Location     Type
  2195 ;;  to              1    4[COMMON] PTR volatile unsigned ch
  2196 ;;		 -> __eetofl@data(3), __eetoft@data(3), __eetol@data(4), __eetom@data(3), 
  2197 ;;		 -> __eetoi@data(2), __eetoc@data(1), 
  2198 ;;  cp              1    3[COMMON] PTR volatile unsigned ch
  2199 ;;		 -> __eetofl@data(3), __eetoft@data(3), __eetol@data(4), __eetom@data(3), 
  2200 ;;		 -> __eetoi@data(2), __eetoc@data(1), 
  2201 ;; Return value:  Size  Location     Type
  2202 ;;		None               void
  2203 ;; Registers used:
  2204 ;;		wreg, fsr0l, fsr0h, status,2, status,0
  2205 ;; Tracked objects:
  2206 ;;		On entry : 0/0
  2207 ;;		On exit  : 0/0
  2208 ;;		Unchanged: 0/0
  2209 ;; Data sizes:     COMMON   BANK0   BANK1   BANK2
  2210 ;;      Params:         2       0       0       0
  2211 ;;      Locals:         2       0       0       0
  2212 ;;      Temps:          1       0       0       0
  2213 ;;      Totals:         5       0       0       0
  2214 ;;Total ram usage:        5 bytes
  2215 ;; Hardware stack levels used:    1
  2216 ;; This function calls:
  2217 ;;		Nothing
  2218 ;; This function is called by:
  2219 ;;		___eetoc
  2220 ;; This function uses a non-reentrant model
  2221 ;;
  2222                           
  2223                           
  2224                           ;psect for function _eecpymem
  2225  0339                     _eecpymem:	
  2226                           
  2227                           ;incstack = 0
  2228                           ; Regs used in _eecpymem: [wreg-fsr0h+status,2+status,0]
  2229                           ;eecpymem@to stored from wreg
  2230  0339  00F4               	movwf	eecpymem@to
  2231  033A  0874               	movf	eecpymem@to,w
  2232  033B  00F2               	movwf	??_eecpymem
  2233  033C  0872               	movf	??_eecpymem,w
  2234  033D  00F3               	movwf	eecpymem@cp
  2235  033E                     l190:	
  2236  033E  1683               	bsf	3,5	;RP0=1, select bank1
  2237  033F  1303               	bcf	3,6	;RP1=0, select bank1
  2238  0340  189C               	btfsc	28,1	;volsfr
  2239  0341  2B3E               	goto	l190
  2240  0342  0870               	movf	eecpymem@from,w
  2241  0343  009B               	movwf	27	;volatile
  2242  0344                     l1014:	
  2243  0344  3001               	movlw	1
  2244  0345  02F1               	subwf	eecpymem@size,f
  2245  0346  0871               	movf	eecpymem@size,w
  2246  0347  3AFF               	xorlw	255
  2247  0348  1903               	btfsc	3,2
  2248  0349  0008               	return
  2249  034A                     l195:	
  2250  034A  189C               	btfsc	28,1	;volsfr
  2251  034B  2B4A               	goto	l195
  2252  034C  307F               	movlw	127
  2253  034D  00F2               	movwf	??_eecpymem
  2254  034E  0872               	movf	??_eecpymem,w
  2255  034F  059C               	andwf	28,f	;volsfr
  2256  0350  141C               	bsf	28,0	;volsfr
  2257  0351  081A               	movf	26,w	;volatile
  2258  0352  00F2               	movwf	??_eecpymem
  2259  0353  0873               	movf	eecpymem@cp,w
  2260  0354  0084               	movwf	4
  2261  0355  0872               	movf	??_eecpymem,w
  2262  0356  0080               	movwf	0
  2263  0357  3001               	movlw	1
  2264  0358  00F2               	movwf	??_eecpymem
  2265  0359  0872               	movf	??_eecpymem,w
  2266  035A  07F3               	addwf	eecpymem@cp,f
  2267  035B  3001               	movlw	1
  2268  035C  00F2               	movwf	??_eecpymem
  2269  035D  0872               	movf	??_eecpymem,w
  2270  035E  079B               	addwf	27,f	;volatile
  2271  035F  2B44               	goto	l1014
  2272  0360                     __end_of_eecpymem:	
  2273                           
  2274                           	psect	text8
  2275  02F0                     __ptext8:	
  2276 ;; *************** function ___ctoee *****************
  2277 ;; Defined at:
  2278 ;;		line 80 in file "/opt/microchip/xc8/v1.31/sources/pic/eeprom.c"
  2279 ;; Parameters:    Size  Location     Type
  2280 ;;  addr            1    wreg     PTR eeprom void 
  2281 ;;		 -> ps2Default(1), 
  2282 ;;  data            1    5[COMMON] unsigned char 
  2283 ;; Auto vars:     Size  Location     Type
  2284 ;;  addr            1    7[COMMON] PTR eeprom void 
  2285 ;;		 -> ps2Default(1), 
  2286 ;; Return value:  Size  Location     Type
  2287 ;;                  1    wreg      unsigned char 
  2288 ;; Registers used:
  2289 ;;		wreg, fsr0l, fsr0h, status,2, status,0, pclath, cstack
  2290 ;; Tracked objects:
  2291 ;;		On entry : 0/0
  2292 ;;		On exit  : 0/0
  2293 ;;		Unchanged: 0/0
  2294 ;; Data sizes:     COMMON   BANK0   BANK1   BANK2
  2295 ;;      Params:         1       0       0       0
  2296 ;;      Locals:         1       0       0       0
  2297 ;;      Temps:          1       0       0       0
  2298 ;;      Totals:         3       0       0       0
  2299 ;;Total ram usage:        3 bytes
  2300 ;; Hardware stack levels used:    1
  2301 ;; Hardware stack levels required when called:    1
  2302 ;; This function calls:
  2303 ;;		_memcpyee
  2304 ;; This function is called by:
  2305 ;;		_main
  2306 ;; This function uses a non-reentrant model
  2307 ;;
  2308                           
  2309                           
  2310                           ;psect for function ___ctoee
  2311  02F0                     ___ctoee:	
  2312                           
  2313                           ;incstack = 0
  2314                           ; Regs used in ___ctoee: [wreg-fsr0h+status,2+status,0+pclath+cstack]
  2315                           ;___ctoee@addr stored from wreg
  2316  02F0  00F7               	movwf	___ctoee@addr
  2317  02F1  3075               	movlw	___ctoee@data& (0+255)
  2318  02F2  00F6               	movwf	??___ctoee
  2319  02F3  0876               	movf	??___ctoee,w
  2320  02F4  00F0               	movwf	memcpyee@from
  2321  02F5  01F1               	clrf	memcpyee@size
  2322  02F6  0AF1               	incf	memcpyee@size,f
  2323  02F7  0877               	movf	___ctoee@addr,w
  2324  02F8  27B8               	fcall	_memcpyee
  2325  02F9  0008               	return
  2326  02FA                     __end_of___ctoee:	
  2327                           ;	Return value of ___ctoee is never used
  2328                           
  2329                           
  2330                           	psect	text9
  2331  07B8                     __ptext9:	
  2332 ;; *************** function _memcpyee *****************
  2333 ;; Defined at:
  2334 ;;		line 24 in file "/opt/microchip/xc8/v1.31/sources/pic/eeprom.c"
  2335 ;; Parameters:    Size  Location     Type
  2336 ;;  to              1    wreg     PTR eeprom unsigned char
  2337 ;;		 -> ps2Default(1), 
  2338 ;;  from            1    0[COMMON] PTR const unsigned char 
  2339 ;;		 -> __fltoee@data(3), __fttoee@data(3), __ltoee@data(4), __mtoee@data(3), 
  2340 ;;		 -> __itoee@data(2), __ctoee@data(1), 
  2341 ;;  size            1    1[COMMON] unsigned char 
  2342 ;; Auto vars:     Size  Location     Type
  2343 ;;  to              1    4[COMMON] PTR eeprom unsigned char
  2344 ;;		 -> ps2Default(1), 
  2345 ;;  ptr             1    3[COMMON] PTR const unsigned char 
  2346 ;;		 -> __fltoee@data(3), __fttoee@data(3), __ltoee@data(4), __mtoee@data(3), 
  2347 ;;		 -> __itoee@data(2), __ctoee@data(1), 
  2348 ;; Return value:  Size  Location     Type
  2349 ;;		None               void
  2350 ;; Registers used:
  2351 ;;		wreg, fsr0l, fsr0h, status,2, status,0
  2352 ;; Tracked objects:
  2353 ;;		On entry : 0/0
  2354 ;;		On exit  : 0/0
  2355 ;;		Unchanged: 0/0
  2356 ;; Data sizes:     COMMON   BANK0   BANK1   BANK2
  2357 ;;      Params:         2       0       0       0
  2358 ;;      Locals:         2       0       0       0
  2359 ;;      Temps:          1       0       0       0
  2360 ;;      Totals:         5       0       0       0
  2361 ;;Total ram usage:        5 bytes
  2362 ;; Hardware stack levels used:    1
  2363 ;; This function calls:
  2364 ;;		Nothing
  2365 ;; This function is called by:
  2366 ;;		___ctoee
  2367 ;; This function uses a non-reentrant model
  2368 ;;
  2369                           
  2370                           
  2371                           ;psect for function _memcpyee
  2372  07B8                     _memcpyee:	
  2373                           
  2374                           ;incstack = 0
  2375                           ; Regs used in _memcpyee: [wreg-fsr0h+status,2+status,0]
  2376                           ;memcpyee@to stored from wreg
  2377  07B8  00F4               	movwf	memcpyee@to
  2378  07B9  0870               	movf	memcpyee@from,w
  2379  07BA  00F2               	movwf	??_memcpyee
  2380  07BB  0872               	movf	??_memcpyee,w
  2381  07BC  00F3               	movwf	memcpyee@ptr
  2382  07BD                     l202:	
  2383  07BD  1683               	bsf	3,5	;RP0=1, select bank1
  2384  07BE  1303               	bcf	3,6	;RP1=0, select bank1
  2385  07BF  189C               	btfsc	28,1	;volsfr
  2386  07C0  2FBD               	goto	l202
  2387  07C1  0874               	movf	memcpyee@to,w
  2388  07C2  3EFF               	addlw	255
  2389  07C3  009B               	movwf	27	;volatile
  2390  07C4  307F               	movlw	127
  2391  07C5  00F2               	movwf	??_memcpyee
  2392  07C6  0872               	movf	??_memcpyee,w
  2393  07C7  059C               	andwf	28,f	;volsfr
  2394  07C8                     l1042:	
  2395  07C8  3001               	movlw	1
  2396  07C9  02F1               	subwf	memcpyee@size,f
  2397  07CA  0871               	movf	memcpyee@size,w
  2398  07CB  3AFF               	xorlw	255
  2399  07CC  1903               	btfsc	3,2
  2400  07CD  0008               	return
  2401  07CE                     l207:	
  2402  07CE  1683               	bsf	3,5	;RP0=1, select bank1
  2403  07CF  1303               	bcf	3,6	;RP1=0, select bank1
  2404  07D0  189C               	btfsc	28,1	;volsfr
  2405  07D1  2FCE               	goto	l207
  2406  07D2  0873               	movf	memcpyee@ptr,w
  2407  07D3  0084               	movwf	4
  2408  07D4  0800               	movf	0,w
  2409  07D5  009A               	movwf	26	;volatile
  2410  07D6  3001               	movlw	1
  2411  07D7  00F2               	movwf	??_memcpyee
  2412  07D8  0872               	movf	??_memcpyee,w
  2413  07D9  07F3               	addwf	memcpyee@ptr,f
  2414  07DA  3001               	movlw	1
  2415  07DB  00F2               	movwf	??_memcpyee
  2416  07DC  0872               	movf	??_memcpyee,w
  2417  07DD  079B               	addwf	27,f	;volatile
  2418  07DE  1283               	bcf	3,5	;RP0=0, select bank0
  2419  07DF  1303               	bcf	3,6	;RP1=0, select bank0
  2420  07E0  1003               	bcf	3,0	;volatile
  2421  07E1  1B8B               	btfsc	11,7	;volatile
  2422  07E2  1403               	bsf	3,0	;volatile
  2423  07E3  138B               	bcf	11,7	;volatile
  2424  07E4  1683               	bsf	3,5	;RP0=1, select bank1
  2425  07E5  1303               	bcf	3,6	;RP1=0, select bank1
  2426  07E6  151C               	bsf	28,2	;volsfr
  2427  07E7  3055               	movlw	85
  2428  07E8  009D               	movwf	29	;volsfr
  2429  07E9  30AA               	movlw	170
  2430  07EA  009D               	movwf	29	;volsfr
  2431  07EB  149C               	bsf	28,1	;volsfr
  2432  07EC  111C               	bcf	28,2	;volsfr
  2433  07ED  1283               	bcf	3,5	;RP0=0, select bank0
  2434  07EE  1303               	bcf	3,6	;RP1=0, select bank0
  2435  07EF  1C03               	btfss	3,0	;volatile
  2436  07F0  2FC8               	goto	l1042
  2437  07F1  178B               	bsf	11,7	;volatile
  2438  07F2  2FC8               	goto	l1042
  2439  07F3                     __end_of_memcpyee:	
  2440  007E                     btemp	set	126	;btemp
  2441  007E                     wtemp	set	126
  2442  007E                     wtemp0	set	126
  2443  0080                     wtemp1	set	128
  2444  0082                     wtemp2	set	130
  2445  0084                     wtemp3	set	132
  2446  0086                     wtemp4	set	134
  2447  0088                     wtemp5	set	136
  2448  007F                     wtemp6	set	127
  2449  007E                     ttemp	set	126
  2450  007E                     ttemp0	set	126
  2451  0081                     ttemp1	set	129
  2452  0084                     ttemp2	set	132
  2453  0087                     ttemp3	set	135
  2454  007F                     ttemp4	set	127
  2455  007E                     ltemp	set	126
  2456  007E                     ltemp0	set	126
  2457  0082                     ltemp1	set	130
  2458  0086                     ltemp2	set	134
  2459  0080                     ltemp3	set	128


Data Sizes:
    Strings     0
    Constant    678
    Data        0
    BSS         2
    Persistent  1
    Stack       0

Auto Spaces:
    Space          Size  Autos    Used
    COMMON           14     11      14
    BANK0            80      8       8
    BANK1            80      0       0
    BANK2            48      0       0

Pointer List with Targets:

    __ctoee@addr	PTR eeprom void  size(1) Largest target is 1
		 -> ps2Default(EEDATA[1]), 

    __eetoc@addr	PTR eeprom void  size(1) Largest target is 1
		 -> ps2Default(EEDATA[1]), 

    memcpyee@to	PTR eeprom unsigned char  size(1) Largest target is 1
		 -> ps2Default(EEDATA[1]), 

    memcpyee@from	PTR const unsigned char  size(1) Largest target is 4
		 -> __fltoee@data(COMMON[3]), __fttoee@data(COMMON[3]), __ltoee@data(COMMON[4]), __mtoee@data(COMMON[3]), 
		 -> __itoee@data(COMMON[2]), __ctoee@data(COMMON[1]), 

    memcpyee@ptr	PTR const unsigned char  size(1) Largest target is 4
		 -> __fltoee@data(COMMON[3]), __fttoee@data(COMMON[3]), __ltoee@data(COMMON[4]), __mtoee@data(COMMON[3]), 
		 -> __itoee@data(COMMON[2]), __ctoee@data(COMMON[1]), 

    eecpymem@from	PTR eeprom unsigned char  size(1) Largest target is 1
		 -> ps2Default(EEDATA[1]), 

    eecpymem@to	PTR volatile unsigned char  size(1) Largest target is 4
		 -> __eetofl@data(COMMON[3]), __eetoft@data(COMMON[3]), __eetol@data(COMMON[4]), __eetom@data(COMMON[3]), 
		 -> __eetoi@data(COMMON[2]), __eetoc@data(COMMON[1]), 

    eecpymem@cp	PTR volatile unsigned char  size(1) Largest target is 4
		 -> __eetofl@data(COMMON[3]), __eetoft@data(COMMON[3]), __eetol@data(COMMON[4]), __eetom@data(COMMON[3]), 
		 -> __eetoi@data(COMMON[2]), __eetoc@data(COMMON[1]), 


Critical Paths under _main in COMMON

    _main->___ctoee
    _main->___eetoc
    _main->_flashPanel
    _flashPanel->_setPanel
    _setPanel->_sendCommandCode
    ___eetoc->_eecpymem
    ___ctoee->_memcpyee

Critical Paths under _main in BANK0

    None.

Critical Paths under _main in BANK1

    None.

Critical Paths under _main in BANK2

    None.

Call Graph Tables:

 ---------------------------------------------------------------------------------
 (Depth) Function   	        Calls       Base Space   Used Autos Params    Refs
 ---------------------------------------------------------------------------------
 (0) _main                                                11    11      0    2162
                                              8 COMMON     3     3      0
                                              0 BANK0      8     8      0
                            ___ctoee
                            ___eetoc
                         _flashPanel
                       _readScanCode
                           _setPanel
 ---------------------------------------------------------------------------------
 (1) _flashPanel                                           3     3      0     114
                                              5 COMMON     3     3      0
                           _setPanel
 ---------------------------------------------------------------------------------
 (1) _setPanel                                             2     2      0      92
                                              3 COMMON     2     2      0
                       _readScanCode
                    _sendCommandCode
 ---------------------------------------------------------------------------------
 (2) _sendCommandCode                                      3     3      0      47
                                              0 COMMON     3     3      0
                         _clockCycle
 ---------------------------------------------------------------------------------
 (2) _readScanCode                                         2     2      0      23
                                              0 COMMON     2     2      0
                         _clockCycle
 ---------------------------------------------------------------------------------
 (3) _clockCycle                                           0     0      0       0
 ---------------------------------------------------------------------------------
 (1) ___eetoc                                              3     3      0     853
                                              5 COMMON     3     3      0
                           _eecpymem
 ---------------------------------------------------------------------------------
 (2) _eecpymem                                             5     3      2     758
                                              0 COMMON     5     3      2
 ---------------------------------------------------------------------------------
 (1) ___ctoee                                              3     2      1     889
                                              5 COMMON     3     2      1
                           _memcpyee
 ---------------------------------------------------------------------------------
 (2) _memcpyee                                             5     3      2     758
                                              0 COMMON     5     3      2
 ---------------------------------------------------------------------------------
 Estimated maximum stack depth 3
 ---------------------------------------------------------------------------------

 Call Graph Graphs:

 _main (ROOT)
   ___ctoee
     _memcpyee
   ___eetoc
     _eecpymem
   _flashPanel
     _setPanel
       _readScanCode
         _clockCycle
       _sendCommandCode
         _clockCycle
   _readScanCode
     _clockCycle
   _setPanel
     _readScanCode
       _clockCycle
     _sendCommandCode
       _clockCycle

 Address spaces:
Name               Size   Autos  Total    Cost      Usage
BITCOMMON            E      0       1       0        7.1%
EEDATA              80      0       1       0        0.8%
NULL                 0      0       0       0        0.0%
CODE                 0      0       0       0        0.0%
COMMON               E      B       E       1      100.0%
BITSFR0              0      0       0       1        0.0%
SFR0                 0      0       0       1        0.0%
BITSFR1              0      0       0       2        0.0%
SFR1                 0      0       0       2        0.0%
STACK                0      0       0       2        0.0%
BANK0               50      8       8       3       10.0%
BITSFR3              0      0       0       4        0.0%
SFR3                 0      0       0       4        0.0%
ABS                  0      0      16       4        0.0%
BITBANK0            50      0       0       5        0.0%
BITSFR2              0      0       0       5        0.0%
SFR2                 0      0       0       5        0.0%
BITBANK1            50      0       0       6        0.0%
BANK1               50      0       0       7        0.0%
BITBANK2            30      0       0       8        0.0%
BANK2               30      0       0       9        0.0%
DATA                 0      0      16      10        0.0%


Microchip Technology PIC Macro Assembler V1.31 build 56723 
Symbol Table                                                                                   Sat May 24 17:44:07 2014

         flashPanel@count 0077                         pc 0002               __CFG_CP$OFF 0000  
                      l51 07F3                        l60 03AF                        l54 07F7  
                      l71 03D6                        l64 03B3                        l65 03B9  
                      l74 03D9                        l91 037B                        l84 036A  
                      l77 03DB                        l69 03CF                        _RD 04E0  
                      _WR 04E1                        fsr 0004                       l121 0409  
                     l202 07BD                       l123 040E                       l108 031C  
                     l132 042D                       l124 040F                       l117 03FE  
                     l126 0413                       l207 07CE                       l128 0417  
                     l145 0480                       l155 049E                       l147 0485  
                     l139 0455                       l164 04F9                       l148 048A  
                     l149 048F                       l190 033E                       l166 04FE  
                     l158 04BB                       l195 034A                       l950 03D2  
                     l944 03C3                       l938 03BC                       l946 03C5  
                     l980 0389                       l964 036E                       l972 0375  
                     l958 0362                       l990 030A                       l984 038D  
                     _GIE 005F                       l996 0314                       _RA0 0028  
                     _RA1 0029                       _RA2 002A                       _RB7 0037  
            __CFG_CPD$OFF 0000              ___ctoee@addr 0077              ___ctoee@data 0075  
                     _alt 03D8                       fsr0 0004                       indf 0000  
            __CFG_LVP$OFF 0000                      l1014 0344                      l1112 044C  
                    l1042 07C8                      l1132 0477                      l1142 0497  
                    l1160 04BF                      l1162 04C4                      l1154 04B4  
                    l1164 04D0                      l1076 03F7                      l1166 04E7  
                    l1078 03FC                      l1096 041B                      u1217 0438  
                    u1227 0462                      u1237 04F0                      u1247 0322  
                    u1257 032D                      u1267 03AA                      _WREN 04E2  
                    _main 03E3                      _ctrl 03DA                      btemp 007E  
           __CFG_BOREN$ON 0000                      ltemp 007E                      start 0000  
                    ttemp 007E     sendCommandCode@parity 0072                      wtemp 007E  
                   ?_main 0070           __end_of___eetoc 0305                     _EEADR 009B  
         __end_of___ctoee 02FA             __CFG_WDTE$OFF 0000                     _CARRY 0018  
                   _CMCON 001F                     _PORTB 0006           _sendCommandCode 0396  
                   _TRISB 0086             __CFG_PWRTE$ON 0000                     _altGr 03D9  
                   _keyUp 03DC                     _shift 03DD            __pbitbssCOMMON 03D8  
                   pclath 000A                     ltemp0 007E                     ltemp1 0082  
                   ltemp2 0086                     ltemp3 0080                     ttemp0 007E  
                   ttemp1 0081                     ttemp2 0084                     ttemp3 0087  
                   ttemp4 007F                     status 0003                     wtemp0 007E  
                   wtemp1 0080                     wtemp2 0082                     wtemp3 0084  
                   wtemp4 0086                     wtemp5 0088                     wtemp6 007F  
          __CFG_MCLRE$OFF 0000           __initialization 07FC              __end_of_main 0500  
           main@ps2Config 0026                    ??_main 0078             ?_readScanCode 0070  
                  _EEDATA 009A                    _EECON1 009C                    _EECON2 009D  
                  _TRISA0 0428                    _TRISA1 0429                    _TRISA2 042A  
        __end_of_eecpymem 0360                 ??___eetoc 0075                 ??___ctoee 0076  
             memcpyee@ptr 0073   __end_of_sendCommandCode 03E3          __end_of_memcpyee 07F3  
        __end_of_setPanel 031B            ??_readScanCode 0070   __end_of__initialization 07FE  
          __pcstackCOMMON 0070                __pnvCOMMON 007C                _ps2Default 0000  
              __pmaintext 03E3          ?_sendCommandCode 0070                _clockCycle 07F3  
              _flashPanel 031B                 ?_eecpymem 0070                __stringtab 0500  
               ?_memcpyee 0070      __end_of_readScanCode 0396                 ?_setPanel 0070  
                 ___eetoc 02FA                   ___ctoee 02F0         __end_of_ctrlAscii 05F4  
                 _main$61 0020                   _main$62 0022                   _main$63 0024  
            memcpyee@from 0070                   __ptext1 031B                   __ptext2 0305  
                 __ptext3 0396                   __ptext4 0360                   __ptext5 07F3  
                 __ptext6 02FA                   __ptext7 0339                   __ptext8 02F0  
                 __ptext9 07B8              memcpyee@size 0071                ??_eecpymem 0072  
    end_of_initialization 07FE                ??_memcpyee 0072                eecpymem@cp 0073  
              eecpymem@to 0074                _shiftAscii 06D6                ??_setPanel 0073  
            __pstringtext 0500               ?_clockCycle 0070               ?_flashPanel 0070  
        sendCommandCode@n 0071       start_initialization 07FC     __size_of_readScanCode 0036  
     __size_of_clockCycle 0007       __size_of_flashPanel 001E                memcpyee@to 0074  
             __pbssEEDATA 0000               __pbssCOMMON 007D              _readScanCode 0360  
               ___latbits 0000             __pcstackBANK0 0020         __size_of_eecpymem 0027  
       __size_of_memcpyee 003B         __size_of_setPanel 0016                  ?___eetoc 0070  
                ?___ctoee 0075                 _ctrlAscii 0512  __size_of_sendCommandCode 004D  
            setPanel@leds 0074                 _shiftLock 03DE               _commandCode 007D  
            ??_clockCycle 0070               __stringbase 0512              ??_flashPanel 0075  
               main@ascii 0027             readScanCode@n 0071        __end_of_clockCycle 07FA  
      __end_of_flashPanel 0339          __size_of___eetoc 000B          __size_of___ctoee 000A  
      __end_of__stringtab 0512       __end_of_normalAscii 06D6              eecpymem@from 0070  
                _eecpymem 0339              eecpymem@size 0071         ??_sendCommandCode 0070  
                _memcpyee 07B8                  _scanCode 007C             __size_of_main 011D  
                _setPanel 0305               _extendedKey 03DB        __end_of_shiftAscii 07B8  
               stringcode 050A               _normalAscii 05F4                  stringtab 0500  
      __CFG_FOSC$INTOSCIO 0000              ___eetoc@addr 0076              ___eetoc@data 0077  
