   1:			;
   2:			;  MDZ80 V0.9.0 Z80 Disassembly of bios16.bin
   3:			;  2015/04/25 13:04
   4:			;
   5:			; Select which BIOS you want to mimic
   6:	0000          		MIMV16	equ	0		; bios 16 hdd BASF 6182
   7:	0001          		MIMV18	equ	1		; bios 16 hdd BASF 6188
   8:			;
   9:				;
  10:				;************************************************************
  11:				;*               UNIVERSAL BASIC I/O SYSTEM (BIOS)          *
  12:				;*                           Vers 1.6                       *
  13:				;*                                                          *
  14:				;*                                                          *
  15:				;*   A,B = 5 inc. 32,10 sec/trk  256 byte/sec               *
  16:				;*   C,D = 5 inc. 32,10 sec/trk  256 byte/sec               *
  17:				;*   E,F = 5 inc.    17 sec/trk  128 byte/sec               *
  18:				;*                                                          *
  19:				;*                                                          *
  20:				;*   nota: aggiungere diagnoststica errori in fdd i/o       *
  21:				;*                                                          *
  22:				;*                                                          *
  23:				;************************************************************
  24:				;
  25:	0000          		if MIMV16
  27:				else
  28:				title   Bios 1.8 for NE CP/M 2.2 with Hard Disk BASF 6188
  29:				endif
  30:			; 	subttl  Copyright Studio Lg, Genova - Last rev 15/08/1984 09:06
  31:				;
  32:				; Programmers Martino Stefano & Gallerani Paolo
  33:				;
  34:				; Disassembly/retype Piergiorgio Betti & Pino Giaquinto 2015/04/25
  35:				;
  36:	003C          		msize	equ	60	; memory size in kb
  37:				;
  38:	4853          		vers	equ	('H'*256)+'S'	; Single side version
  39:	0000          		if MIMV16
  41:				else
  42:	0012          		rev	equ	18		; CBIOS revision number
  43:				endif
  44:				;
  45:				;
  46:				;	Boolean scalar constants
  47:	0000          		false	equ	0
  48:	FFFF          		true	equ	not false
  49:				;
  50:				;
  51:				;***    I/O devices     ****
  52:	0001          		TTY	equ	01b	; CON:
  53:	0000          		RDR	equ	false	; undef
  54:	0000          		PUN	equ	false	; undef
  55:	0002          		LST	equ	10b	; LST:
  56:				;
  57:				; Default value for i/o byte
  58:	0081          		DftI.O	equ	(LST shl 6) or (RDR shl 4) or (PUN shl 2) or TTY
  59:				;
  60:				;************************************************************
  61:				;*                                                          *
  62:				;*                   ASCII EQUIVALENTS                      *
  63:				;*                                                          *
  64:				;************************************************************
  65:				;
  66:	0007          		bell	equ	'G' - '@'	; bell
  67:	0008          		backsp	equ	'H' - '@'	; backspace char.
  68:	0009          		tab	equ	'I' - '@'	; tab char.
  69:	000A          		lf	equ	'J' - '@'	; line feed
  70:	000C          		ffeed	equ	'L' - '@'	; form feed
  71:	000D          		cr	equ	'M' - '@'	; carriage return
  72:	0013          		pfx	equ	'S' - '@'	; attribute prefix
  73:	0048          		rever	equ	'H'      	; reverse on
  74:	0043          		flash	equ	'C'      	; flash on
  75:	0040          		norm	equ	'@'      	; normal
  76:	0020          		spc	equ	' '      	; space
  77:	0024          		endmsg	equ	'$'      	; end of print message
  78:				;
  79:				;************************************************************
  80:				;*                                                          *
  81:				;*                 Rom routines adrdress                    *
  82:				;*                                                          *
  83:				;************************************************************
  84:				;
  85:	F000          		rom	equ	0F000H		; rom starting address
  86:	F003          		cin     equ	rom+3		; console input
  87:	F006          		cout    equ	rom+6		; console output
  88:	F009          		csts    equ	rom+9		; console status
  89:	F00C          		lout    equ	rom+12		; printer output
  90:	F00F          		lsts	equ	rom+15		; printer status
  91:	F012          		fdios	equ	rom+18		; fdd i/o 128 byte
  92:	F015          		fdiod	equ	rom+21		; fdd i/o 256 byte
  93:	F018          		wdini	equ	rom+24		; wdd initialization
  94:	F01B          		wdio	equ	rom+27		; wdd i/o 256 byte
  95:	F01E          		strout	equ	rom+30		; print string DE until $
  96:	F01E          		print	equ	strout		; sinonime
  97:	F021          		bootrom	equ	rom+33		; load BIOS and go to wboote
  98:	F024          		printat	equ	rom+36		; print string -> DE at -> HL cursor
  99:	F027          		movcurs	equ	rom+39		; move cursor at -> HL
 100:	F02A          		vidinit	equ	rom+42		; initialize video
 101:	F02D          		CompFlg	equ	rom+45		; Version number
 102:				;
 103:				;************************************************************
 104:				;*                                                          *
 105:				;*                    System Constants                      *
 106:				;*                                                          *
 107:				;************************************************************
 108:				;
 109:	003B          		cmsize	equ	msize-1		; cp/m size in kb
 110:				;
 111:				; is msize-1 to leave room for disk buffers as drived from a comment
 112:				; in original bios asm list
 113:				;
 114:				;       "bias" is address offset from 3400h for memory systems
 115:				;       than 16k (referred to as"b" throughout the text)
 116:				;
 117:	9C00          		bias	equ     (cmsize-20)*1024
 118:	D000          		ccp	equ     3400h+bias      ; base of ccp
 119:	D806          		bdos	equ     ccp+0806h       ; base of bdos
 120:	E600          		bios	equ     ccp+1600h       ; base of bios
 121:				;
 122:				;
 123:	0100          		secsiz	equ	256		; sector size
 124:	1600          		cpml	equ	bios-ccp	; lenght of cp/m system (ccp+bdos)
 125:	0600          		biosl	equ	0600H		; lenght of bios
 126:	0016          		cpmsiz	equ	cpml/secsiz	; lenght (in sectors) of cp/m system
 127:	0006          		biossiz	equ	biosl/secsiz	; lenght (in sectors) of bios
 128:	0003          		iobyte	equ	0003H		; Intel i/o byte
 129:	0004          		CurDsk	equ	0004H		; cp/m logical disk number
 130:	0080          		stack	equ	0080H		; stack
 131:	0080          		defdma	equ	0080H		; dp/m default dma address
 132:	1000          		stack1	equ	1000H		; ipl stack
 133:				;
 134:				;************************************************************
 135:				;*                                                          *
 136:				;*                      Disk Constants                      *
 137:				;*                                                          *
 138:				;************************************************************
 139:				;
 140:	0002          		fddsiz	equ	2		; fdd num on system (10 sec/trk 256 bytes)
 141:	0002          		wddsiz	equ	2		; wdd num on system (32 sec/trk 256 bytes)
 142:	0002          		extfds	equ	2		; fds num on system (17 sec/trk 128 bytes)
 143:	0006          		maxdsk	equ	fddsiz+wddsiz+extfds ; max disk on system
 144:				;
 145:	000A          		fddsec	equ	10		; fdd sec/trk
 146:	0020          		wddsec	equ	32		; wdd sec/trk
 147:				;
 148:	0002          		cpmblk	equ	secsiz/128	; r/w buffer size
 149:	0001          		secmsk	equ	cpmblk-1	; sector mask
 150:	0014          		fddspt	equ	fddsec*cpmblk	; cp/m fdd sec/trk
 151:	0040          		wddspt	equ	wddsec*cpmblk	; cp/m wdd sec/trk
 152:				;
 153:				;************************************************************
 154:				;*                                                          *
 155:				;*                BDOS constants on write                   *
 156:				;*                                                          *
 157:				;************************************************************
 158:				;
 159:	0000          		wrall	equ	0		; write to allocated
 160:	0001          		wrdir	equ	1		; write to directory
 161:	0002          		wrual	equ	2		; write to unallocated
 162:				;
 163:				;
 164:				; *********** IPL section skipped for now ************
 165:				;
 166:				;
 167:			
 168:			; 	ORG	$E600
 169:	E600          		phase	bios
 170:			;
 171:	E600  C317E7  		JP	BOOT		; E600  C3 17 E7	C.g
 172:	E603  C31DE7  	wboote:	JP	WBOOT		; E603  C3 1D E7	C.g
 173:	E606  C3DCE7  		JP	CONST		; E606  C3 DC E7	C\g
 174:	E609  C3E8E7  		JP	CONIN		; E609  C3 E8 E7	Chg
 175:	E60C  C3F9E7  		JP	CONOUT		; E60C  C3 F9 E7	Cyg
 176:	E60F  C30EE8  		JP	LISTD		; E60F  C3 0E E8	C.h
 177:	E612  C32AE8  		JP	PUNCH		; E612  C3 2A E8	C*h
 178:	E615  C32BE8  		JP	READER		; E615  C3 2B E8	C+h
 179:	E618  C35DE8  		JP	HOME		; E618  C3 5D E8	C]h
 180:	E61B  C33CE8  		JP	SELDSK		; E61B  C3 3C E8	C<h
 181:	E61E  C360E8  		JP	SETTRK		; E61E  C3 60 E8	C`h
 182:	E621  C371E8  		JP	SETSEC		; E621  C3 71 E8	Cqh
 183:	E624  C376E8  		JP	SETDMA		; E624  C3 76 E8	Cvh
 184:	E627  C37BE8  		JP	READ		; E627  C3 7B E8	C{h
 185:	E62A  C380E8  		JP	WRITE		; E62A  C3 80 E8	C.h
 186:	E62D  C31CE8  		JP	LISTST		; E62D  C3 1C E8	C.h
 187:	E630  C365E8  		JP	SECTRAN		; E630  C3 65 E8	Ceh
 188:			;
 189:				;
 190:				;************************************************************
 191:				;* D P B T A B L E                                          *
 192:				;*                                                          *
 193:				;*       W/F  Size  B/S  S/T Trk  Hds  R/T   Capacity       *
 194:				;*  -    --- ------ ---  --  ---  ---  ---  ----------      *
 195:				;*  A: = wdd   5"   256  32  153   2    2   2432 Kbyte      *
 196:				;*  B: = wdd   5"   256  32  153   2    0   2448 Kbyte      *
 197:				;*  C: = fdd   5"   256  10   40   1    3     92 Kbyte      *
 198:				;*  D: = fdd   5"   256  10   40   1    3     92 Kbyte      *
 199:				;*  E: = fdd   5"   128  17   40   1    3     78 Kbyte      *
 200:				;*  F: = fdd   5"   128  17   40   1    3     78 Kbyte      *
 201:				;*                                                          *
 202:				;************************************************************
 203:				;
 204:	E633          		dpbase	equ	$	; base of DPH
 205:				;
 206:	E633          	dpe0:
 207:	E633  00000000		defw	xlt0, 0000h	; no translate table
 208:	E637  00000000		defw	0000h, 0000h	; scratch area
 209:	E63B  00EDCCE6		defw	dirbuf, dpb0	; dir buff, parm block
 210:	E63F  34EE80ED		defw	csv0, alv0	; check, alloc vector
 211:	E643          	dpe1:
 212:	E643  00000000		defw	xlt0, 0000h	; no translate table
 213:	E647  00000000		defw	0000h, 0000h	; scratch area
 214:	E64B  00EDDBE6		defw	dirbuf, dpb01	; dir buff, parm block
 215:	E64F  E8EE34EE		defw	csv1, alv1	; check, alloc vector
 216:				;
 217:				; dpe2,dpe3 = disk parameter header for floppy disk (256 byte/sec)
 218:	E653          	dpe2:	; 256 byte/sec - Single Side
 219:	E653  93E60000		defw	xlt1, 0000h	; translate table
 220:	E657  00000000		defw	0000h, 0000h	; scratch area
 221:	E65B  00EDEAE6		defw	dirbuf,dpb1	; dir buff,parm block
 222:	E65F  F4EEE8EE		defw	csv2,alv2	; check,alloc vector
 223:				;
 224:				;
 225:	E663          	dpe3:	; 256 byte/sec - Single Side
 226:	E663  93E60000		defw	xlt1,0000h	; translate table
 227:	E667  00000000		defw	0000h,0000h	; scratch area
 228:	E66B  00EDF9E6		defw	dirbuf,dpb12	; dir buff,parm block
 229:	E66F  10EF04EF		defw	csv3,alv3	; check,alloc vector
 230:			;
 231:				; dpe4,dpe5 = disk parameter header for floppy disk (128 byte/sec)
 232:	E673          	dpe4:	; 128 byte/sec - Single Side
 233:	E673  BBE60000		defw	xlt2,0000h	; translate table
 234:	E677  00000000		defw	0000h,0000h	; scratch area
 235:	E67B  00ED08E7		defw	dirbuf,dpb2	; dir buff,parm block
 236:	E67F  2AEF20EF		defw	csv4,alv4	; check,alloc vector
 237:				;
 238:	E683          	dpe5:	; 128 byte/sec - Single Side
 239:	E683  BBE60000		defw	xlt2,0000h	; translate table
 240:	E687  00000000		defw	0000h,0000h	; scratch area
 241:	E68B  00ED08E7		defw	dirbuf,dpb2	; dir buff,parm block
 242:	E68F  3CEF32EF		defw	csv5,alv5	; check,alloc vector
 243:				;
 244:	0000          		xlt0	equ	0
 245:				;
 246:	E693          		xlt1:
 247:					; sector translate table for floppy disk (256 byte/sec)
 248:	E693  01020D0E		defb	1,2,13,14,5,6,17,18,9,10,3,4,15,16,7,8,19,20,11,12
	      05061112
	      090A0304
	      0F100708
	      13140B0C
 249:	E6A7  15162122		defb	21,22,33,34,25,26,37,38,29,30,23,24,35,36,27,28,39,40,31,32
	      191A2526
	      1D1E1718
	      23241B1C
	      27281F20
 250:				;
 251:	E6BB          		xlt2:
 252:					; sector translate table for floppy disk (128 byte/sec)
 253:	E6BB  01070D02		defb	1,7,13,2,8,14,3,9,15
	      080E0309
	      0F
 254:	E6C4  040A1005		defb	4,10,16,5,11,17,6,12
	      0B11060C
 255:			
 256:				;
 257:				;
 258:	E6CC          		dpb0:
 259:	0001          		if MIMV18
 260:				; ********** 6188 *********** bios 1.8
 261:				; disk parameter block for hard disk 0 (256 byte/sector 1 res. trk)
 262:	E6CC  8000    		defw	128		; SPT (sec/trk) (32 sect * (256/128) * 2 side)
 263:	E6CE  05      		defb	5		; BSH
 264:	E6CF  1F      		defb	31		; BLM
 265:	E6D0  01      		defb	1		; EXM (extent mask)
 266:	E6D1  9B05    		defw	1435		; DSM (disk size in BLS units - 1) (5740 kbyte)
 267:	E6D3  FF03    		defw	1023		; DRM (directory elements - 1)
 268:	E6D5  FF      		defb	11111111b	; AL0
 269:	E6D6  00      		defb	00000000b	; AL1
 270:	E6D7  0000    		defw	0		; CKS disk fixed, no dir. check vector
 271:	E6D9  0100    		defw	1		; OFF (track offset)
 272:	059B          		alv0siz	equ	1435
 273:				;
 274:				else
 288:				endif
 289:				;
 290:	E6DB          		dpb01:
 291:	0001          		if MIMV18
 292:				; ********** 6188 *********** bios 1.8
 293:				; disk parameter block for hard disk 1 (256 byte/sector no res. trk)
 294:	E6DB  8000    		defw	128		; SPT (sec/trk) (32 sect * (256/128) * 2 side)
 295:	E6DD  05      		defb	5		; BSH
 296:	E6DE  1F      		defb	31		; BLM
 297:	E6DF  01      		defb	1		; EXM (extent mask)
 298:	E6E0  9F05    		defw	1439		; DSM (disk size in BLS units - 1) (5756 kbyte)
 299:	E6E2  FF03    		defw	1023		; DRM (directory elements - 1)
 300:	E6E4  FF      		defb	11111111b	; AL0
 301:	E6E5  00      		defb	00000000b	; AL1
 302:	E6E6  0000    		defw	0		; CKS disk fixed, no dir. check vector
 303:	E6E8  0000    		defw	0		; OFF (track offset)
 304:	059F          		alv1siz	equ	1439
 305:				;
 306:				else
 320:				endif
 321:				;
 322:	E6EA          		dpb1:
 323:					; disk parameter block for floppy disk
 324:					; 256 byte/sector - Single Side
 325:	E6EA  1400    		defw	20		; SPT (sec/trk) (10 sect * (256/128) * 1 side)
 326:	E6EC  04      		defb	4		; BSH
 327:	E6ED  0F      		defb	15		; BLM
 328:	E6EE  01      		defb	1		; EXM (extent mask)
 329:	E6EF  2D00    		defw	45		; DSM (disk size in BLS unit) (90 kbyte)
 330:	E6F1  3F00    		defw	63		; DRM (directory elements - 1)
 331:	E6F3  80      		defb	10000000b	; AL0
 332:	E6F4  00      		defb	00000000b	; AL1
 333:	E6F5  1000    		defw	16		; CKS = (DRM + 1)/4 (size dir. check vect.)
 334:	E6F7  0300    		defw	3		; OFF (track offset)
 335:				;
 336:	E6F9          		dpb12:
 337:				; **********  bios 1.8
 338:					; disk parameter block for floppy disk
 339:					; 256 byte/sector - Single Side
 340:			; 	defw	40		; SPT (sec/trk) (10 sect * (256/128))
 341:			; 	defb	4		; BSH
 342:			; 	defb	15		; BLM
 343:			; 	defb	1		; EXM (extent mask)
 344:			; 	defw	94		; DSM (disk size in BLS unit) (90 kbyte)
 345:			; 	defw	63		; DRM (directory elements - 1)
 346:			; 	defb	10000000b	; AL0
 347:			; 	defb	00000000b	; AL1
 348:			; 	defw	16		; CKS = (DRM + 1)/4 (size dir. check vect.)
 349:			; 	defw	2		; OFF (track offset)
 350:				;
 351:				; **********  bios 1.6
 352:					; disk parameter block for floppy disk
 353:					; 256 byte/sector - Single Side
 354:	E6F9  1400    		defw	20		; SPT (sec/trk) (10 sect * (256/128) * 1 side)
 355:	E6FB  04      		defb	4		; BSH
 356:	E6FC  0F      		defb	15		; BLM
 357:	E6FD  01      		defb	1		; EXM (extent mask)
 358:	E6FE  2D00    		defw	45		; DSM (disk size in BLS unit) (90 kbyte)
 359:	E700  3F00    		defw	63		; DRM (directory elements - 1)
 360:	E702  80      		defb	10000000b	; AL0
 361:	E703  00      		defb	00000000b	; AL1
 362:	E704  1000    		defw	16		; CKS = (DRM + 1)/4 (size dir. check vect.)
 363:	E706  0300    		defw	3		; OFF (track offset)
 364:				;
 365:	E708          		dpb2:
 366:					; disk parameter block for floppy disk (128 byte/sector)
 367:	E708  1100    		defw	17		; SPT (SEC/trk)
 368:	E70A  03      		defb	3		; BSH
 369:	E70B  07      		defb	7		; BLM
 370:	E70C  00      		defb	0		; EXM (extent mask)
 371:	E70D  4D00    		defw	77		; DSM (disk size in BLS unit) (77 kbyte)
 372:	E70F  1F00    		defw	31		; DRM (directory elements - 1)
 373:	E711  80      		defb	10000000b	; AL0
 374:	E712  00      		defb	00000000b	; AL1
 375:	E713  0800    		defw	8		; CKS = (DRM + 1)/4 (size dir. check vect.)
 376:	E715  0300    		defw	3		; OFF (track offset)
 377:				;
 378:				;
 379:	E717  3A4EEA  	BOOT:	LD	A,(sysflag)
 380:	E71A  C321F0  		JP	BOOTROM
 381:			;
 382:	E71D  318000  	WBOOT:	LD	SP,stack
 383:	E720  CD3FE9  		CALL	WrtPng
 384:	E723  210400  		LD	HL,CurDsk
 385:	E726  7E      		LD	A,(HL)
 386:	E727  E60F    		AND	$0F
 387:	E729  FE06    		CP	maxdsk
 388:	E72B  3802    		JR	C,wb_1
 389:	E72D          	wb_0:
 390:	E72D  3600    		LD	(HL),$00
 391:	E72F  210000  	wb_1:	LD	HL,0
 392:	E732  2269EA  		LD	(PrePhy),HL
 393:	E735  2602    		LD	H,$02
 394:	E737  226BEA  		LD	(PreTrk+1),HL
 395:	E73A  2616    		LD	H,cpmsiz
 396:	E73C  226FEA  		LD	(PreR.W),HL
 397:	E73F  2100D0  		LD	HL,ccp
 398:	E742  226DEA  		LD	(PreDma),HL
 399:	E745  3A4EEA  		LD	A,(sysflag)
 400:	E748  B7      		OR	A
 401:	E749  200B    		JR	NZ,fd_wb
 402:	E74B          	wd_wb:
 403:	E74B  2169EA  		LD	HL,PrePhy
 404:	E74E  CD1BF0  		CALL	WDIO
 405:	E751  B7      		OR	A
 406:	E752  207F    		JR	NZ,exboot
 407:	E754  182C    		JR	syschk
 408:			;
 409:	E756  0616    	fd_wb:	LD	B,cpmsiz
 410:	E758  11CAE7  		LD	DE,wbxlt+1
 411:	E75B          	fd_wb.3:
 412:	E75B  C5      		PUSH	BC
 413:	E75C  D5      		PUSH	DE
 414:	E75D  1A      		LD	A,(DE)
 415:	E75E  326CEA  		LD	(PreSec),A
 416:	E761  2169EA  		LD	HL,PrePhy
 417:	E764  CD15F0  		CALL	FDIOD
 418:	E767  D1      		POP	DE
 419:	E768  C1      		POP	BC
 420:	E769  B7      		OR	A
 421:	E76A  2067    		JR	NZ,exboot
 422:	E76C  216EEA  		LD	HL,PreDma+1
 423:	E76F  34      		INC	(HL)
 424:	E770  05      		DEC	B
 425:	E771  280F    		JR	Z,syschk
 426:	E773  13      		INC	DE
 427:	E774  7B      		LD	A,E
 428:	E775  FED3    		CP	low (wbxlt+fddsec)
 429:	E777  20E2    		JR	NZ,fd_wb.3
 430:	E779  216AEA  		LD	HL,PreTrk
 431:	E77C  34      		INC	(HL)
 432:	E77D  11C9E7  		LD	DE,wbxlt
 433:	E780  18D9    		JR	fd_wb.3
 434:			;
 435:	E782  3A02D0  	syschk:	LD	A,(ccp+2)
 436:	E785  FED3    		CP	high (ccp+35CH)
 437:	E787  204A    		JR	NZ,exboot
 438:	E789  3EC3    		LD	A,$C3
 439:	E78B  320000  		LD	($0000),A
 440:	E78E  2103E6  		LD	HL,wboote
 441:	E791  220100  		LD	($0001),HL
 442:	E794  320500  		LD	($0005),A
 443:	E797  2106D8  		LD	HL,bdos
 444:	E79A  220600  		LD	($0006),HL
 445:	E79D  3EFF    		LD	A,$FF
 446:	E79F  3268EA  		LD	(PreDsk),A
 447:	E7A2  2100EC  		LD	HL,defbuf
 448:	E7A5  226DEA  		LD	(PreDma),HL
 449:	E7A8  018000  		LD	BC,defdma
 450:	E7AB  CD76E8  		CALL	SETDMA
 451:	E7AE  3A0400  		LD	A,(CurDsk)
 452:	E7B1  4F      		LD	C,A
 453:	E7B2  C300D0  		JP	ccp
 454:			;
 455:	E7B5 .. E7C8 00		DEFS	20
 456:	E7C9  01070309	wbxlt:	DEFB	1,7,3,9,5,2,8,4,10,6
	      05020804
	      0A06
 457:			;
 458:	E7D3          	exboot:
 459:	E7D3          	exbot1:
 460:	E7D3  11B8E9  		LD	DE,nosysmsg
 461:	E7D6  CDADE9  		CALL	msgcr
 462:	E7D9  C32FE7  		JP	wb_1
 463:			;
 464:	E7DC  3A0300  	CONST:	LD	A,(IOBYTE)
 465:	E7DF  E603    		AND	$03
 466:	E7E1  FE02    		CP	$02
 467:	E7E3  DA09F0  		JP	C,CSTS
 468:	E7E6  1846    		JR	notdev
 469:			;
 470:	E7E8  3A0300  	CONIN:	LD	A,(IOBYTE)
 471:	E7EB  E603    		AND	$03
 472:	E7ED  FE02    		CP	$02
 473:	E7EF  303D    		JR	NC,notdev
 474:	E7F1  DDE5    		PUSH	IX
 475:	E7F3  CD03F0  		CALL	CIN
 476:	E7F6  DDE1    		POP	IX
 477:	E7F8  C9      		RET
 478:			;
 479:	E7F9  3A0300  	CONOUT:	LD	A,(IOBYTE)
 480:	E7FC  E603    		AND	$03
 481:	E7FE  FE02    		CP	$02
 482:	E800  302C    		JR	NC,notdev
 483:	E802  DDE5    		PUSH	IX
 484:	E804  FDE5    		PUSH	IY
 485:	E806  CD06F0  		CALL	COUT
 486:	E809  FDE1    		POP	IY
 487:	E80B  DDE1    		POP	IX
 488:	E80D  C9      		RET
 489:			;
 490:	E80E  3A0300  	LISTD:	LD	A,(IOBYTE)
 491:	E811  E6C0    		AND	$C0
 492:	E813  FE80    		CP	$80
 493:	E815  DA06F0  		JP	C,COUT
 494:	E818  CA0CF0  		JP	Z,LOUT
 495:	E81B  C9      		RET
 496:			;
 497:	E81C  3A0300  	LISTST:	LD	A,(IOBYTE)
 498:	E81F  E6C0    		AND	$C0
 499:	E821  FE80    		CP	$80
 500:	E823  DA09F0  		JP	C,CSTS
 501:	E826  CA0FF0  		JP	Z,LSTS
 502:	E829  C9      		RET
 503:			;
 504:	E82A  C9      	PUNCH:	RET
 505:			;
 506:	E82B  3E1A    	READER:	LD	A,$1A
 507:	E82D  C9      		RET
 508:			;
 509:	E82E  3E81    	notdev:	LD	A,DftI.O
 510:	E830  320300  		LD	(IOBYTE),A
 511:	E833  113DEA  		LD	DE,ndevmsg
 512:	E836  CD1EF0  		CALL	PRINT
 513:	E839  C31DE7  		JP	WBOOT
 514:			;
 515:	E83C  210000  	SELDSK:	LD	HL,0
 516:	E83F  79      		LD	A,C
 517:	E840  FE06    		CP	maxdsk
 518:	E842  D0      		RET	NC
 519:	E843  3A4EEA  		LD	A,(sysflag)
 520:	E846  B7      		OR	A
 521:	E847  79      		LD	A,C
 522:	E848  2806    		JR	Z,SDsk.1
 523:	E84A  FE04    		CP	wddsiz+fddsiz
 524:	E84C  3002    		JR	NC,SDsk.1
 525:	E84E  EE02    		XOR	$02
 526:	E850  3260EA  	SDsk.1:	LD	(LogDsk),A
 527:	E853  6F      		LD	L,A
 528:	E854  29      		ADD	HL,HL
 529:	E855  29      		ADD	HL,HL
 530:	E856  29      		ADD	HL,HL
 531:	E857  29      		ADD	HL,HL
 532:	E858  1133E6  		LD	DE,dpbase
 533:	E85B  19      		ADD	HL,DE
 534:	E85C  C9      		RET
 535:			;
 536:	E85D  010000  	HOME:	LD	BC,0
 537:	E860  ED4362EA	SETTRK:	LD	(LogTrk),BC
 538:	E864  C9      		RET
 539:			;
 540:	E865          	SECTRAN:
 541:	E865  EB      		EX	DE,HL
 542:	E866  7D      		LD	A,L
 543:	E867  B4      		OR	H
 544:	E868  09      		ADD	HL,BC
 545:	E869  2804    		JR	Z,STrn_5
 546:	E86B  6E      		LD	L,(HL)
 547:	E86C  2600    		LD	H,$00
 548:	E86E  C9      		RET
 549:			;
 550:	E86F  2C      	STrn_5:	INC	L
 551:	E870  C9      		RET
 552:			;
 553:	E871  79      	SETSEC:	LD	A,C
 554:	E872  325FEA  		LD	(LogSec),A
 555:	E875  C9      		RET
 556:			;
 557:	E876  ED4365EA	SETDMA:	LD	(LogDMA),BC
 558:	E87A  C9      		RET
 559:			;
 560:	E87B  AF      	READ:	XOR	A
 561:	E87C  0E02    		LD	C,wrual
 562:	E87E  1802    		JR	rw00
 563:			;
 564:	E880  3E01    	WRITE:	LD	A,$01
 565:	E882  3267EA  	rw00:	LD	(LogR.W),A
 566:	E885  1160EA  		LD	DE,LogDsk
 567:	E888  1A      		LD	A,(DE)
 568:	E889  FE04    		CP	wddsiz+fddsiz
 569:	E88B  3831    		JR	C,RW256
 570:	E88D          	RW128:
 571:	E88D  E601    		AND	$01
 572:	E88F  3261EA  		LD	(PhyDsk),A
 573:	E892  CD3FE9  		CALL	WrtPng
 574:	E895  3A5FEA  		LD	A,(LogSec)
 575:	E898  3264EA  		LD	(PhySec),A
 576:	E89B          	RW128.1:
 577:	E89B  2161EA  		LD	HL,PhyDsk
 578:	E89E  CD12F0  		CALL	FDIOS
 579:	E8A1  2168EA  		LD	HL,PreDsk
 580:	E8A4  36FF    		LD	(HL),$FF
 581:	E8A6  B7      		OR	A
 582:	E8A7  C8      		RET	Z
 583:	E8A8  11FCE9  		LD	DE,ioerrmsg
 584:	E8AB  CD1EF0  		CALL	PRINT
 585:	E8AE  CD03F0  		CALL	CIN
 586:	E8B1  FE0D    		CP	cr
 587:	E8B3  28E6    		JR	Z,RW128.1
 588:	E8B5  FE03    		CP	'C' - '@'
 589:	E8B7  CA1DE7  		JP	Z,WBOOT
 590:	E8BA  3E01    		LD	A,$01
 591:	E8BC  B7      		OR	A
 592:	E8BD  C9      		RET
 593:			;
 594:	E8BE  2640    	RW256:	LD	H,wddspt
 595:	E8C0  FE02    		CP	wddsiz
 596:	E8C2  3802    		JR	C,R256.1
 597:	E8C4  2614    		LD	H,fddspt
 598:	E8C6  79      	R256.1:	LD	A,C
 599:	E8C7  3272EA  		LD	(WrType),A
 600:	E8CA  1B      		DEC	DE
 601:	E8CB  1A      		LD	A,(DE)
 602:	E8CC  3D      		DEC	A
 603:	E8CD  2E00    		LD	L,$00
 604:	E8CF  BC      	R256.2:	CP	H
 605:	E8D0  3804    		JR	C,R256.3
 606:	E8D2  2C      		INC	L
 607:	E8D3  94      		SUB	H
 608:	E8D4  18F9    		JR	R256.2
 609:			;
 610:	E8D6  B7      	R256.3:	OR	A
 611:	E8D7  1F      		RRA
 612:	E8D8  3C      		INC	A
 613:	E8D9  3264EA  		LD	(PhySec),A
 614:	E8DC  CB25    		SLA	L
 615:	E8DE  CB25    		SLA	L
 616:	E8E0  CB25    		SLA	L
 617:	E8E2  CB25    		SLA	L
 618:	E8E4  13      		INC	DE
 619:	E8E5  1A      		LD	A,(DE)
 620:	E8E6  E601    		AND	$01
 621:	E8E8  B5      		OR	L
 622:	E8E9  3261EA  		LD	(PhyDsk),A
 623:				;
 624:	E8EC  0605    		LD	B,$05
 625:	E8EE  2168EA  		LD	HL,PreDsk
 626:	E8F1  1A      	rw01:	LD	A,(DE)
 627:	E8F2  BE      		CP	(HL)
 628:	E8F3  2006    		JR	NZ,wtchk
 629:	E8F5  23      		INC	HL
 630:	E8F6  13      		INC	DE
 631:	E8F7  10F8    		DJNZ	rw01
 632:	E8F9  1814    		JR	match
 633:			;
 634:	E8FB  CD3FE9  	wtchk:	CALL	WrtPng
 635:	E8FE  C0      		RET	NZ
 636:	E8FF  010500  		LD	BC,5
 637:	E902  2160EA  		LD	HL,LogDsk
 638:	E905  1168EA  		LD	DE,PreDsk
 639:	E908  EDB0    		LDIR
 640:	E90A  CD4BE9  		CALL	diskrd
 641:	E90D  B7      		OR	A
 642:	E90E  C0      		RET	NZ
 643:	E90F  3A5FEA  	match:	LD	A,(LogSec)
 644:	E912  3D      		DEC	A
 645:	E913  E601    		AND	secmsk
 646:	E915  67      		LD	H,A
 647:	E916  2E00    		LD	L,$00
 648:	E918  CB3C    		SRL	H
 649:	E91A  CB1D    		RR	L
 650:	E91C  1100EC  		LD	DE,defbuf
 651:	E91F  19      		ADD	HL,DE
 652:	E920  ED5B65EA		LD	DE,(LogDMA)
 653:	E924  018000  		LD	BC,stack
 654:	E927  3A67EA  		LD	A,(LogR.W)
 655:	E92A  B7      		OR	A
 656:	E92B  2804    		JR	Z,rwbuf
 657:	E92D  3271EA  		LD	(WrtFlg),A
 658:	E930  EB      		EX	DE,HL
 659:	E931  EDB0    	rwbuf:	LDIR
 660:	E933  3A72EA  		LD	A,(WrType)
 661:	E936  FE01    		CP	wrdir
 662:	E938  3E00    		LD	A,$00
 663:	E93A  CC3FE9  		CALL	Z,WrtPng
 664:	E93D  B7      		OR	A
 665:	E93E  C9      		RET
 666:			;
 667:	E93F  2171EA  	WrtPng:	LD	HL,WrtFlg
 668:	E942  7E      		LD	A,(HL)
 669:	E943  3600    		LD	(HL),$00
 670:	E945  B7      		OR	A
 671:	E946  C8      		RET	Z
 672:	E947  CD4EE9  		CALL	diskwt
 673:	E94A  C9      		RET
 674:			;
 675:	E94B  AF      	diskrd:	XOR	A
 676:	E94C  1802    		JR	rdwt
 677:			;
 678:	E94E  3E01    	diskwt:	LD	A,$01
 679:	E950  326FEA  	rdwt:	LD	(PreR.W),A
 680:	E953  2169EA  	rdwt0:	LD	HL,PrePhy
 681:	E956  3A68EA  		LD	A,(PreDsk)
 682:	E959  FE02    		CP	wddsiz
 683:	E95B  3015    		JR	NC,fdrdwt
 684:	E95D  3E01    		LD	A,$01
 685:	E95F  3270EA  		LD	(PreBlk),A
 686:	E962  CD1BF0  		CALL	WDIO
 687:	E965  B7      		OR	A
 688:	E966  C8      		RET	Z
 689:	E967  CD8BE9  		CALL	SendErr
 690:	E96A          	NoBuff:
 691:	E96A          	rdwterr:
 692:	E96A  3EFF    		LD	A,$FF
 693:	E96C  3268EA  		LD	(PreDsk),A
 694:	E96F  E601    		AND	$01
 695:	E971  C9      		RET
 696:			;
 697:	E972          	fdrw1:
 698:	E972          	fdrdwt:
 699:	E972  CD15F0  		CALL	FDIOD
 700:	E975  B7      		OR	A
 701:	E976  C8      		RET	Z
 702:	E977  11FCE9  		LD	DE,ioerrmsg
 703:	E97A  CD1EF0  		CALL	PRINT
 704:	E97D  CD03F0  		CALL	CIN
 705:	E980  FE0D    		CP	cr
 706:	E982  28CF    		JR	Z,rdwt0
 707:	E984  FE03    		CP	'C' - '@'
 708:	E986  20E2    		JR	NZ,NoBuff
 709:	E988  C303E6  		JP	wboote
 710:			;
 711:	E98B          	SendErr:
 712:	E98B  F5      		PUSH	AF
 713:	E98C  0F      		RRCA
 714:	E98D  0F      		RRCA
 715:	E98E  0F      		RRCA
 716:	E98F  0F      		RRCA
 717:	E990  CDA4E9  		CALL	HxChar
 718:	E993  32F6E9  		LD	(ErrHig),A
 719:	E996  F1      		POP	AF
 720:	E997  CDA4E9  		CALL	HxChar
 721:	E99A  32F7E9  		LD	(ErrLow),A
 722:	E99D  11ECE9  		LD	DE,ErrMsg
 723:	E9A0  CD1EF0  		CALL	PRINT
 724:	E9A3  C9      		RET
 725:			;
 726:	E9A4  E60F    	HxChar:	AND	$0F
 727:	E9A6  C690    		ADD	A,$90
 728:	E9A8  27      		DAA
 729:	E9A9  CE40    		ADC	A,'@'
 730:	E9AB  27      		DAA
 731:	E9AC  C9      		RET
 732:			;
 733:	E9AD  CD1EF0  	msgcr:	CALL	PRINT
 734:	E9B0  CD03F0  	waitcr:	CALL	CIN
 735:	E9B3  FE0D    		CP	cr
 736:	E9B5  20F9    		JR	NZ,waitcr
 737:	E9B7  C9      		RET
 738:			;
 739:	E9B8          	nosysmsg:
 740:	E9B8  0D0A07  		DEFB	$0D,$0A,$07
 741:	E9BB  53657420		DEFB	'Set system diskette in disk A,'
	      73797374
	      656D2064
	      69736B65
	      74746520
	      696E2064
	      69736B20
	      412C
 742:	E9D9  0D0A    		DEFB	$0D,$0A
 743:	E9DB  6F6B2070		DEFB	'ok push return. $'
	      75736820
	      72657475
	      726E2E20
	      24
 744:	E9EC  0D0A07  	ErrMsg:	DEFB	$0D,$0A,$07
 745:	E9EF  4572726F		DEFB	'Error #'
	      722023
 746:	E9F6  30      	ErrHig:	DEFB	$30
 747:	E9F7  30      	ErrLow:	DEFB	$30
 748:	E9F8  202D2024		DEFB	' - $'
 749:	E9FC          	ioerrmsg:
 750:	E9FC  0D0A07  		DEFB	$0D,$0A,$07
 751:	E9FF  4449534B		DEFB	'DISK I/O ERROR'
	      20492F4F
	      20455252
	      4F52
 752:	EA0D  0D0A    		DEFB	$0D,$0A
 753:	EA0F  3C524554		DEFB	'<RETURN> retry, ^C abort, any ke'
	      55524E3E
	      20726574
	      72792C20
	      5E432061
	      626F7274
	      2C20616E
	      79206B65
 754:	EA2F  7920746F		DEFB	'y to continue$'
	      20636F6E
	      74696E75
	      6524
 755:	EA3D          	ndevmsg:
 756:	EA3D  0D0A07  		DEFB	$0D,$0A,$07
 757:	EA40  2E4E4F20		DEFB	'.NO Device.'
	      44657669
	      63652E
 758:	EA4B  0D0A    		DEFB	$0D,$0A
 759:	EA4D  24      		DEFB	'$'
 760:	EA4E          	sysflag:
 761:	EA4E  00      		DEFB	$00
 762:	EA4F          	vidareas:
 763:	EA4F .. EA5E 00		DEFS	16
 764:	EA5F  01      	LogSec:	DEFB	$01
 765:	EA60  00      	LogDsk:	DEFB	$00
 766:	EA61  00      	PhyDsk:	DEFB	$00
 767:	EA62  0000    	LogTrk:	DEFB	$00,$00
 768:	EA64  01      	PhySec:	DEFB	$01
 769:	EA65  8000    	LogDMA:	DEFB	$80,$00
 770:	EA67  00      	LogR.W:	DEFB	$00
 771:	EA68  FF      	PreDsk:	DEFB	$FF
 772:	EA69  00      	PrePhy:	DEFB	$00
 773:	EA6A  00      	PreTrk:	DEFB	$00
 774:	EA6B  00      		DEFB	$00
 775:	EA6C  01      	PreSec:	DEFB	$01
 776:	EA6D  00EC    	PreDma:	DEFW	defbuf
 777:			
 778:	EA6F  00      	PreR.W:	DEFB	$00
 779:	EA70  01      	PreBlk:	DEFB	$01
 780:	EA71  00      	WrtFlg:	DEFB	$00
 781:	EA72  01      	WrType:	DEFB	$01
 782:			;
 783:	EA73          		freeram	equ	$
 784:	0001          		if	freeram lt bios+600h
 785:	018D          		freebyt	equ	bios+600h-freeram
 786:	EA73 .. EBFF 00		defs	freebyt
 787:				else
 789:				endif
 790:			;
 791:			
 792:	EC00 .. ECFF 00	defbuf:	defs	secsiz
 793:	ED00 .. ED7F 00	dirbuf:	defs	128
 794:			
 795:				; wdd alloc & check vectors
 796:				;
 797:	ED80 .. EE33 00	alv0:	defs	((alv0siz)/8)+1		; (DSM/8)+1
 798:			csv0:	defs	0
 799:				;
 800:	EE34 .. EEE7 00	alv1:	defs	((alv1siz)/8)+1		; (DSM/8)+1
 801:			csv1:	defs	0
 802:				;
 803:				; fdd alloc & check vectors
 804:				;
 805:	EEE8 .. EEF3 00	alv2:	defs	12
 806:	EEF4 .. EF03 00	csv2:	defs	16
 807:				;
 808:	EF04 .. EF0F 00	alv3:	defs	12
 809:	EF10 .. EF1F 00	csv3:	defs	16
 810:				;
 811:				; extfdd alloc & check vectors
 812:				;
 813:	EF20 .. EF29 00	alv4:	defs	10
 814:	EF2A .. EF31 00	csv4:	defs	8
 815:				;
 816:	EF32 .. EF3B 00	alv5:	defs	10
 817:	EF3C .. EF43 00	csv5:	defs	8
 818:				;
 819:	00BC          		fre1byt	equ	bios+600h+400h-$
 820:	EF44 .. EFFF 00		defs	fre1byt
 821:				;
 822:	0A00          		dephase
 823:				;
 824:	0A00          		END



Statistics:

     5	passes
     0	jr promotions
   181	symbols
     0	bytes



Symbol Table:

alv0            ed80     extfds         =   2+    rdwt            e950     
alv0siz        = 59b+    false          =   0+    rdwt0           e953     
alv1            ee34     fd_wb           e756     rdwterr         e96a+    
alv1siz        = 59f+    fd_wb.3         e75b     read            e87b     
alv2            eee8     fddsec         =   a+    reader          e82b     
alv3            ef04     fddsiz         =   2+    rev            =  12+    
alv4            ef20     fddspt         =  14+    rever          =  48+    
alv5            ef32     fdiod          =f015+    rom            =f000+    
backsp         =   8+    fdios          =f012+    rw00            e882     
bdos           =d806+    fdrdwt          e972     rw01            e8f1     
bell           =   7+    fdrw1           e972+    rw128           e88d+    
bias           =9c00+    ffeed          =   c+    rw128.1         e89b     
bios           =e600+    flash          =  43+    rw256           e8be     
biosl          = 600+    fre1byt        =  bc+    rwbuf           e931     
biossiz        =   6+    freebyt        = 18d+    sdsk.1          e850     
boot            e717     freeram        =ea73+    secmsk         =   1+    
bootrom        =f021+    home            e85d     secsiz         = 100+    
ccp            =d000+    hxchar          e9a4     sectran         e865     
cin            =f003+    iobyte         =   3+    seldsk          e83c     
cmsize         =  3b+    ioerrmsg        e9fc     senderr         e98b     
compflg        =f02d+    lf             =   a+    setdma          e876     
conin           e7e8     listd           e80e     setsec          e871     
conout          e7f9     listst          e81c     settrk          e860     
const           e7dc     logdma          ea65     spc            =  20+    
cout           =f006+    logdsk          ea60     stack          =  80+    
cpmblk         =   2+    logr.w          ea67     stack1         =1000+    
cpml           =1600+    logsec          ea5f     strn_5          e86f     
cpmsiz         =  16+    logtrk          ea62     strout         =f01e+    
cr             =   d+    lout           =f00c+    syschk          e782     
csts           =f009+    lst            =   2+    sysflag         ea4e     
csv0            ee34     lsts           =f00f+    tab            =   9+    
csv1            eee8     match           e90f     true           =ffff+    
csv2            eef4     maxdsk         =   6+    tty            =   1+    
csv3            ef10     mimv16         =   0+    vers           =4853+    
csv4            ef2a     mimv18         =   1+    vidareas        ea4f+    
csv5            ef3c     movcurs        =f027+    vidinit        =f02a+    
curdsk         =   4+    msgcr           e9ad     waitcr          e9b0     
defbuf          ec00     msize          =  3c+    wb_0            e72d+    
defdma         =  80+    ndevmsg         ea3d     wb_1            e72f     
dfti.o         =  81+    nobuff          e96a     wboot           e71d     
dirbuf          ed00     norm           =  40+    wboote          e603     
diskrd          e94b     nosysmsg        e9b8     wbxlt           e7c9     
diskwt          e94e     notdev          e82e     wd_wb           e74b+    
dpb0            e6cc     pfx            =  13+    wddsec         =  20+    
dpb01           e6db     phydsk          ea61     wddsiz         =   2+    
dpb1            e6ea     physec          ea64     wddspt         =  40+    
dpb12           e6f9     preblk          ea70     wdini          =f018+    
dpb2            e708     predma          ea6d     wdio           =f01b+    
dpbase         =e633+    predsk          ea68     wrall          =   0+    
dpe0            e633+    prephy          ea69     wrdir          =   1+    
dpe1            e643+    prer.w          ea6f     write           e880     
dpe2            e653+    presec          ea6c     wrtflg          ea71     
dpe3            e663+    pretrk          ea6a     wrtpng          e93f     
dpe4            e673+    print          =f01e+    wrtype          ea72     
dpe5            e683+    printat        =f024+    wrual          =   2+    
endmsg         =  24+    pun            =   0+    wtchk           e8fb     
errhig          e9f6     punch           e82a     xlt0           =   0+    
errlow          e9f7     r256.1          e8c6     xlt1            e693     
errmsg          e9ec     r256.2          e8cf     xlt2            e6bb     
exboot          e7d3     r256.3          e8d6     
exbot1          e7d3+    rdr            =   0+    
