   1:			;
   2:			; disk test
   3:			;
   4:			
   5:			rsym bios.sym
   6:			
   7:			;DSELBF	EQU	$004E
   8:			;CR	EQU	$0D
   9:			;--------------------
  10:	0100          		org $0100
  11:			
  12:			
  13:	0100  C39302  	START:	JP	RECOVER
  14:			
  15:	0103 .. 0182 00	SCRTCH:	DEFS	128			; local stack area
  16:	0183          	SPAREA	EQU	$
  17:			
  18:				; include routines to print ascii values
  19:			include ../ASM/bit2040.asm
**** ../ASM/bit2040.asm ****
   1:			;;
   2:			;; Routines for binary to decimal conversion
   3:			;;
   4:			;; (C) Piergiorgio Betti <pbetti@lpconsul.net> - 2006
   5:			;;
   6:			;; The active part is taken from:
   7:			;; David Barrow - Assembler routines for the Z80
   8:			;; CENTURY COMMUNICATIONS LTD - ISBN 0 7126 0506 1
   9:			;;
  10:			
  11:			
  12:			;;
  13:			;; BIN2A8 - Convert an 8 bit value to ASCII
  14:			;;
  15:			;; INPUT	C = Value to be converted
  16:			;; OUTPUT	DE = Converted string address
  17:			;
  18:	0183  E5      	BIN2A8: PUSH	HL
  19:	0184  F5      		PUSH	AF
  20:	0185  0600    		LD	B,0
  21:	0187  ED43B301		LD	(IVAL16),BC
  22:	018B  21B301  		LD	HL,IVAL16
  23:	018E  11B501  		LD	DE,OVAL16
  24:	0191  3E01    		LD	A,1			; one byte conversion
  25:	0193  CDBD01  		CALL	LNGIBD
  26:	0196  11B501  		LD	DE,OVAL16
  27:	0199  F1      		POP	AF
  28:	019A  E1      		POP	HL
  29:	019B  C9      		RET
  30:				;
  31:			;;
  32:			;; BN2A16 - Convert a 16 bit value to ASCII
  33:			;;
  34:			;; INPUT	BC = Value to be converted
  35:			;; OUTPUT	DE = Converted string address
  36:			;
  37:	019C  E5      	BN2A16: PUSH	HL
  38:	019D  F5      		PUSH	AF
  39:	019E  ED43B301		LD	(IVAL16),BC
  40:	01A2  21B301  		LD	HL,IVAL16
  41:	01A5  11B501  		LD	DE,OVAL16
  42:	01A8  3E02    		LD	A,2			; two byte conversion
  43:	01AA  CDBD01  		CALL	LNGIBD
  44:	01AD  11B501  		LD	DE,OVAL16
  45:	01B0  F1      		POP	AF
  46:	01B1  E1      		POP	HL
  47:	01B2  C9      		RET
  48:				;
  49:			;; Generic storage
  50:			
  51:	01B3 .. 01B4 00	IVAL16:	DEFS	2
  52:	01B5 .. 01BA 00	OVAL16:	DEFS	6
  53:			
  54:			;;
  55:			;;
  56:			;; LNGIBD - Convert long integer of given precision to ASCII
  57:			;;
  58:			;; INPUT	HL addresses the first byte of the binary value
  59:			;;		which must be stored with the low order byte in
  60:			;;		lowest memory.
  61:			;;		DE addresses the first byte of the destination
  62:			;;		area which must be larger enough to accept the
  63:			;;		decimal result (2.42 * binary lenght + 1).
  64:			;;		A = binary byte lenght (1 to 255)
  65:			
  66:			;;
  67:	000A          	CVBASE	EQU	10		; CONVERSION BASE
  68:	01BB          	VPTR	EQU	HILO		; STORAGE AREA EQU
  69:			
  70:			
  71:	01BB .. 01BC 00	HILO:	DEFS	2		; STORAGE AREA
  72:			
  73:	01BD  4F      	LNGIBD:	LD	C,A
  74:	01BE  0600    		LD	B,0
  75:	01C0  2B      		DEC	HL
  76:	01C1  22BB01  		LD	(VPTR),HL
  77:	01C4  3EFF    		LD	A,-1
  78:	01C6  12      		LD	(DE),A
  79:	01C7  09      		ADD	HL,BC
  80:				;
  81:	01C8  7E      	NXTMSB:	LD	A,(HL)
  82:	01C9  B7      		OR	A
  83:	01CA  C2D901  		JP	NZ,MSBFND
  84:	01CD  2B      		DEC	HL
  85:	01CE  0D      		DEC	C
  86:	01CF  C2C801  		JP	NZ,NXTMSB
  87:				;
  88:	01D2  EB      		EX	DE,HL
  89:	01D3  3630    		LD	(HL),'0'
  90:	01D5  23      		INC	HL
  91:	01D6  3600    		LD	(HL),0
  92:	01D8  C9      		RET
  93:				;
  94:	01D9  47      	MSBFND:	LD	B,A
  95:	01DA  3E80    		LD	A,$80
  96:				;
  97:	01DC  B8      	NXTMSK:	CP	B
  98:	01DD  DAE701  		JP	C,MSKFND
  99:	01E0  CAE701  		JP	Z,MSKFND
 100:	01E3  0F      		RRCA
 101:	01E4  C3DC01  		JP	NXTMSK
 102:				;
 103:	01E7  47      	MSKFND:	LD	B,A
 104:	01E8  C5      		PUSH	BC
 105:	01E9  2ABB01  		LD	HL,(VPTR)
 106:	01EC  0600    		LD	B,0
 107:	01EE  09      		ADD	HL,BC
 108:	01EF  A6      		AND	(HL)
 109:	01F0  C6FF    		ADD	A,$FF
 110:	01F2  6B      		LD	L,E
 111:	01F3  62      		LD	H,D
 112:				;
 113:	01F4  7E      	NXTOPV:	LD	A,(HL)
 114:	01F5  3C      		INC	A
 115:	01F6  CA0802  		JP	Z,OPVDON
 116:	01F9  3D      		DEC	A
 117:	01FA  8F      		ADC	A,A
 118:				;
 119:	01FB  FE0A    		CP	CVBASE
 120:	01FD  DA0202  		JP	C,NOCOUL
 121:	0200  D60A    		SUB	CVBASE
 122:	0202  3F      	NOCOUL:	CCF
 123:				;
 124:	0203  77      		LD	(HL),A
 125:	0204  23      		INC	HL
 126:	0205  C3F401  		JP	NXTOPV
 127:				;
 128:	0208  D21002  	OPVDON:	JP	NC,EXTDON
 129:	020B  3601    		LD	(HL),1
 130:	020D  23      		INC	HL
 131:	020E  36FF    		LD	(HL),-1
 132:				;
 133:	0210  C1      	EXTDON:	POP	BC
 134:	0211  78      		LD	A,B
 135:	0212  0F      		RRCA
 136:	0213  D2E701  		JP	NC,MSKFND
 137:	0216  0D      		DEC	C
 138:	0217  C2E701  		JP	NZ,MSKFND
 139:				;
 140:				; REVERSE DIGIT ORDER. ADD ASCII DIGITS HI-NIBBLES
 141:	021A  3600    		LD	(HL),0
 142:				;
 143:	021C  2B      	NXTCNV:	DEC	HL
 144:	021D  7D      		LD	A,L
 145:	021E  93      		SUB	E
 146:	021F  7C      		LD	A,H
 147:	0220  9A      		SBC	A,D
 148:	0221  D8      		RET	C
 149:				;
 150:	0222  1A      		LD	A,(DE)
 151:	0223  F630    		OR	$30
 152:	0225  47      		LD	B,A
 153:	0226  7E      		LD	A,(HL)
 154:	0227  F630    		OR	$30
 155:	0229  70      		LD	(HL),B
 156:	022A  12      		LD	(DE),A
 157:				;
 158:	022B  13      		INC	DE
 159:	022C  C31C02  		JP	NXTCNV
 160:			
 161:			;-----------------------------------------------
**** disktest.asm ****
  20:			
  21:			;START:	jp	STEP4
  22:			;
  23:	0001          	NDRIVE	EQU	1
  24:	0200          	SECSIZ	EQU	512
  25:	000B          	SECNUM	EQU	11
  26:	00A0          	NTRACK	EQU	160
  27:			
  28:	0008          	BS	EQU	08H		;ASCII 	backspace
  29:	0009          	TAB	EQU	09H		;	tab
  30:	000A          	LF	EQU	0AH		;	line feed
  31:	000C          	FORMF	EQU	0CH		;	form feed
  32:	000D          	CR	EQU	0DH		;	carriage return
  33:	001B          	ESC	EQU	1BH		;       escape
  34:	0018          	CTLX	EQU	'X' and	1fh	;	control	x - delete line
  35:	0003          	CTLC	EQU	'C' and	1fh	;	control	c - warm boot
  36:	001A          	EOF	EQU	'Z' and	1fh	;	control	z - logical eof
  37:	0027          	QUOTE	EQU	27H		;	quote
  38:	007E          	TILDE	EQU	7EH		;	tilde
  39:	007F          	DEL	EQU	7FH		;	del
  40:			
  41:	0005          	BDOSA	EQU	5
  42:	0003          	CTLC	EQU	'C' and	1fh	;	control	c - warm boot
  43:			
  44:			
  45:	022F  2054726B	STMSG1:	defb	" Trk.: ",0
	      2E3A2000
  46:	0237  20536563	STMSG2:	defb	" Sec.: ",0
	      2E3A2000
  47:	023F  204F4B20	STMOK:	defb	" OK -> ",0
	      2D3E2000
  48:	0247  4E4F4B20	STMNOK:	defb	"NOK -> ",0
	      2D3E2000
  49:	024F  0C0D0A0D	SGON:	DEFB	$0C,CR,LF,CR,LF,"Z80 DARKSTAR",CR,LF,0
	      0A5A3830
	      20444152
	      4B535441
	      520D0A00
  50:	0263  44455354		DEFB	"DESTRUCTIVE DISK TEST",CR,LF,0
	      52554354
	      49564520
	      4449534B
	      20544553
	      540D0A00
  51:	027B  0D0A00  	MCRLF:	DEFB	CR,LF,0
  52:	027E  53656C65	MDCHO:	DEFB	"Select drive (A/B): ",$00
	      63742064
	      72697665
	      2028412F
	      42293A20
	      00
  53:			;
  54:			;       begin the load operation
  55:			;
  56:	0293          	RECOVER:
  57:	0293  318301  		LD	SP,SPAREA		; init stack
  58:	0296  214F02  		LD	HL,SGON
  59:	0299  CDBE03  		CALL	ZSDSP
  60:			; 	CALL	TTYI
  61:			; 	CP	CTLC
  62:			; 	JP	Z,EXIT
  63:			
  64:	029C  217E02  	DRVID:	LD	HL,MDCHO		; ask for drive id
  65:	029F  CDBE03  		CALL	ZSDSP			;
  66:	02A2  CDA503  		CALL	GCHR			;
  67:	02A5  FE03    		CP	$03			; CTRL+C ?
  68:	02A7  CA9C03  		JP	Z,EXIT			; exit
  69:	02AA  FE41    		CP	'A'			; is A or B ?
  70:	02AC  FA9C02  		JP	M,DRVID			;
  71:	02AF  FE43    		CP	'C'			;
  72:	02B1  F29C02  		JP	P,DRVID			; no
  73:	02B4  D641    		SUB	'A'			; makes number
  74:	02B6  320206  		LD	(RDSK),A
  75:	02B9  217B02  		LD	HL,MCRLF
  76:	02BC  CDBE03  		CALL	ZSDSP
  77:			
  78:	02BF  110002  		LD	DE,SECSIZ
  79:	02C2  210204  		LD	HL,BUFDMA
  80:	02C5  0600    		LD	B,0
  81:	02C7  70      	PRDMA:	LD	(HL),B
  82:	02C8  04      		INC	B
  83:	02C9  23      		INC	HL
  84:	02CA  1B      		DEC	DE
  85:	02CB  7A      		LD	A,D
  86:	02CC  B3      		OR	E
  87:	02CD  20F8    		JR	NZ,PRDMA
  88:			
  89:	02CF  210000  		LD	HL,0
  90:	02D2  220506  		LD	(RTRK),HL
  91:	02D5  23      		INC	HL
  92:	02D6  220306  		LD	(RSEC),HL
  93:	02D9          	STEP1:
  94:	02D9  CDEC03  		CALL	TTYQ
  95:	02DC  FE03    		CP	CTLC
  96:	02DE  CA9C03  		JP	Z,EXIT
  97:			
  98:	02E1  010204  		LD	BC,BUFDMA
  99:	02E4  CD3C03  		CALL	SETSEK
 100:	02E7  CD2DDB  		CALL	WRITEHST
 101:			
 102:	02EA  010706  		LD	BC,RDMA
 103:	02ED  CD3C03  		CALL	SETSEK
 104:	02F0  CDFDDA  		CALL	READHST
 105:			
 106:	02F3  210204  		LD	HL,BUFDMA
 107:	02F6  110706  		LD	DE,RDMA
 108:	02F9  010002  		LD	BC,SECSIZ
 109:	02FC  1A      	CTBUF:	LD	A,(DE)
 110:	02FD  EDA1    		CPI
 111:	02FF  200D    		JR	NZ,CTNOK
 112:	0301  13      		INC	DE
 113:	0302  78      		LD	A,B
 114:	0303  B1      		OR	C
 115:	0304  20F6    		JR	NZ,CTBUF
 116:	0306  213F02  		LD	HL,STMOK
 117:	0309  CD5803  		CALL	AVMSG
 118:	030C  180B    		JR	STEP2
 119:	030E          	CTNOK:
 120:	030E  214702  		LD	HL,STMNOK
 121:	0311  CD5803  		CALL	AVMSG
 122:	0314  0E0A    		LD	C,LF
 123:	0316  CDCB03  		CALL	TTYO
 124:			
 125:	0319          	STEP2:
 126:	0319  210306  		LD	HL,RSEC
 127:	031C  34      		INC	(HL)
 128:	031D  3A0306  		LD	A,(RSEC)
 129:	0320  FE0C    		CP	SECNUM+1	; EOT ?
 130:	0322  2802    		JR	Z, STEP3	; NXT TRK
 131:	0324  18B3    		JR	STEP1		; NXT SEC
 132:	0326          	STEP3:
 133:	0326  210506  		LD	HL,RTRK
 134:	0329  34      		INC	(HL)
 135:	032A  3A0506  		LD	A,(RTRK)
 136:	032D  FEA0    		CP	NTRACK
 137:	032F  2808    		JR	Z,RECOVEND
 138:	0331  3E01    		LD	A,1
 139:	0333  320306  		LD	(RSEC),A	; LOOP
 140:	0336  C3D902  		JP	STEP1
 141:	0339          	RECOVEND:
 142:	0339  C39C03  		JP	EXIT
 143:			
 144:	033C          	SETSEK:
 145:			; 	LD	BC,BUFDMA		; set DMA to buffer
 146:	033C  CD11DD  		CALL	BSETDMA
 147:	033F  3A0206  		LD	A,(RDSK)		; set disk
 148:	0342  4F      		LD	C,A
 149:	0343  CD16DD  		CALL	BSELDSK			; ... hw
 150:	0346  CD7DDA  		CALL	SELDSK			; ... logical
 151:	0349  ED4B0506		LD	BC,(RTRK)		; set track
 152:	034D  CD07DD  		CALL	BSETTRK
 153:	0350  3A0306  		LD	A,(RSEC)		; set sector
 154:	0353  3D      		DEC	A
 155:	0354  326DDD  		LD	(HSTLGS),A
 156:	0357  C9      		RET
 157:			
 158:	0358          	AVMSG:
 159:	0358  CDBE03  		CALL	ZSDSP			;
 160:	035B  212F02  		LD	HL,STMSG1		; inform user about progress
 161:	035E  CDBE03  		CALL	ZSDSP			;
 162:	0361  3A0506  		LD	A,(RTRK)		; track
 163:	0364  4F      		LD	C,A			;
 164:	0365  CD8301  		CALL	BIN2A8			;
 165:	0368  21B501  		LD	HL,OVAL16		;
 166:	036B  CDBE03  		CALL	ZSDSP			;
 167:	036E  213702  		LD	HL,STMSG2		;
 168:	0371  CDBE03  		CALL	ZSDSP			;
 169:	0374  3A0306  		LD	A,(RSEC)		; side
 170:	0377  4F      		LD	C,A			;
 171:	0378  CD8301  		CALL	BIN2A8			;
 172:	037B  21B501  		LD	HL,OVAL16		;
 173:	037E  CDBE03  		CALL	ZSDSP			;
 174:	0381  0E20    		LD	C,' '
 175:	0383  CDCB03  		CALL	TTYO
 176:	0386  0E0D    		LD	C,CR			;
 177:	0388  CDCB03  		CALL	TTYO			; at beginning of line
 178:	038B  C9      		RET
 179:			
 180:	038C  5445524D	MTRM:	DEFB	"TERMINATED...",CR,LF,0
	      494E4154
	      45442E2E
	      2E0D0A00
 181:	039C          	EXIT:
 182:	039C  218C03  		LD	HL,MTRM
 183:	039F  CDBE03  		CALL	ZSDSP
 184:	03A2  C30000  		JP	$0000
 185:			
 186:	03A5          	GCHR:
 187:	03A5  CDDA03  		CALL	TTYI			; take from console
 188:	03A8  E67F    		AND	$7F			;
 189:	03AA  FE60    		CP	$60			;
 190:	03AC  FAB603  		JP	M,GCDSP			; verify alpha
 191:	03AF  FE7B    		CP	$7B			;
 192:	03B1  F2B603  		JP	P,GCDSP			;
 193:	03B4  CBAF    		RES	5,A			; convert to uppercase
 194:	03B6  C5      	GCDSP:	PUSH	BC			;
 195:	03B7  4F      		LD	C,A			;
 196:	03B8  CDCB03  		CALL	TTYO			;
 197:	03BB  79      		LD	A,C			;
 198:	03BC  C1      		POP	BC			;
 199:	03BD  C9      		RET				;
 200:			
 201:			
 202:	03BE  7E      	ZSDSP:	LD	A,(HL)			; pick char pointed by HL
 203:	03BF  B7      		OR	A			; is the terminating NUL ?
 204:	03C0  C8      		RET	Z			; yes
 205:	03C1  E5      		PUSH	HL			; no
 206:	03C2  4F      		LD	C,A			;
 207:	03C3  CDCB03  		CALL	TTYO			; display it
 208:	03C6  E1      		POP	HL			;
 209:	03C7  23      		INC	HL			;
 210:	03C8  C3BE03  		JP	ZSDSP			;
 211:			
 212:	03CB          	TTYO:
 213:	03CB  F5      		PUSH	AF
 214:	03CC  C5      		PUSH	BC
 215:	03CD  D5      		PUSH	DE
 216:	03CE  E5      		PUSH	HL
 217:	03CF  59      		LD	E,C
 218:	03D0  0E02    		LD	C,2
 219:	03D2  CD0500  		CALL 	BDOSA
 220:	03D5  E1      		POP	HL
 221:	03D6  D1      		POP	DE
 222:	03D7  C1      		POP	BC
 223:	03D8  F1      		POP	AF
 224:	03D9  C9      		RET
 225:			
 226:	03DA          	TTYI:
 227:	03DA  C5      		PUSH	BC
 228:	03DB  D5      		PUSH	DE
 229:	03DC  E5      		PUSH	HL
 230:	03DD  0E06    	TTYI00:	LD	C,6
 231:	03DF  1EFF    		LD	E,0FFH
 232:	03E1  CD0500  		CALL 	BDOSA
 233:	03E4  E67F    		AND	7FH
 234:	03E6  28F5    		JR	Z,TTYI00
 235:	03E8  E1      		POP	HL
 236:	03E9  D1      		POP	DE
 237:	03EA  C1      		POP	BC
 238:	03EB  C9      		RET
 239:	03EC          	TTYQ:
 240:	03EC  C5      		PUSH	BC
 241:	03ED  D5      		PUSH	DE
 242:	03EE  E5      		PUSH	HL
 243:	03EF  0E0B    		LD	C,11
 244:	03F1  CD0500  		CALL	BDOSA
 245:	03F4  A7      		AND	A
 246:	03F5  0E06    		LD	C,6
 247:	03F7  1EFF    		LD	E,0FFH
 248:	03F9  C406CA  		CALL	NZ,BDOS
 249:	03FC  E1      		POP	HL
 250:	03FD  D1      		POP	DE
 251:	03FE  C1      		POP	BC
 252:	03FF  E67F    		AND	7FH
 253:	0401  C9      		RET
 254:			
 255:	0402          	ENDTXT	EQU	$
 256:			
 257:	0402 .. 0601 00	BUFDMA:	DEFS	512
 258:	0602  01      	RDSK:	DEFB	NDRIVE
 259:	0603  0100    	RSEC:	defw	1
 260:	0605  0000    	RTRK:	defw	0
 261:	0607 .. 0806 00	RDMA:	DEFS	SECSIZ
 262:			
 263:			
 264:			
 265:	0807          		END



Statistics:

     5	passes
     0	jr promotions
   573	symbols
     0	bytes



Symbol Table:

aftrio          dca3+    dfmt256            0+    r3lcr              3+    
all00           dff7+    dfmt512         ffff+    r4mcr              4+    
all01           e02e+    diff16          dd01+    r5lsr              5+    
all02           e0e5+    dirbf           df77+    r6msr              6+    
all03           e11c+    dly1            fd89+    r7spr              7+    
alloc           dbfb+    dly2            fd87+    ram0buf           3b+    
altprnprt          3+    dmaadr          dd75+    ram1buf           3c+    
appbuf            2e+    dpbase          d837+    ram2buf           3d+    
avmsg            358     dpbnds          d882+    ram3buf           3e+    
base               0+    dpbvrt          d857+    ramtbl          e000+    
bbappp             e+    dreadh          db00+    rcp             e200+    
bbbase          f000+    drvid            29c     rcps              10+    
bbcalret        fd5a+    dselbf            4e+    rdflo           db13+    
bbcbank            c+    dwrith          db30+    rdma             607     
bbcomn          fc00+    eep29c             4+    rdsk             602     
bbconin         fd94+    eep29ee            1+    rdvrt           db22+    
bbconout        fd9f+    eep29xe            2+    readcfg8255       92+    
bbconst         fdaa+    eepage0           c0+    readhst         dafd     
bbcpboot        fcc9+    eeproglock        10+    recovend         339     
bbcptime        fcc3+    eepsta          f000+    recover          293     
bbcrtcini       fc03+    eepunsupp          8+    regastatus        16+    
bbcrtfill       fc09+    eerineprom        80+    regcommand         f+    
bbcstck            d+    enddat          e1d3+    regcontrol        16+    
bbcurset        fc21+    endtxt         = 402+    regcyllsb          c+    
bbdebug         ffff+    eof            =  1a+    regcylmsb          d+    
bbdiv16         fce1+    erflag          dd5f+    regdata            8+    
bbdmaset        fcb7+    esc            =  1b+    regerr             9+    
bbdriveid       fcf9+    exit             39c     regseccnt          a+    
bbdsksel        fcbd+    expath          edf4+    regsector          b+    
bbeidck         fd23+    expaths            5+    regshd             e+    
bbepmngr        fd1d+    extdon           210     regstatus          f+    
bbexec          fd29+    extfcb          edd0+    resroom          400+    
bbfdrvsel       fcdb+    extrabias       1200+    rhstfi          dc66+    
bbfhome         fc81+    extstk          efd0+    rldrom          fe79+    
bbflopio        fc93+    false              0+    rsec             603     
bbfread         fc87+    fcp             ea00+    rst7sp1           38+    
bbfwrite        fc8d+    fcps               4+    rst7sp2           39+    
bbhdboot        fd11+    fdcbase           d0+    rst7sp3           3a+    
bbhdgeo         fd0b+    fdccmdstatr       d0+    rtbsiz           3c0+    
bbhdinit        fcf3+    fdcdatareg        d7+    rtcbuf          da5b+    
bbhdrd          fd05+    fdcdrvrcnt        d6+    rtrk             605     
bbhdwr          fcff+    fdcreadc          88+    rwmove          dcef+    
bbimgp             4+    fdcrestc           7+    rwoper          dc02+    
bbinictc        fc57+    fdcsectreg        d2+    rwoshf          dc09+    
bbjtobnk        fc00+    fdcseekc          17+    sconin          fc2d+    
bbldpart        fd17+    fdctrakreg        d1+    sconout         fc27+    
bbmul16         fce7+    fdcwritc          a8+    sconst          fc33+    
bboffcal        fced+    fdrvbuf           45+    scrtch           103+    
bbpag              f+    ff                 c+    secnum         =   b+    
bbprcvblk       fc6f+    fifblok            b+    secsiz         = 200+    
bbprnchr        fc99+    fifoend           25+    sectran         dade+    
bbpsndblk       fc63+    fifokb            1a+    seg1            e200+    
bbrdtime        fca5+    fifosto            f+    seg10           ec00+    
bbrdvdsk        fc75+    fifou0             f+    seg11           ef00+    
bbresctc        fc5d+    fifsize            8+    seg12           efd0+    
bbsecset        fcb1+    fin             fdc4+    seg2            ea00+    
bbsidset        fcd5+    fixblock           0+    seg3            ea00+    
bbstack         feb4+    formf          =   c+    seg4            ed00+    
bbstbase        fe90+    fout            fde1+    seg5            ed80+    
bbsttim         fc9f+    frdpbuf           41+    seg6            edd0+    
bbtrkset        fcab+    fsecbuf           43+    seg7            edf4+    
bbu0ini         fc39+    fsekbuf           3f+    seg8            edff+    
bbu1ini         fc51+    fstat           fdb5+    seg9            ee00+    
bbu1rx          fc45+    ftrkbuf           46+    sekdsk          dd65+    
bbu1st          fc4b+    gcdsp            3b6     sekhst          dd74+    
bbu1tx          fc3f+    gchr             3a5     seksec          dd68+    
bbuplchr        fc69+    gocpm           d9f1+    sektrk          dd66+    
bbvcpmbt        fccf+    haseds          ffff+    selact          da98+    
bbvoid          fd6a+    hilo             1bb     seldsk          da7d     
bbwrvdsk        fc7b+    hmempag            b+    selflp          dac0+    
bdos            ca06+    home            da65+    selhdd          dac6+    
bdosa          =   5+    homflo          da73+    selndb          dabb+    
bdosb           ca00+    hstact          dd5e+    selvrt          dac7+    
bdwtyp          dd62+    hstbsz           200+    setdma          dad9+    
begdat          dd5e+    hstbuf          dd77+    setsec          dad4+    
bfailmsg        d902+    hstdsk          dd6f+    setsek           33c     
bias            8e00+    hstfil          dc6e+    settrk          dacf+    
bin2a8           183     hstfrd          dca0+    sgon             24f     
biohby            d8+    hstful          dc48+    shsize            20+    
bioreas          a00+    hstlgs          dd6d     shstk           ed00+    
bios            d800+    hstloa          dc37+    shstks             4+    
biosiz           55e+    hstrdd          dc3a+    signon          d8a8+    
biostds          600+    hstrsf          dcc5+    sintvec         fff0+    
bldoffs         3000+    hstsec          dd72+    sk2hst          dcb2+    
blifastblok       60+    hstsyn          dc45+    sparea         = 183+    
blifastline       6a+    hsttmp          dd6e+    start            100+    
blislowblok       40+    hsttrk          dd70+    step1            2d9     
blislowline       4a+    hstwrt          dd60+    step2            319     
bn2a16           19c+    idea0line          1+    step3            326     
bootfail        d9e9+    idea1line          2+    stmnok           247     
botdsk          d836+    idea2line          4+    stmok            23f     
botok           d93f+    idecs0line         8+    stmpp2          ffff+    
bs             =   8+    idecs1line        10+    stmpzs             0+    
bseldsk         dd16     ideporta          e0+    stmsg1           22f     
bsetdma         dd11     ideportb          e1+    stmsg2           237     
bsetsec         dd0c+    ideportc          e2+    synpnd          dcf2+    
bsettrk         dd07     ideportctrl       e3+    sysbase         f000+    
btpasiz            6+    iderdline         40+    syscmlo         feb4+    
bufdma           402     iderstline        80+    syscom          fc00+    
cbboot          d914+    idewrline         20+    syshertz          13+    
cbread          db7b+    idisk1            24+    sytimr          fe19+    
cbrev              f+    idisk2            24+    tab            =   9+    
ccp             c200+    idisk3             1+    tblblk            30+    
cdisk              4+    idisk4             1+    tdesclen          14+    
chk00           e065+    imtpag            ff+    tiaddrlen          4+    
chk01           e0a5+    imtsiz           400+    tilde          =  7e+    
chk02           e153+    intrdi          fe0f+    time            da54+    
chk03           e193+    intren          fdfe+    timrcon           28+    
chksid          db61+    intron             0+    tmpbyte           4b+    
chkuna          dbb6+    iobval            95+    tnamelen           8+    
cldcmnd         da28+    iobyte             3+    tpa              100+    
clkday          da5e+    ioflag          dd61+    tpagelen           2+    
clkdow          da60+    iop                0+    trans           d877+    
clkhr           da5d+    iops               0+    trnpag             d+    
clkio              6+    iuser1            24+    true            ffff+    
clkmm           da5c+    iuser2             f+    tsizelen           4+    
clkmon          da5f+    iuser3            24+    ttyi             3da     
clkrst             7+    iuser4             f+    ttyi00           3dd     
clksclk            5+    ival16           1b3     ttyo             3cb     
clkse           da5b+    kbdbyte           4d+    ttyq             3ec     
clkyea          da61+    keybstrbbit        7+    u0defspeed         6+    
cloisr          da62+    lf             =   a+    u0isr           fe25+    
cmdid             ec+    lngibd           1bd     u1defspeed         c+    
cmdinit           91+    lsect           d9c1+    u1isr           fe59+    
cmdread           20+    maxblk            14+    u1nul           fe70+    
cmdrecal          10+    mconin          dd1b+    uart0             c0+    
cmdset          da4f+    mconout         dd2c+    uart0base         c0+    
cmdspindown       e0+    mconst          dd3b+    uart0br           2c+    
cmdspinup         e1+    mcrlf            27b     uart1             c8+    
cmdwrite          30+    mdcho            27e     uart115k2          1+    
cnfbyte           27+    menaprt           21+    uart1200          60+    
colbuf            4f+    miobyte           4c+    uart19k2           6+    
coldbeg         da3e+    mmgetp          fd78+    uart1base         c8+    
coldend         da45+    mmpmap          fd6b+    uart1br           2b+    
constr          dd4f+    mmtpapag          ef+    uart2400          30+    
cont            d9d1+    mmuport           20+    uart38k4           3+    
copsys            2d+    mmutstaddr      d000+    uart4800          18+    
cpmsiz          1bde+    mmutstpage         d+    uart57k6           2+    
cr             =   d+    mnodev          dd4a+    uart9600           c+    
crdureg         fc27+    monmaj            33+    uastav          fe84+    
crt6545adst       8c+    monmin            32+    uastkb          fe86+    
crt6545data       8d+    msbfnd           1d9     uisre           fe4e+    
crtbase           80+    mscnt             f6+    uisri           fe32+    
crtbeepport       8f+    msize             3c+    unacnt          dd64+    
crtblinkbit        0+    mskfnd           1e7     unadsk          dd69+    
crthilitbit        3+    mtrm             38c     unasec          dd6c+    
crtkeybcnt        87+    mzmac              1+    unatrk          dd6a+    
crtkeybdat        85+    ndrive         =   1+    usenodeblock       0+    
crtmodebit         4+    nextop          d9d4+    vconin          fc15+    
crtprntcnt        83+    nocoul           202     vconout         fc0f+    
crtprntdat        81+    noovf           dbf4+    vconst          fc1b+    
crtram0cnt        82+    noprow          dd63+    vdbufsz            a+    
crtram0dat        80+    ntrack         =  a0+    vdrdsec            0+    
crtram1cnt        86+    nxtcnv           21c     vdskbuf           30+    
crtram1dat        84+    nxtmsb           1c8     vdwrsec            1+    
crtram2cnt        8a+    nxtmsk           1dc     vers              16+    
crtram2dat        88+    nxtopv           1f4     voidisr         fe22+    
crtram3port       8e+    opvdon           208     vptr           = 1bb+    
crtrevrsbit        1+    oval16           1b5     wboot           d986+    
crtservcnt        8b+    path            da46+    wboote          d803+    
crtservdat        89+    phydpt          d8a6+    whstfi          dc5f+    
crtunderbit        2+    phylen             a+    wrall              0+    
crtwidthbit        1+    phyoff             f+    wrdir              1+    
cslp0           dd50+    phyprm          d89b+    wrfl2           db53+    
ctbuf            2fc     physpt          d8a5+    wrflo           db43+    
ctc0tc            2a+    phystr          dae1+    wrflt           db47+    
ctc0tchi          20+    pio2bit2           2+    write           db8e+    
ctc1tc            29+    pio2bit3           3+    writecfg8255      80+    
ctc1tc100hz        5+    pio2bit4           4+    writehst        db2d     
ctc1tc10hz        30+    ppakstb            1+    wrttmp          dd73+    
ctc1tc25hz        13+    ppcntrp            2+    wrual              2+    
ctc1tc2hz         f4+    ppdatap            3+    wrvrt           db56+    
ctc1tc50hz         a+    ppdini             0+    z3cl            ef00+    
ctcbase           e8+    ppdokg             2+    z3cls             d0+    
ctcchan0          e8+    ppdrdy             4+    z3env           ec00+    
ctcchan1          e9+    ppdstp             6+    z3envs             2+    
ctcchan2          ea+    ppstrob            0+    z3msg           ed80+    
ctcchan3          eb+    ppuack             7+    z3ndir          ee00+    
ctlc           =   3+    ppuini             1+    z3ndirs           1c+    
ctlx           =  18+    ppuokg             3+    z3rev             21+    
ctnok            30e     ppurdy             5+    z3whl           edff+    
curpbuf           48+    prdma            2c7     zbufbas         e200+    
cursoroff         20+    prntbusybit        0+    zdsstpr         e838+    
cursoron           a+    prvtop            4f+    zdsstsz          1c8+    
cursshp           4a+    quote          =  27+    zero128         da35+    
cvbase         =   a+    r0brdl             0+    zerom           da37+    
cwflg           da3d+    r0rxtx             0+    zflopkg          200+    
datsiz           475+    r1brdm             1+    ziopkg             0+    
del            =  7f+    r1ier              1+    zrespkg          800+    
delay           fd85+    r2fcr              2+    zsdsp            3be     
dfmt128            0+    r2iir              2+    zstdovr          400+    
