   1:			;;
   2:			;; SYSTRN.ASM
   3:			;; (c) 2006 Piergiorgio Betti <pbetti@lpconsul.net>
   4:			;; This is a freeware program. You can use it without limitations.
   5:			;;
   6:			;;-----------------------------------------------------------------------------
   7:			;; Simple utility to transfer system (CP/M) sectors from
   8:			;; disk to disk
   9:			;;.............................................................................
  10:			;;
  11:			
  12:			; load symbols from BIOS ...
  13:			rsym bios.sym
  14:			;
  15:			;
  16:	0001          	VERSMA	EQU	1			; VERSION MAJOR,MINOR
  17:	0000          	VERSMI	EQU	0
  18:	0005          	BDOSE	EQU	$0005			; BDOS FUNCTION CALL ENTRY PT
  19:			;
  20:			;--[ REAL CODE START HERE ]
  21:			;
  22:	0100          		ORG	TPA
  23:				;
  24:	0100  C34602  		JP	SYSTRN
  25:			;
  26:			;--[ INTERNAL STORAGE ]
  27:			;
  28:			; VARS
  29:	0103 .. 0142 00	STKBAS:	DEFS	64			; LOCAL STACK
  30:	0143          	STKTOP	EQU	$
  31:	0143 .. 0143 00	SRCD:	DEFS	1			; SOURCE,DEST DISKS
  32:	0144 .. 0144 00	DSTD:	DEFS	1
  33:	0145  0000    	SNSEC:	DEFW	0			; S&D SECTORS #
  34:	0147  0000    	SLSEC:	DEFW	0			; S&D SECTORS LEN
  35:	0149  0000    	CSEC:	DEFW	0			; I/O REGISTERS: SEC
  36:	014B  0000    	CTRK:	DEFW	0			; TRACK
  37:	014D  0000    	COFF:	DEFW	0			; DMA
  38:	014F  0000    	CTRN:	DEFW	0
  39:	0151  00      	RSEC:	DEFB	0
  40:			;
  41:			; MESSAGES
  42:			;
  43:	0152  0D0A    	LOGONM:	DEFB	CR,LF
  44:	0154  53595354		DEFB	"SYSTRN ",(VERSMA+'0'),'.',(VERSMI+'0')
	      524E2031
	      2E30
  45:	015E  0D0A    		DEFB	CR,LF
  46:	0160  4469736B		DEFB	"Disk-to-disk CP/M transfer utility."
	      2D746F2D
	      6469736B
	      2043502F
	      4D207472
	      616E7366
	      65722075
	      74696C69
	      74792E
  47:	0183  0D0A0D0A		DEFB	CR,LF,CR,LF,0
	      00
  48:	0188  0D0A454E	MSOUDK:	DEFB	CR,LF,"ENTER SYSTEM SOURCE DISK [A-P] : ",0
	      54455220
	      53595354
	      454D2053
	      4F555243
	      45204449
	      534B205B
	      412D505D
	      203A2000
  49:	01AC  0D0A454E	MDESDK:	DEFB	CR,LF,"ENTER DESTINATION DISK [A-P] : ",0
	      54455220
	      44455354
	      494E4154
	      494F4E20
	      4449534B
	      205B412D
	      505D203A
	      2000
  50:	01CE  0D0A5752	MWRNGD:	DEFB	CR,LF,"WRONG DRIVE NUMBER!",CR,LF,0
	      4F4E4720
	      44524956
	      45204E55
	      4D424552
	      210D0A00
  51:	01E6  0D0A496E	MINSED:	DEFB	CR,LF,"Insert ",0
	      73657274
	      2000
  52:	01F0  736F7572	MSOURC:	DEFB	"source ",0
	      63652000
  53:	01F8  64657374	MDESTI:	DEFB	"destination ",0
	      696E6174
	      696F6E20
	      00
  54:	0205  6469736B	MPRESS:	DEFB	"disk and press any key..",CR,LF,0
	      20616E64
	      20707265
	      73732061
	      6E79206B
	      65792E2E
	      0D0A00
  55:	0220  0D0A4350	MDONE:	DEFB	CR,LF,"CP/M + BOOTLOADER TRANSFERRED OK.",CR,LF,0
	      2F4D202B
	      20424F4F
	      544C4F41
	      44455220
	      5452414E
	      53464552
	      52454420
	      4F4B2E0D
	      0A00
  56:			;
  57:			;--[ START ]
  58:			; prompt user for orig and destination
  59:			
  60:	0246          	SYSTRN:
  61:	0246  314301  		LD	SP,STKTOP		; INIT STACK, DISABLE INTERRUPTS
  62:	0249  DD219BD8		LD	IX,PHYPRM		; IX point to current CHS info IN BIOS
  63:	0000          	IF	INTRON
  65:			ENDIF
  66:	024D  215201  		LD	HL,LOGONM		; DISP LOGON
  67:	0250  CDE303  		CALL	ZDISP
  68:	0253  218801  	SAGAIN:	LD	HL,MSOUDK		; ASK FOR SOURCE
  69:	0256  CDE303  		CALL	ZDISP
  70:	0259  CDF203  		CALL	TTYI			; GET IT
  71:	025C  CD0C04  		CALL	CHKDNM			; CHECK RANGE
  72:	025F  324301  		LD	(SRCD),A		; STORE ANSWER
  73:	0262  FEFF    		CP	$FF
  74:	0264  2008    		JR	NZ,GOTSRC
  75:	0266  21CE01  		LD	HL,MWRNGD		; WARN USER
  76:	0269  CDE303  		CALL	ZDISP
  77:	026C  18E5    		JR	SAGAIN			; ASK AGAIN
  78:				;
  79:	026E  21AC01  	GOTSRC:	LD	HL,MDESDK		; ASK FOR DESTINATION
  80:	0271  CDE303  		CALL	ZDISP
  81:	0274  CDF203  		CALL	TTYI			; GET IT
  82:	0277  CD0C04  		CALL	CHKDNM			; CHECK RANGE
  83:	027A  324401  		LD	(DSTD),A		; STORE ANSWER
  84:	027D  FEFF    		CP	$FF
  85:	027F  2008    		JR	NZ,GOTDST
  86:	0281  21CE01  		LD	HL,MWRNGD		; WARN USER
  87:	0284  CDE303  		CALL	ZDISP
  88:	0287  18E5    		JR	GOTSRC			; ASK AGAIN
  89:				;
  90:	0289  21E601  	GOTDST:	LD	HL,MINSED		; PROMPT USER FOR SOURCE IN DRIVE
  91:	028C  CDE303  		CALL	ZDISP
  92:	028F  21F001  		LD	HL,MSOURC
  93:	0292  CDE303  		CALL	ZDISP
  94:	0295  210502  		LD	HL,MPRESS
  95:	0298  CDE303  		CALL	ZDISP
  96:	029B  CDFA03  		CALL	WAITK			; WAIT...
  97:	029E  3A4301  		LD	A,(SRCD)		; RETRIEVE SRC
  98:	02A1  4F      		LD	C,A
  99:	02A2  CD16DD  		CALL	BSELDSK
 100:	02A5  CD7DDA  		CALL	SELDSK			; CALL BIOS DIRECTLY
 101:	02A8  7D      		LD	A,L			; OK ?
 102:	02A9  B4      		OR	H
 103:	02AA  2008    		JR	NZ,STEP01
 104:	02AC  21CE01  		LD	HL,MWRNGD		; WARN USER
 105:	02AF  CDE303  		CALL	ZDISP
 106:	02B2  189F    		JR	SAGAIN			; ASK AGAIN
 107:				;
 108:	02B4  111000  	STEP01:	LD	DE,16			; EXTRACT TRANS TABLE ADDRESS
 109:	02B7  19      		ADD	HL,DE
 110:	02B8  224F01  		LD	(CTRN),HL
 111:	02BB  DD6E02  		LD	L,(IX+2)		; GET SEC LEN FROM SEL DRV
 112:	02BE  DD6603  		LD	H,(IX+3)
 113:	02C1  224701  		LD	(SLSEC),HL		; STORE
 114:	02C4  EB      		EX	DE,HL			; STORE LEN IN DE AS DIVISOR
 115:	02C5  015E1B  		LD	BC,BEGDAT-CCP		; STORE CP/M LEN AS DIVIDEND
 116:	02C8  CDE1FC  		CALL	BBDIV16			; DIVIDEND
 117:	02CB  C5      		PUSH	BC			; BC IS THE QUOTIENT
 118:	02CC  E1      		POP	HL			; LOAD IN HL
 119:	02CD  23      		INC	HL			; ADD 1 FOR THE BOOTLOADER
 120:	02CE  224501  		LD	(SNSEC),HL		; STORE #
 121:				;
 122:				; now load the image
 123:				;
 124:	02D1  212804  		LD	HL,SYSSTO
 125:	02D4  224D01  		LD	(COFF),HL		; INIT DMA
 126:	02D7  AF      		XOR	A
 127:	02D8  324B01  		LD	(CTRK),A		; INIT TRACK
 128:	02DB  325101  		LD	(RSEC),A		; SEC. COUNT
 129:	02DE  3C      	SRTRK:	INC	A
 130:	02DF  324901  		LD	(CSEC),A		; SECTOR
 131:	02E2  ED4B4D01	RNSEC:	LD	BC,(COFF)		; TRANSFER PARAMS TO BIOS
 132:	02E6  CDB7FC  		CALL	BBDMASET
 133:	02E9  ED4B4B01		LD	BC,(CTRK)
 134:	02ED  CDABFC  		CALL	BBTRKSET
 135:	02F0  ED4B4901		LD	BC,(CSEC)		; TRANSLATE SECTOR
 136:	02F4  ED5B4F01		LD	DE,(CTRN)
 137:	02F8  CDD303  		CALL	LSECTRA
 138:	02FB  CDB1FC  		CALL	BBSECSET
 139:	02FE  CD00DB  		CALL	DREADH			; LOAD SEC
 140:	0301  2A4D01  		LD	HL,(COFF)
 141:	0304  ED4B4701		LD	BC,(SLSEC)
 142:	0308  09      		ADD	HL,BC			; NEXT DMA OFFSET
 143:	0309  224D01  		LD	(COFF),HL
 144:				;
 145:	030C  3A4501  		LD	A,(SNSEC)		; CHECK IMAGE SIZE
 146:	030F  47      		LD	B,A
 147:	0310  3A5101  		LD	A,(RSEC)
 148:	0313  B8      		CP	B			; ALL SECS LOADED ?
 149:	0314  281E    		JR	Z,LOADED
 150:	0316  3C      		INC	A
 151:	0317  325101  		LD	(RSEC),A		; NO
 152:				;
 153:	031A  3A4901  		LD	A,(CSEC)
 154:	031D  3C      		INC	A
 155:	031E  DD4600  		LD	B,(IX+0)
 156:	0321  04      		INC	B
 157:	0322  B8      		CP	B			; EOT ?
 158:	0323  2805    		JR	Z,RNTRK
 159:	0325  324901  		LD	(CSEC),A
 160:	0328  18B8    		JR	RNSEC
 161:	032A  3A4B01  	RNTRK:	LD	A,(CTRK)
 162:	032D  3C      		INC	A
 163:	032E  324B01  		LD	(CTRK),A
 164:	0331  AF      		XOR	A
 165:	0332  18AA    		JR	SRTRK
 166:				;
 167:				; NOW WE HAVE THE IMAGE
 168:				;
 169:	0334  21E601  	LOADED:	LD	HL,MINSED		; PROMPT USER FOR DEST. IN DRIVE
 170:	0337  CDE303  		CALL	ZDISP
 171:	033A  21F801  		LD	HL,MDESTI
 172:	033D  CDE303  		CALL	ZDISP
 173:	0340  210502  		LD	HL,MPRESS
 174:	0343  CDE303  		CALL	ZDISP
 175:	0346  CDFA03  		CALL	WAITK			; WAIT...
 176:	0349  3A4401  		LD	A,(DSTD)		; RETRIEVE SRC
 177:	034C  4F      		LD	C,A
 178:	034D  CD16DD  		CALL	BSELDSK
 179:	0350  CD7DDA  		CALL	SELDSK			; CALL BIOS DIRECTLY
 180:	0353  7D      		LD	A,L			; OK ?
 181:	0354  B4      		OR	H
 182:	0355  2009    		JR	NZ,STEP11
 183:	0357  21CE01  		LD	HL,MWRNGD		; WARN USER
 184:	035A  CDE303  		CALL	ZDISP
 185:	035D  C35302  		JP	SAGAIN			; ASK AGAIN
 186:				;
 187:	0360  111000  	STEP11:	LD	DE,16			; EXTRACT TRANS TABLE ADDRESS
 188:	0363  19      		ADD	HL,DE
 189:	0364  224F01  		LD	(CTRN),HL
 190:				;
 191:				; now SAVE the image
 192:				;
 193:	0367  212804  		LD	HL,SYSSTO
 194:	036A  224D01  		LD	(COFF),HL		; INIT DMA
 195:	036D  AF      		XOR	A
 196:	036E  324B01  		LD	(CTRK),A		; INIT TRACK
 197:	0371  325101  		LD	(RSEC),A		; SEC. COUNT
 198:	0374  3C      	DWTRK:	INC	A
 199:	0375  324901  		LD	(CSEC),A		; SECTOR
 200:	0378  ED4B4D01	WNSEC:	LD	BC,(COFF)		; TRANSFER PARAMS TO BIOS
 201:	037C  CDB7FC  		CALL	BBDMASET
 202:	037F  ED4B4B01		LD	BC,(CTRK)
 203:	0383  CDABFC  		CALL	BBTRKSET
 204:	0386  ED4B4901		LD	BC,(CSEC)		; TRANSLATE SECTOR
 205:	038A  ED5B4F01		LD	DE,(CTRN)
 206:	038E  CDD303  		CALL	LSECTRA
 207:	0391  CDB1FC  		CALL	BBSECSET
 208:	0394  CD30DB  		CALL	DWRITH			; SAVE SEC
 209:	0397  2A4D01  		LD	HL,(COFF)
 210:	039A  ED4B4701		LD	BC,(SLSEC)
 211:	039E  09      		ADD	HL,BC			; NEXT DMA OFFSET
 212:	039F  224D01  		LD	(COFF),HL
 213:				;
 214:	03A2  3A4501  		LD	A,(SNSEC)		; CHECK IMAGE SIZE
 215:	03A5  47      		LD	B,A
 216:	03A6  3A5101  		LD	A,(RSEC)
 217:	03A9  B8      		CP	B			; ALL SECS SAVED ?
 218:	03AA  281E    		JR	Z,SAVED
 219:	03AC  3C      		INC	A
 220:	03AD  325101  		LD	(RSEC),A		; NO
 221:				;
 222:	03B0  3A4901  		LD	A,(CSEC)
 223:	03B3  3C      		INC	A
 224:	03B4  DD4600  		LD	B,(IX+0)
 225:	03B7  04      		INC	B
 226:	03B8  B8      		CP	B			; EOT ?
 227:	03B9  2805    		JR	Z,WNTRK
 228:	03BB  324901  		LD	(CSEC),A
 229:	03BE  18B8    		JR	WNSEC
 230:	03C0  3A4B01  	WNTRK:	LD	A,(CTRK)
 231:	03C3  3C      		INC	A
 232:	03C4  324B01  		LD	(CTRK),A
 233:	03C7  AF      		XOR	A
 234:	03C8  18AA    		JR	DWTRK
 235:	03CA          	SAVED:
 236:	03CA  212002  		LD	HL,MDONE		; ENDING
 237:	03CD  CDE303  		CALL	ZDISP
 238:				;
 239:				; TERMINATION
 240:				;
 241:	03D0          	EOP:
 242:	03D0  C30000  		JP	$0000
 243:			
 244:			;
 245:			;--[ ROUTINES ]
 246:			;
 247:				;
 248:				; APPLY SKEW FACTOR
 249:				;
 250:	03D3          	LSECTRA:
 251:	03D3  EB      		EX      DE,HL			; HL= trans
 252:	03D4  09      		ADD     HL,BC			; HL= trans(sector)
 253:	03D5  6E      		LD      L,(HL)			; L = trans(sector)
 254:	03D6  2600    		LD      H,0			; HL= trans(sector)
 255:	03D8  C9      		RET				; with value in HL
 256:				;
 257:				; OUTPUT A CHAR USING BDOS
 258:				;
 259:	03D9          	BDOOUT:
 260:	03D9  C5      		PUSH	BC
 261:	03DA  E5      		PUSH	HL
 262:	03DB  0E02    		LD	C,2
 263:	03DD  CD0500  		CALL	BDOSE
 264:	03E0  E1      		POP	HL
 265:	03E1  C1      		POP	BC
 266:	03E2  C9      		RET
 267:				;
 268:				; OUTPUT A STRING
 269:				;
 270:	03E3  D5      	ZDISP:	PUSH	DE
 271:	03E4  7E      	ZSDSP1:	LD	A,(HL)			; pick char pointed by HL
 272:	03E5  B7      		OR	A			; is the terminating NUL ?
 273:	03E6  2002    		JR	NZ,NZSDSP		; yes
 274:	03E8  D1      		POP	DE
 275:	03E9  C9      		RET
 276:	03EA  5F      	NZSDSP:	LD	E,A			;
 277:	03EB  CDD903  		CALL	BDOOUT			; display it
 278:	03EE  23      		INC	HL			;
 279:	03EF  C3E403  		JP	ZSDSP1			;
 280:				;
 281:				; TAKE A CHAR FOR KEYBD
 282:				;
 283:	03F2  C5      	TTYI:	PUSH	BC
 284:	03F3  0E01    		LD	C,1
 285:	03F5  CD06CA  		CALL	BDOS
 286:	03F8  C1      		POP	BC
 287:	03F9  C9      		RET
 288:				;
 289:				; WAIT FOR A KEY, NO ECHO
 290:				;
 291:	03FA  C5      	WAITK:	PUSH	BC
 292:	03FB  D5      		PUSH	DE
 293:	03FC  E5      		PUSH	HL
 294:	03FD          	WAITK0:
 295:	03FD  0E06    		LD	C,6
 296:	03FF  1EFF    		LD	E,0FFH
 297:	0401  CD06CA  		CALL	BDOS
 298:	0404  E67F    		AND	7FH
 299:	0406  28F5    		JR	Z,WAITK0
 300:	0408  E1      		POP	HL
 301:	0409  D1      		POP	DE
 302:	040A  C1      		POP	BC
 303:	040B  C9      		RET
 304:				;
 305:				; CHECK ENTERED DRIVE NUM
 306:				;
 307:	040C  FE60    	CHKDNM:	CP	$60			; CONVERT UPPERCASE
 308:	040E  FA1804  		JP	M,CKRNG
 309:	0411  FE7B    		CP	$7B
 310:	0413  F21804  		JP	P,CKRNG
 311:	0416  CBAF    		RES	5,A
 312:	0418  FE41    	CKRNG:	CP	'A'			; MUST BE BETWEEN A AND P
 313:	041A  FA2504  		JP	M,CHKDKO
 314:	041D  FE51    		CP	'Q'
 315:	041F  F22504  		JP	P,CHKDKO
 316:	0422  D641    		SUB	'A'			; OK
 317:	0424  C9      		RET
 318:	0425  3EFF    	CHKDKO:	LD	A,$FF
 319:	0427  C9      		RET
 320:				;
 321:				; 16 BY 16 BIT DIVISION
 322:				;
 323:				; IN BC = DIVIDEND
 324:				; IN DE = DIVISOR
 325:				; ----
 326:				; OUT BC = QUOTIENT
 327:				; OUT HL = REMAINDER
 328:			; DIV16:	LD	A,B
 329:			; 	LD	B,16
 330:			; DIVLO:	RL	C
 331:			; 	RLA
 332:			; 	ADC	HL,HL
 333:			; 	SBC	HL,DE
 334:			; 	JR	NC,$+3
 335:			; 	ADD	HL,DE
 336:			; 	CCF
 337:			; 	DJNZ	DIVLO
 338:			; 	RL	C
 339:			; 	RLA
 340:			; 	LD	B,A
 341:			; 	RET
 342:			; DIV16:	LD	A,D
 343:			; 	OR	E
 344:			; 	JR	Z,DVERR			; DIVIDE BY 0 CHECK
 345:			; 	LD	A,B
 346:			; 	LD	HL,0
 347:			; 	LD	B,16
 348:			; DIVTRY:	RL	C
 349:			; 	RLA
 350:			; 	ADC	HL,HL
 351:			; 	SBC	HL,DE
 352:			; DIVNUL:	CCF
 353:			; 	JR	NC,DIVNGV
 354:			; DIVPTV:	DJNZ	DIVTRY
 355:			; 	JR	DIVDON
 356:			; DIVRST:	RL	C
 357:			; 	RLA
 358:			; 	ADC	HL,HL
 359:			; 	AND	A
 360:			; 	ADC	HL,DE
 361:			; 	JR	C,DIVPTV
 362:			; 	JR	Z,DIVNUL
 363:			; DIVNGV:	DJNZ	DIVRST
 364:			; DIVDON:	RL	C
 365:			; 	RLA
 366:			; 	ADD	HL,DE
 367:			; 	LD	B,A
 368:			; 	LD	A,0			; DIV OK
 369:			; 	RET
 370:			; DVERR:	LD	A,$FF			; DIV ERR
 371:			; 	RET
 372:			
 373:			;--[ END OF PROGRAM ]
 374:			; after this point system image will be loaded...
 375:			;
 376:	0428          	SYSSTO	EQU	$
 377:			
 378:			; REAL END
 379:	0428          		END



Statistics:

     5	passes
     0	jr promotions
   556	symbols
     0	bytes



Symbol Table:

aftrio          dca3+    delay           fd85+    r6msr              6+    
all00           dff7+    dfmt128            0+    r7spr              7+    
all01           e02e+    dfmt256            0+    ram0buf           3b+    
all02           e0e5+    dfmt512         ffff+    ram1buf           3c+    
all03           e11c+    diff16          dd01+    ram2buf           3d+    
alloc           dbfb+    dirbf           df77+    ram3buf           3e+    
altprnprt          3+    dly1            fd89+    ramtbl          e000+    
appbuf            2e+    dly2            fd87+    rcp             e200+    
base               0+    dmaadr          dd75+    rcps              10+    
bbappp             e+    dpbase          d837+    rdflo           db13+    
bbbase          f000+    dpbnds          d882+    rdvrt           db22+    
bbcalret        fd5a+    dpbvrt          d857+    readcfg8255       92+    
bbcbank            c+    dreadh          db00     readhst         dafd+    
bbcomn          fc00+    dselbf            4e+    regastatus        16+    
bbconin         fd94+    dstd             144     regcommand         f+    
bbconout        fd9f+    dwrith          db30     regcontrol        16+    
bbconst         fdaa+    dwtrk            374     regcyllsb          c+    
bbcpboot        fcc9+    eep29c             4+    regcylmsb          d+    
bbcptime        fcc3+    eep29ee            1+    regdata            8+    
bbcrtcini       fc03+    eep29xe            2+    regerr             9+    
bbcrtfill       fc09+    eepage0           c0+    regseccnt          a+    
bbcstck            d+    eeproglock        10+    regsector          b+    
bbcurset        fc21+    eepsta          f000+    regshd             e+    
bbdebug         ffff+    eepunsupp          8+    regstatus          f+    
bbdiv16         fce1+    eerineprom        80+    resroom          400+    
bbdmaset        fcb7+    enddat          e1d3+    rhstfi          dc66+    
bbdriveid       fcf9+    eop              3d0+    rldrom          fe79+    
bbdsksel        fcbd+    erflag          dd5f+    rnsec            2e2     
bbeidck         fd23+    esc               1b+    rntrk            32a     
bbepmngr        fd1d+    expath          edf4+    rsec             151     
bbexec          fd29+    expaths            5+    rst7sp1           38+    
bbfdrvsel       fcdb+    extfcb          edd0+    rst7sp2           39+    
bbfhome         fc81+    extrabias       1200+    rst7sp3           3a+    
bbflopio        fc93+    extstk          efd0+    rtbsiz           3c0+    
bbfread         fc87+    false              0+    rtcbuf          da5b+    
bbfwrite        fc8d+    fcp             ea00+    rwmove          dcef+    
bbhdboot        fd11+    fcps               4+    rwoper          dc02+    
bbhdgeo         fd0b+    fdcbase           d0+    rwoshf          dc09+    
bbhdinit        fcf3+    fdccmdstatr       d0+    sagain           253     
bbhdrd          fd05+    fdcdatareg        d7+    saved            3ca     
bbhdwr          fcff+    fdcdrvrcnt        d6+    sconin          fc2d+    
bbimgp             4+    fdcreadc          88+    sconout         fc27+    
bbinictc        fc57+    fdcrestc           7+    sconst          fc33+    
bbjtobnk        fc00+    fdcsectreg        d2+    sectran         dade+    
bbldpart        fd17+    fdcseekc          17+    seg1            e200+    
bbmul16         fce7+    fdctrakreg        d1+    seg10           ec00+    
bboffcal        fced+    fdcwritc          a8+    seg11           ef00+    
bbpag              f+    fdrvbuf           45+    seg12           efd0+    
bbprcvblk       fc6f+    ff                 c+    seg2            ea00+    
bbprnchr        fc99+    fifblok            b+    seg3            ea00+    
bbpsndblk       fc63+    fifoend           25+    seg4            ed00+    
bbrdtime        fca5+    fifokb            1a+    seg5            ed80+    
bbrdvdsk        fc75+    fifosto            f+    seg6            edd0+    
bbresctc        fc5d+    fifou0             f+    seg7            edf4+    
bbsecset        fcb1+    fifsize            8+    seg8            edff+    
bbsidset        fcd5+    fin             fdc4+    seg9            ee00+    
bbstack         feb4+    fixblock           0+    sekdsk          dd65+    
bbstbase        fe90+    fout            fde1+    sekhst          dd74+    
bbsttim         fc9f+    frdpbuf           41+    seksec          dd68+    
bbtrkset        fcab+    fsecbuf           43+    sektrk          dd66+    
bbu0ini         fc39+    fsekbuf           3f+    selact          da98+    
bbu1ini         fc51+    fstat           fdb5+    seldsk          da7d     
bbu1rx          fc45+    ftrkbuf           46+    selflp          dac0+    
bbu1st          fc4b+    gocpm           d9f1+    selhdd          dac6+    
bbu1tx          fc3f+    gotdst           289     selndb          dabb+    
bbuplchr        fc69+    gotsrc           26e     selvrt          dac7+    
bbvcpmbt        fccf+    haseds          ffff+    setdma          dad9+    
bbvoid          fd6a+    hmempag            b+    setsec          dad4+    
bbwrvdsk        fc7b+    home            da65+    settrk          dacf+    
bdoout           3d9     homflo          da73+    shsize            20+    
bdos            ca06+    hstact          dd5e+    shstk           ed00+    
bdosb           ca00+    hstbsz           200+    shstks             4+    
bdose          =   5+    hstbuf          dd77+    signon          d8a8+    
bdwtyp          dd62+    hstdsk          dd6f+    sintvec         fff0+    
begdat          dd5e+    hstfil          dc6e+    sk2hst          dcb2+    
bfailmsg        d902+    hstfrd          dca0+    slsec            147     
bias            8e00+    hstful          dc48+    snsec            145     
biohby            d8+    hstlgs          dd6d+    srcd             143     
bioreas          a00+    hstloa          dc37+    srtrk            2de     
bios            d800+    hstrdd          dc3a+    step01           2b4     
biosiz           55e+    hstrsf          dcc5+    step11           360     
biostds          600+    hstsec          dd72+    stkbas           103+    
bldoffs         3000+    hstsyn          dc45+    stktop         = 143+    
blifastblok       60+    hsttmp          dd6e+    stmpp2          ffff+    
blifastline       6a+    hsttrk          dd70+    stmpzs             0+    
blislowblok       40+    hstwrt          dd60+    synpnd          dcf2+    
blislowline       4a+    idea0line          1+    sysbase         f000+    
bootfail        d9e9+    idea1line          2+    syscmlo         feb4+    
botdsk          d836+    idea2line          4+    syscom          fc00+    
botok           d93f+    idecs0line         8+    syshertz          13+    
bseldsk         dd16     idecs1line        10+    syssto         = 428+    
bsetdma         dd11+    ideporta          e0+    systrn           246     
bsetsec         dd0c+    ideportb          e1+    sytimr          fe19+    
bsettrk         dd07+    ideportc          e2+    tblblk            30+    
btpasiz            6+    ideportctrl       e3+    tdesclen          14+    
cbboot          d914+    iderdline         40+    tiaddrlen          4+    
cbread          db7b+    iderstline        80+    time            da54+    
cbrev              f+    idewrline         20+    timrcon           28+    
ccp             c200+    idisk1            24+    tmpbyte           4b+    
cdisk              4+    idisk2            24+    tnamelen           8+    
chk00           e065+    idisk3             1+    tpa              100+    
chk01           e0a5+    idisk4             1+    tpagelen           2+    
chk02           e153+    imtpag            ff+    trans           d877+    
chk03           e193+    imtsiz           400+    trnpag             d+    
chkdko           425     intrdi          fe0f+    true            ffff+    
chkdnm           40c     intren          fdfe+    tsizelen           4+    
chksid          db61+    intron             0+    ttyi             3f2     
chkuna          dbb6+    iobval            95+    u0defspeed         6+    
ckrng            418     iobyte             3+    u0isr           fe25+    
cldcmnd         da28+    ioflag          dd61+    u1defspeed         c+    
clkday          da5e+    iop                0+    u1isr           fe59+    
clkdow          da60+    iops               0+    u1nul           fe70+    
clkhr           da5d+    iuser1            24+    uart0             c0+    
clkio              6+    iuser2             f+    uart0base         c0+    
clkmm           da5c+    iuser3            24+    uart0br           2c+    
clkmon          da5f+    iuser4             f+    uart1             c8+    
clkrst             7+    kbdbyte           4d+    uart115k2          1+    
clksclk            5+    keybstrbbit        7+    uart1200          60+    
clkse           da5b+    lf                 a+    uart19k2           6+    
clkyea          da61+    loaded           334     uart1base         c8+    
cloisr          da62+    logonm           152     uart1br           2b+    
cmdid             ec+    lsect           d9c1+    uart2400          30+    
cmdinit           91+    lsectra          3d3     uart38k4           3+    
cmdread           20+    maxblk            14+    uart4800          18+    
cmdrecal          10+    mconin          dd1b+    uart57k6           2+    
cmdset          da4f+    mconout         dd2c+    uart9600           c+    
cmdspindown       e0+    mconst          dd3b+    uastav          fe84+    
cmdspinup         e1+    mdesdk           1ac     uastkb          fe86+    
cmdwrite          30+    mdesti           1f8     uisre           fe4e+    
cnfbyte           27+    mdone            220     uisri           fe32+    
coff             14d     menaprt           21+    unacnt          dd64+    
colbuf            4f+    minsed           1e6     unadsk          dd69+    
coldbeg         da3e+    miobyte           4c+    unasec          dd6c+    
coldend         da45+    mmgetp          fd78+    unatrk          dd6a+    
constr          dd4f+    mmpmap          fd6b+    usenodeblock       0+    
cont            d9d1+    mmtpapag          ef+    vconin          fc15+    
copsys            2d+    mmuport           20+    vconout         fc0f+    
cpmsiz          1bde+    mmutstaddr      d000+    vconst          fc1b+    
cr                 d+    mmutstpage         d+    vdbufsz            a+    
crdureg         fc27+    mnodev          dd4a+    vdrdsec            0+    
crt6545adst       8c+    monmaj            33+    vdskbuf           30+    
crt6545data       8d+    monmin            32+    vdwrsec            1+    
crtbase           80+    mpress           205     vers              16+    
crtbeepport       8f+    mscnt             f6+    versma         =   1+    
crtblinkbit        0+    msize             3c+    versmi         =   0+    
crthilitbit        3+    msoudk           188     voidisr         fe22+    
crtkeybcnt        87+    msourc           1f0     waitk            3fa     
crtkeybdat        85+    mwrngd           1ce     waitk0           3fd     
crtmodebit         4+    mzmac              1+    wboot           d986+    
crtprntcnt        83+    nextop          d9d4+    wboote          d803+    
crtprntdat        81+    noovf           dbf4+    whstfi          dc5f+    
crtram0cnt        82+    noprow          dd63+    wnsec            378     
crtram0dat        80+    nzsdsp           3ea     wntrk            3c0     
crtram1cnt        86+    path            da46+    wrall              0+    
crtram1dat        84+    phydpt          d8a6+    wrdir              1+    
crtram2cnt        8a+    phylen             a+    wrfl2           db53+    
crtram2dat        88+    phyoff             f+    wrflo           db43+    
crtram3port       8e+    phyprm          d89b     wrflt           db47+    
crtrevrsbit        1+    physpt          d8a5+    write           db8e+    
crtservcnt        8b+    phystr          dae1+    writecfg8255      80+    
crtservdat        89+    pio2bit2           2+    writehst        db2d+    
crtunderbit        2+    pio2bit3           3+    wrttmp          dd73+    
crtwidthbit        1+    pio2bit4           4+    wrual              2+    
csec             149     ppakstb            1+    wrvrt           db56+    
cslp0           dd50+    ppcntrp            2+    z3cl            ef00+    
ctc0tc            2a+    ppdatap            3+    z3cls             d0+    
ctc0tchi          20+    ppdini             0+    z3env           ec00+    
ctc1tc            29+    ppdokg             2+    z3envs             2+    
ctc1tc100hz        5+    ppdrdy             4+    z3msg           ed80+    
ctc1tc10hz        30+    ppdstp             6+    z3ndir          ee00+    
ctc1tc25hz        13+    ppstrob            0+    z3ndirs           1c+    
ctc1tc2hz         f4+    ppuack             7+    z3rev             21+    
ctc1tc50hz         a+    ppuini             1+    z3whl           edff+    
ctcbase           e8+    ppuokg             3+    zbufbas         e200+    
ctcchan0          e8+    ppurdy             5+    zdisp            3e3     
ctcchan1          e9+    prntbusybit        0+    zdsstpr         e838+    
ctcchan2          ea+    prvtop            4f+    zdsstsz          1c8+    
ctcchan3          eb+    r0brdl             0+    zero128         da35+    
ctrk             14b     r0rxtx             0+    zerom           da37+    
ctrn             14f     r1brdm             1+    zflopkg          200+    
curpbuf           48+    r1ier              1+    ziopkg             0+    
cursoroff         20+    r2fcr              2+    zrespkg          800+    
cursoron           a+    r2iir              2+    zsdsp1           3e4     
cursshp           4a+    r3lcr              3+    zstdovr          400+    
cwflg           da3d+    r4mcr              4+    
datsiz           475+    r5lsr              5+    
